
redboot.elf:     file format elf32-littlearm


Disassembly of section .rom_vectors:

00000000 <__exception_handlers>:
   0:	ea00000e 	b	40 <reset_vector>
   4:	e59ff018 	ldr	pc, [pc, #24]	; 24 <.undefined_instruction>
   8:	e59ff018 	ldr	pc, [pc, #24]	; 28 <.software_interrupt>
   c:	e59ff018 	ldr	pc, [pc, #24]	; 2c <.abort_prefetch>
  10:	e59ff018 	ldr	pc, [pc, #24]	; 30 <.abort_data>
  14:	b4405f62 	.word	0xb4405f62
  18:	e59ff018 	ldr	pc, [pc, #24]	; 38 <.IRQ>
  1c:	e59ff018 	ldr	pc, [pc, #24]	; 3c <.FIQ>

00000020 <vectors>:
  20:	00000040 	.word	0x00000040

00000024 <.undefined_instruction>:
  24:	0000034c 	.word	0x0000034c

00000028 <.software_interrupt>:
  28:	00000370 	.word	0x00000370

0000002c <.abort_prefetch>:
  2c:	0000039c 	.word	0x0000039c

00000030 <.abort_data>:
  30:	000003b8 	.word	0x000003b8
  34:	00000000 	.word	0x00000000

00000038 <.IRQ>:
  38:	000004d0 	.word	0x000004d0

0000003c <.FIQ>:
  3c:	00000498 	.word	0x00000498

Disassembly of section .text:

00000040 <reset_vector>:
      40:	e59f05c8 	ldr	r0, [pc, #1480]	; 610 <_eCos_id+0x14>
      44:	e3a020aa 	mov	r2, #170	; 0xaa
      48:	e3a03055 	mov	r3, #85	; 0x55
      4c:	e3a01001 	mov	r1, #1
      50:	e5801080 	str	r1, [r0, #128]	; 0x80
      54:	e3a01024 	mov	r1, #36	; 0x24
      58:	e5801084 	str	r1, [r0, #132]	; 0x84
      5c:	e580208c 	str	r2, [r0, #140]	; 0x8c
      60:	e580308c 	str	r3, [r0, #140]	; 0x8c
      64:	e5901088 	ldr	r1, [r0, #136]	; 0x88
      68:	e2111b01 	ands	r1, r1, #1024	; 0x400
      6c:	0afffffc 	beq	64 <ARMREG_SIZE+0x14>
      70:	e3a01003 	mov	r1, #3
      74:	e5801080 	str	r1, [r0, #128]	; 0x80
      78:	e580208c 	str	r2, [r0, #140]	; 0x8c
      7c:	e580308c 	str	r3, [r0, #140]	; 0x8c
      80:	e3a00000 	mov	r0, #0
      84:	e3a01101 	mov	r1, #1073741824	; 0x40000000
      88:	e3a02040 	mov	r2, #64	; 0x40
      8c:	e5b03004 	ldr	r3, [r0, #4]!
      90:	e5a13004 	str	r3, [r1, #4]!
      94:	e1500002 	cmp	r0, r2
      98:	1afffffb 	bne	8c <CPSR_IRQ_DISABLE+0xc>
      9c:	e59f056c 	ldr	r0, [pc, #1388]	; 610 <_eCos_id+0x14>
      a0:	e3a01002 	mov	r1, #2
      a4:	e5801040 	str	r1, [r0, #64]	; 0x40
      a8:	e3a01004 	mov	r1, #4
      ac:	e5801004 	str	r1, [r0, #4]
      b0:	e3a01002 	mov	r1, #2
      b4:	e5801000 	str	r1, [r0]
      b8:	e59f0554 	ldr	r0, [pc, #1364]	; 614 <_eCos_id+0x18>
      bc:	e59f1554 	ldr	r1, [pc, #1364]	; 618 <_eCos_id+0x1c>
      c0:	e5801000 	str	r1, [r0]
      c4:	e59f0550 	ldr	r0, [pc, #1360]	; 61c <_eCos_id+0x20>
      c8:	e59f1550 	ldr	r1, [pc, #1360]	; 620 <_eCos_id+0x24>
      cc:	e5801000 	str	r1, [r0]
      d0:	e59f054c 	ldr	r0, [pc, #1356]	; 624 <_eCos_id+0x28>
      d4:	e59f154c 	ldr	r1, [pc, #1356]	; 628 <_eCos_id+0x2c>
      d8:	e5801000 	str	r1, [r0]
      dc:	e59f0548 	ldr	r0, [pc, #1352]	; 62c <_eCos_id+0x30>
      e0:	e3a01116 	mov	r1, #-2147483643	; 0x80000005
      e4:	e5801000 	str	r1, [r0]
      e8:	e3a01001 	mov	r1, #1
      ec:	e5801004 	str	r1, [r0, #4]
      f0:	e59f1538 	ldr	r1, [pc, #1336]	; 630 <_eCos_id+0x34>
      f4:	e5801014 	str	r1, [r0, #20]
      f8:	e59f0534 	ldr	r0, [pc, #1332]	; 634 <_eCos_id+0x38>
      fc:	e5901018 	ldr	r1, [r0, #24]
     100:	e3811801 	orr	r1, r1, #65536	; 0x10000
     104:	e5801018 	str	r1, [r0, #24]
     108:	e59f0524 	ldr	r0, [pc, #1316]	; 634 <_eCos_id+0x38>
     10c:	e5901018 	ldr	r1, [r0, #24]
     110:	e3811802 	orr	r1, r1, #131072	; 0x20000
     114:	e5801018 	str	r1, [r0, #24]
     118:	e59f0514 	ldr	r0, [pc, #1300]	; 634 <_eCos_id+0x38>
     11c:	e5901018 	ldr	r1, [r0, #24]
     120:	e3811702 	orr	r1, r1, #524288	; 0x80000
     124:	e5801018 	str	r1, [r0, #24]
     128:	e59f0504 	ldr	r0, [pc, #1284]	; 634 <_eCos_id+0x38>
     12c:	e3a01702 	mov	r1, #524288	; 0x80000
     130:	e5801014 	str	r1, [r0, #20]

00000134 <warm_reset>:
     134:	e59f04f8 	ldr	r0, [pc, #1272]	; 634 <_eCos_id+0x38>
     138:	e3a01801 	mov	r1, #65536	; 0x10000
     13c:	e5801014 	str	r1, [r0, #20]
     140:	e3a01801 	mov	r1, #65536	; 0x10000
     144:	e580101c 	str	r1, [r0, #28]
     148:	e59f04e4 	ldr	r0, [pc, #1252]	; 634 <_eCos_id+0x38>
     14c:	e3a01802 	mov	r1, #131072	; 0x20000
     150:	e5801014 	str	r1, [r0, #20]
     154:	e3a01802 	mov	r1, #131072	; 0x20000
     158:	e580101c 	str	r1, [r0, #28]
     15c:	e3a00000 	mov	r0, #0
     160:	e59f14d0 	ldr	r1, [pc, #1232]	; 638 <_eCos_id+0x3c>
     164:	e5912008 	ldr	r2, [r1, #8]
     168:	e5802008 	str	r2, [r0, #8]

0000016c <start>:
     16c:	e59f04c0 	ldr	r0, [pc, #1216]	; 634 <_eCos_id+0x38>
     170:	e3a01801 	mov	r1, #65536	; 0x10000
     174:	e5801014 	str	r1, [r0, #20]
     178:	e3a01801 	mov	r1, #65536	; 0x10000
     17c:	e580101c 	str	r1, [r0, #28]
     180:	e59f04ac 	ldr	r0, [pc, #1196]	; 634 <_eCos_id+0x38>
     184:	e3a01802 	mov	r1, #131072	; 0x20000
     188:	e5801014 	str	r1, [r0, #20]
     18c:	e3a01802 	mov	r1, #131072	; 0x20000
     190:	e580101c 	str	r1, [r0, #28]
     194:	e3a00000 	mov	r0, #0
     198:	e59f1454 	ldr	r1, [pc, #1108]	; 5f4 <.__exception_handlers>
     19c:	e5912028 	ldr	r2, [r1, #40]	; 0x28
     1a0:	e5802028 	str	r2, [r0, #40]	; 0x28
     1a4:	e5912018 	ldr	r2, [r1, #24]
     1a8:	e5802018 	str	r2, [r0, #24]
     1ac:	e5912038 	ldr	r2, [r1, #56]	; 0x38
     1b0:	e5802038 	str	r2, [r0, #56]	; 0x38
     1b4:	e591201c 	ldr	r2, [r1, #28]
     1b8:	e580201c 	str	r2, [r0, #28]
     1bc:	e591203c 	ldr	r2, [r1, #60]	; 0x3c
     1c0:	e580203c 	str	r2, [r0, #60]	; 0x3c
     1c4:	e591200c 	ldr	r2, [r1, #12]
     1c8:	e580200c 	str	r2, [r0, #12]
     1cc:	e591202c 	ldr	r2, [r1, #44]	; 0x2c
     1d0:	e580202c 	str	r2, [r0, #44]	; 0x2c
     1d4:	e5912010 	ldr	r2, [r1, #16]
     1d8:	e5802010 	str	r2, [r0, #16]
     1dc:	e5912030 	ldr	r2, [r1, #48]	; 0x30
     1e0:	e5802030 	str	r2, [r0, #48]	; 0x30
     1e4:	e59f0448 	ldr	r0, [pc, #1096]	; 634 <_eCos_id+0x38>
     1e8:	e3a01801 	mov	r1, #65536	; 0x10000
     1ec:	e5801014 	str	r1, [r0, #20]
     1f0:	e3a01000 	mov	r1, #0
     1f4:	e580101c 	str	r1, [r0, #28]
     1f8:	e59f0434 	ldr	r0, [pc, #1076]	; 634 <_eCos_id+0x38>
     1fc:	e3a01802 	mov	r1, #131072	; 0x20000
     200:	e5801014 	str	r1, [r0, #20]
     204:	e3a01000 	mov	r1, #0
     208:	e580101c 	str	r1, [r0, #28]
     20c:	e3a00000 	mov	r0, #0
     210:	e59f13dc 	ldr	r1, [pc, #988]	; 5f4 <.__exception_handlers>
     214:	e5912000 	ldr	r2, [r1]
     218:	e5802000 	str	r2, [r0]
     21c:	e59f33b8 	ldr	r3, [pc, #952]	; 5dc <.__rom_data_start>
     220:	e59f43b8 	ldr	r4, [pc, #952]	; 5e0 <.__ram_data_start>
     224:	e59f53b8 	ldr	r5, [pc, #952]	; 5e4 <.__ram_data_end>
     228:	e1540005 	cmp	r4, r5
     22c:	0a000005 	beq	248 <start+0xdc>
     230:	e2433004 	sub	r3, r3, #4
     234:	e2444004 	sub	r4, r4, #4
     238:	e5b30004 	ldr	r0, [r3, #4]!
     23c:	e5a40004 	str	r0, [r4, #4]!
     240:	e1540005 	cmp	r4, r5
     244:	1afffffb 	bne	238 <start+0xcc>
     248:	e59fd374 	ldr	sp, [pc, #884]	; 5c4 <.__startup_stack>
     24c:	e3a000d2 	mov	r0, #210	; 0xd2
     250:	e129f000 	msr	CPSR_fc, r0
     254:	e59fd36c 	ldr	sp, [pc, #876]	; 5c8 <.__exception_stack>
     258:	e3a000db 	mov	r0, #219	; 0xdb
     25c:	e129f000 	msr	CPSR_fc, r0
     260:	e59fd360 	ldr	sp, [pc, #864]	; 5c8 <.__exception_stack>
     264:	e3a000d3 	mov	r0, #211	; 0xd3
     268:	e129f000 	msr	CPSR_fc, r0
     26c:	e169f000 	msr	SPSR_fc, r0
     270:	e59fd34c 	ldr	sp, [pc, #844]	; 5c4 <.__startup_stack>
     274:	e59f1354 	ldr	r1, [pc, #852]	; 5d0 <.__bss_start>
     278:	e59f2354 	ldr	r2, [pc, #852]	; 5d4 <.__bss_end>
     27c:	e3a00000 	mov	r0, #0
     280:	e1510002 	cmp	r1, r2
     284:	0a000002 	beq	294 <start+0x128>
     288:	e4810004 	str	r0, [r1], #4
     28c:	e1520001 	cmp	r2, r1
     290:	8afffffc 	bhi	288 <start+0x11c>
     294:	e59f0398 	ldr	r0, [pc, #920]	; 634 <_eCos_id+0x38>
     298:	e3a01801 	mov	r1, #65536	; 0x10000
     29c:	e5801014 	str	r1, [r0, #20]
     2a0:	e3a01801 	mov	r1, #65536	; 0x10000
     2a4:	e580101c 	str	r1, [r0, #28]
     2a8:	e59f0384 	ldr	r0, [pc, #900]	; 634 <_eCos_id+0x38>
     2ac:	e3a01802 	mov	r1, #131072	; 0x20000
     2b0:	e5801014 	str	r1, [r0, #20]
     2b4:	e3a01802 	mov	r1, #131072	; 0x20000
     2b8:	e580101c 	str	r1, [r0, #28]
     2bc:	eb001499 	bl	5528 <hal_hardware_init>
     2c0:	eb001e64 	bl	7c58 <initialize_stub>
     2c4:	e3a00000 	mov	r0, #0
     2c8:	e59f1368 	ldr	r1, [pc, #872]	; 638 <_eCos_id+0x3c>
     2cc:	e5912004 	ldr	r2, [r1, #4]
     2d0:	e5802004 	str	r2, [r0, #4]
     2d4:	e5912024 	ldr	r2, [r1, #36]	; 0x24
     2d8:	e5802024 	str	r2, [r0, #36]	; 0x24
     2dc:	eb002b87 	bl	b100 <hal_ctrlc_isr_init>
     2e0:	e59f034c 	ldr	r0, [pc, #844]	; 634 <_eCos_id+0x38>
     2e4:	e3a01801 	mov	r1, #65536	; 0x10000
     2e8:	e5801014 	str	r1, [r0, #20]
     2ec:	e3a01000 	mov	r1, #0
     2f0:	e580101c 	str	r1, [r0, #28]
     2f4:	e59f0338 	ldr	r0, [pc, #824]	; 634 <_eCos_id+0x38>
     2f8:	e3a01802 	mov	r1, #131072	; 0x20000
     2fc:	e5801014 	str	r1, [r0, #20]
     300:	e3a01000 	mov	r1, #0
     304:	e580101c 	str	r1, [r0, #28]
     308:	eb0013f2 	bl	52d8 <cyg_hal_invoke_constructors>
     30c:	e59f0320 	ldr	r0, [pc, #800]	; 634 <_eCos_id+0x38>
     310:	e3a01801 	mov	r1, #65536	; 0x10000
     314:	e5801014 	str	r1, [r0, #20]
     318:	e3a01801 	mov	r1, #65536	; 0x10000
     31c:	e580101c 	str	r1, [r0, #28]
     320:	e59f030c 	ldr	r0, [pc, #780]	; 634 <_eCos_id+0x38>
     324:	e3a01802 	mov	r1, #131072	; 0x20000
     328:	e5801014 	str	r1, [r0, #20]
     32c:	e3a01802 	mov	r1, #131072	; 0x20000
     330:	e580101c 	str	r1, [r0, #28]
     334:	eb003493 	bl	d588 <cyg_start>

00000338 <_start_hang>:
     338:	eafffffe 	b	338 <_start_hang>

0000033c <reset_platform>:
     33c:	e3a000d3 	mov	r0, #211	; 0xd3
     340:	e129f000 	msr	CPSR_fc, r0
     344:	eaffff7a 	b	134 <warm_reset>

00000348 <init_done>:
     348:	deadb00b 	.word	0xdeadb00b

0000034c <undefined_instruction>:
     34c:	e59fd278 	ldr	sp, [pc, #632]	; 5cc <.__undef_exception_stack>
     350:	e92d003f 	push	{r0, r1, r2, r3, r4, r5}
     354:	e14f1000 	mrs	r1, SPSR
     358:	e3110020 	tst	r1, #32
     35c:	024e0004 	subeq	r0, lr, #4
     360:	124e0002 	subne	r0, lr, #2
     364:	e3a02001 	mov	r2, #1
     368:	e1a0300d 	mov	r3, sp
     36c:	ea000018 	b	3d4 <call_exception_handler>

00000370 <software_interrupt>:
     370:	e92d0100 	push	{r8}
     374:	e59f8250 	ldr	r8, [pc, #592]	; 5cc <.__undef_exception_stack>
     378:	e928003f 	stmdb	r8!, {r0, r1, r2, r3, r4, r5}
     37c:	e1a03008 	mov	r3, r8
     380:	e8bd0100 	pop	{r8}
     384:	e14f1000 	mrs	r1, SPSR
     388:	e3110020 	tst	r1, #32
     38c:	024e0004 	subeq	r0, lr, #4
     390:	124e0002 	subne	r0, lr, #2
     394:	e3a02002 	mov	r2, #2
     398:	ea00000d 	b	3d4 <call_exception_handler>

0000039c <abort_prefetch>:
     39c:	e59fd228 	ldr	sp, [pc, #552]	; 5cc <.__undef_exception_stack>
     3a0:	e92d003f 	push	{r0, r1, r2, r3, r4, r5}
     3a4:	e24e0004 	sub	r0, lr, #4
     3a8:	e14f1000 	mrs	r1, SPSR
     3ac:	e3a02003 	mov	r2, #3
     3b0:	e1a0300d 	mov	r3, sp
     3b4:	ea000006 	b	3d4 <call_exception_handler>

000003b8 <abort_data>:
     3b8:	e59fd20c 	ldr	sp, [pc, #524]	; 5cc <.__undef_exception_stack>
     3bc:	e92d003f 	push	{r0, r1, r2, r3, r4, r5}
     3c0:	e24e0004 	sub	r0, lr, #4
     3c4:	e14f1000 	mrs	r1, SPSR
     3c8:	e3a02004 	mov	r2, #4
     3cc:	e1a0300d 	mov	r3, sp
     3d0:	eaffffff 	b	3d4 <call_exception_handler>

000003d4 <call_exception_handler>:
     3d4:	e10f4000 	mrs	r4, CPSR
     3d8:	e3c4401f 	bic	r4, r4, #31
     3dc:	e3844013 	orr	r4, r4, #19
     3e0:	e129f004 	msr	CPSR_fc, r4
     3e4:	e1a0500d 	mov	r5, sp
     3e8:	e1a0400e 	mov	r4, lr
     3ec:	e59fd1cc 	ldr	sp, [pc, #460]	; 5c0 <.__GDB_stack>
     3f0:	e155000d 	cmp	r5, sp
     3f4:	8a000002 	bhi	404 <call_exception_handler+0x30>
     3f8:	e59f41bc 	ldr	r4, [pc, #444]	; 5bc <.__GDB_stack_base>
     3fc:	e1550004 	cmp	r5, r4
     400:	81a0d005 	movhi	sp, r5
     404:	e92d0037 	push	{r0, r1, r2, r4, r5}
     408:	e1a0000d 	mov	r0, sp
     40c:	e10f2000 	mrs	r2, CPSR
     410:	e38110c0 	orr	r1, r1, #192	; 0xc0
     414:	e3c11020 	bic	r1, r1, #32
     418:	e129f001 	msr	CPSR_fc, r1
     41c:	e9207f00 	stmdb	r0!, {r8, r9, sl, fp, ip, sp, lr}
     420:	e129f002 	msr	CPSR_fc, r2
     424:	e1a0d000 	mov	sp, r0
     428:	e893003f 	ldm	r3, {r0, r1, r2, r3, r4, r5}
     42c:	e92d00ff 	push	{r0, r1, r2, r3, r4, r5, r6, r7}
     430:	e59d1040 	ldr	r1, [sp, #64]	; 0x40
     434:	e201101f 	and	r1, r1, #31
     438:	e3510013 	cmp	r1, #19
     43c:	059d104c 	ldreq	r1, [sp, #76]	; 0x4c
     440:	058d1034 	streq	r1, [sp, #52]	; 0x34
     444:	e1a0000d 	mov	r0, sp
     448:	eb001367 	bl	51ec <exception_handler>

0000044c <return_from_exception>:
     44c:	e59d0040 	ldr	r0, [sp, #64]	; 0x40
     450:	e200101f 	and	r1, r0, #31
     454:	e3510013 	cmp	r1, #19
     458:	e169f000 	msr	SPSR_fc, r0
     45c:	08ddffff 	ldmeq	sp, {r0, r1, r2, r3, r4, r5, r6, r7, r8, r9, sl, fp, ip, sp, lr, pc}^
     460:	e28d2020 	add	r2, sp, #32
     464:	e10f1000 	mrs	r1, CPSR
     468:	e38000c0 	orr	r0, r0, #192	; 0xc0
     46c:	e3c00020 	bic	r0, r0, #32
     470:	e129f000 	msr	CPSR_fc, r0
     474:	e8927f00 	ldm	r2, {r8, r9, sl, fp, ip, sp, lr}
     478:	e129f001 	msr	CPSR_fc, r1
     47c:	e59d004c 	ldr	r0, [sp, #76]	; 0x4c
     480:	e58d0020 	str	r0, [sp, #32]
     484:	e59d0048 	ldr	r0, [sp, #72]	; 0x48
     488:	e58d0024 	str	r0, [sp, #36]	; 0x24
     48c:	e59d003c 	ldr	r0, [sp, #60]	; 0x3c
     490:	e58d0028 	str	r0, [sp, #40]	; 0x28
     494:	e8dde0ff 	ldm	sp, {r0, r1, r2, r3, r4, r5, r6, r7, sp, lr, pc}^

00000498 <FIQ>:
     498:	e14f8000 	mrs	r8, SPSR
     49c:	e208901f 	and	r9, r8, #31
     4a0:	e3590012 	cmp	r9, #18
     4a4:	1a000002 	bne	4b4 <FIQ+0x1c>
     4a8:	e3888040 	orr	r8, r8, #64	; 0x40
     4ac:	e169f008 	msr	SPSR_fc, r8
     4b0:	e25ef004 	subs	pc, lr, #4
     4b4:	e59fd10c 	ldr	sp, [pc, #268]	; 5c8 <.__exception_stack>
     4b8:	e90d4100 	stmdb	sp, {r8, lr}
     4bc:	e3a080d2 	mov	r8, #210	; 0xd2
     4c0:	e129f008 	msr	CPSR_fc, r8
     4c4:	e59fd0fc 	ldr	sp, [pc, #252]	; 5c8 <.__exception_stack>
     4c8:	e91d6000 	ldmdb	sp, {sp, lr}
     4cc:	e169f00d 	msr	SPSR_fc, sp

000004d0 <IRQ>:
     4d0:	e59fd0f0 	ldr	sp, [pc, #240]	; 5c8 <.__exception_stack>
     4d4:	e92d003f 	push	{r0, r1, r2, r3, r4, r5}
     4d8:	e24e0004 	sub	r0, lr, #4
     4dc:	e14f1000 	mrs	r1, SPSR
     4e0:	e3a02006 	mov	r2, #6
     4e4:	e1a0300d 	mov	r3, sp
     4e8:	e10f4000 	mrs	r4, CPSR
     4ec:	e3c4401f 	bic	r4, r4, #31
     4f0:	e3844053 	orr	r4, r4, #83	; 0x53
     4f4:	e129f004 	msr	CPSR_fc, r4
     4f8:	e1a0500d 	mov	r5, sp
     4fc:	e1a0400e 	mov	r4, lr
     500:	e92d0037 	push	{r0, r1, r2, r4, r5}
     504:	e1a0000d 	mov	r0, sp
     508:	e10f2000 	mrs	r2, CPSR
     50c:	e38110c0 	orr	r1, r1, #192	; 0xc0
     510:	e3c11020 	bic	r1, r1, #32
     514:	e129f001 	msr	CPSR_fc, r1
     518:	e9207f00 	stmdb	r0!, {r8, r9, sl, fp, ip, sp, lr}
     51c:	e129f002 	msr	CPSR_fc, r2
     520:	e1a0d000 	mov	sp, r0
     524:	e893003f 	ldm	r3, {r0, r1, r2, r3, r4, r5}
     528:	e92d00ff 	push	{r0, r1, r2, r3, r4, r5, r6, r7}
     52c:	e59d1040 	ldr	r1, [sp, #64]	; 0x40
     530:	e201101f 	and	r1, r1, #31
     534:	e3510013 	cmp	r1, #19
     538:	059d104c 	ldreq	r1, [sp, #76]	; 0x4c
     53c:	058d1034 	streq	r1, [sp, #52]	; 0x34
     540:	e1a0900d 	mov	r9, sp
     544:	e1a00009 	mov	r0, r9
     548:	eb001404 	bl	5560 <hal_IRQ_handler>
     54c:	e1a04000 	mov	r4, r0
     550:	e1a00004 	mov	r0, r4
     554:	e59f20e0 	ldr	r2, [pc, #224]	; 63c <_eCos_id+0x40>
     558:	e5829000 	str	r9, [r2]
     55c:	e3700001 	cmn	r0, #1
     560:	1a000002 	bne	570 <IRQ+0xa0>
     564:	e1a00009 	mov	r0, r9
     568:	eb001350 	bl	52b0 <hal_spurious_IRQ>
     56c:	ea000006 	b	58c <spurious_IRQ>
     570:	e59f1074 	ldr	r1, [pc, #116]	; 5ec <.hal_interrupt_data>
     574:	e7911104 	ldr	r1, [r1, r4, lsl #2]
     578:	e59f2068 	ldr	r2, [pc, #104]	; 5e8 <.hal_interrupt_handlers>
     57c:	e7926104 	ldr	r6, [r2, r4, lsl #2]
     580:	e1a02009 	mov	r2, r9
     584:	e1a0e00f 	mov	lr, pc
     588:	e1a0f006 	mov	pc, r6

0000058c <spurious_IRQ>:
     58c:	e3740001 	cmn	r4, #1
     590:	0a000003 	beq	5a4 <spurious_IRQ+0x18>
     594:	e59f1054 	ldr	r1, [pc, #84]	; 5f0 <.hal_interrupt_objects>
     598:	e7911104 	ldr	r1, [r1, r4, lsl #2]
     59c:	e1a02009 	mov	r2, r9
     5a0:	eb0014da 	bl	5910 <interrupt_end>
     5a4:	eaffffa8 	b	44c <return_from_exception>

000005a8 <__gccmain>:
     5a8:	e1a0f00e 	mov	pc, lr

000005ac <_psr>:
     5ac:	e10f0000 	mrs	r0, CPSR
     5b0:	e1a0f00e 	mov	pc, lr

000005b4 <_sp>:
     5b4:	e1a0000d 	mov	r0, sp
     5b8:	e1a0f00e 	mov	pc, lr

000005bc <.__GDB_stack_base>:
     5bc:	81000640 	.word	0x81000640

000005c0 <.__GDB_stack>:
     5c0:	81001640 	.word	0x81001640

000005c4 <.__startup_stack>:
     5c4:	81002640 	.word	0x81002640

000005c8 <.__exception_stack>:
     5c8:	810005c0 	.word	0x810005c0

000005cc <.__undef_exception_stack>:
     5cc:	81000640 	.word	0x81000640

000005d0 <.__bss_start>:
     5d0:	81000538 	.word	0x81000538

000005d4 <.__bss_end>:
     5d4:	81005750 	.word	0x81005750

000005d8 <._end>:
     5d8:	81005750 	.word	0x81005750

000005dc <.__rom_data_start>:
     5dc:	00016b18 	.word	0x00016b18

000005e0 <.__ram_data_start>:
     5e0:	81000000 	.word	0x81000000

000005e4 <.__ram_data_end>:
     5e4:	81000538 	.word	0x81000538

000005e8 <.hal_interrupt_handlers>:
     5e8:	81000004 	.word	0x81000004

000005ec <.hal_interrupt_data>:
     5ec:	81000084 	.word	0x81000084

000005f0 <.hal_interrupt_objects>:
     5f0:	81000104 	.word	0x81000104

000005f4 <.__exception_handlers>:
     5f4:	00000000 	.word	0x00000000

000005f8 <.init_flag>:
     5f8:	81000000 	.word	0x81000000

000005fc <_eCos_id>:
     5fc:	736f4365 	.word	0x736f4365
     600:	00203a20 	.word	0x00203a20
     604:	206c754a 	.word	0x206c754a
     608:	32203932 	.word	0x32203932
     60c:	00313130 	.word	0x00313130
     610:	e01fc000 	.word	0xe01fc000
     614:	ffe00000 	.word	0xffe00000
     618:	1000348f 	.word	0x1000348f
     61c:	ffe00004 	.word	0xffe00004
     620:	20000c80 	.word	0x20000c80
     624:	ffe00008 	.word	0xffe00008
     628:	10000c80 	.word	0x10000c80
     62c:	e002c000 	.word	0xe002c000
     630:	0f804924 	.word	0x0f804924
     634:	e0028000 	.word	0xe0028000
     638:	00000000 	.word	0x00000000
     63c:	810056cc 	.word	0x810056cc

00000640 <do_echo>:
     640:	e1a0c00d 	mov	ip, sp
     644:	e92dd800 	push	{fp, ip, lr, pc}
     648:	e24cb004 	sub	fp, ip, #4
     64c:	e24dd010 	sub	sp, sp, #16
     650:	e50b0018 	str	r0, [fp, #-24]	; 0xffffffe8
     654:	e50b101c 	str	r1, [fp, #-28]	; 0xffffffe4
     658:	e3a03001 	mov	r3, #1
     65c:	e50b3014 	str	r3, [fp, #-20]	; 0xffffffec
     660:	e51b3018 	ldr	r3, [fp, #-24]	; 0xffffffe8
     664:	e3530001 	cmp	r3, #1
     668:	da000028 	ble	710 <do_echo+0xd0>
     66c:	e3a03001 	mov	r3, #1
     670:	e50b3010 	str	r3, [fp, #-16]
     674:	e51b3010 	ldr	r3, [fp, #-16]
     678:	e1a02103 	lsl	r2, r3, #2
     67c:	e51b301c 	ldr	r3, [fp, #-28]	; 0xffffffe4
     680:	e0833002 	add	r3, r3, r2
     684:	e5933000 	ldr	r3, [r3]
     688:	e1a00003 	mov	r0, r3
     68c:	e59f109c 	ldr	r1, [pc, #156]	; 730 <do_echo+0xf0>
     690:	e3a02002 	mov	r2, #2
     694:	eb0044e3 	bl	11a28 <__strncmp>
     698:	e1a03000 	mov	r3, r0
     69c:	e3530000 	cmp	r3, #0
     6a0:	1a000016 	bne	700 <do_echo+0xc0>
     6a4:	e3a03000 	mov	r3, #0
     6a8:	e50b3014 	str	r3, [fp, #-20]	; 0xffffffec
     6ac:	e51b3010 	ldr	r3, [fp, #-16]
     6b0:	e2833001 	add	r3, r3, #1
     6b4:	e50b3010 	str	r3, [fp, #-16]
     6b8:	ea000010 	b	700 <do_echo+0xc0>
     6bc:	e51b3010 	ldr	r3, [fp, #-16]
     6c0:	e1a02103 	lsl	r2, r3, #2
     6c4:	e51b301c 	ldr	r3, [fp, #-28]	; 0xffffffe4
     6c8:	e0833002 	add	r3, r3, r2
     6cc:	e5933000 	ldr	r3, [r3]
     6d0:	e1a00003 	mov	r0, r3
     6d4:	eb002e25 	bl	bf70 <diag_write_string>
     6d8:	e51b2018 	ldr	r2, [fp, #-24]	; 0xffffffe8
     6dc:	e51b3010 	ldr	r3, [fp, #-16]
     6e0:	e0633002 	rsb	r3, r3, r2
     6e4:	e3530001 	cmp	r3, #1
     6e8:	da000001 	ble	6f4 <do_echo+0xb4>
     6ec:	e3a00020 	mov	r0, #32
     6f0:	eb002d4f 	bl	bc34 <diag_write_char>
     6f4:	e51b3010 	ldr	r3, [fp, #-16]
     6f8:	e2833001 	add	r3, r3, #1
     6fc:	e50b3010 	str	r3, [fp, #-16]
     700:	e51b2010 	ldr	r2, [fp, #-16]
     704:	e51b3018 	ldr	r3, [fp, #-24]	; 0xffffffe8
     708:	e1520003 	cmp	r2, r3
     70c:	baffffea 	blt	6bc <do_echo+0x7c>
     710:	e51b3014 	ldr	r3, [fp, #-20]	; 0xffffffec
     714:	e3530000 	cmp	r3, #0
     718:	0a000001 	beq	724 <do_echo+0xe4>
     71c:	e3a0000a 	mov	r0, #10
     720:	eb002d43 	bl	bc34 <diag_write_char>
     724:	e24bd00c 	sub	sp, fp, #12
     728:	e89d6800 	ldm	sp, {fp, sp, lr}
     72c:	e12fff1e 	bx	lr
     730:	00014c30 	.word	0x00014c30

00000734 <do_led>:
     734:	e1a0c00d 	mov	ip, sp
     738:	e92dd800 	push	{fp, ip, lr, pc}
     73c:	e24cb004 	sub	fp, ip, #4
     740:	e24dd038 	sub	sp, sp, #56	; 0x38
     744:	e50b0030 	str	r0, [fp, #-48]	; 0xffffffd0
     748:	e50b1034 	str	r1, [fp, #-52]	; 0xffffffcc
     74c:	e24b2024 	sub	r2, fp, #36	; 0x24
     750:	e24b3028 	sub	r3, fp, #40	; 0x28
     754:	e58d3000 	str	r3, [sp]
     758:	e24b302c 	sub	r3, fp, #44	; 0x2c
     75c:	e58d3004 	str	r3, [sp, #4]
     760:	e59f3088 	ldr	r3, [pc, #136]	; 7f0 <do_led+0xbc>
     764:	e58d3008 	str	r3, [sp, #8]
     768:	e1a00002 	mov	r0, r2
     76c:	e3a0106d 	mov	r1, #109	; 0x6d
     770:	e3a02001 	mov	r2, #1
     774:	e3a03000 	mov	r3, #0
     778:	eb00402a 	bl	10828 <init_opts>
     77c:	e24bc024 	sub	ip, fp, #36	; 0x24
     780:	e3a03001 	mov	r3, #1
     784:	e58d3000 	str	r3, [sp]
     788:	e3a03000 	mov	r3, #0
     78c:	e58d3004 	str	r3, [sp, #4]
     790:	e3a03000 	mov	r3, #0
     794:	e58d3008 	str	r3, [sp, #8]
     798:	e59f3054 	ldr	r3, [pc, #84]	; 7f4 <do_led+0xc0>
     79c:	e58d300c 	str	r3, [sp, #12]
     7a0:	e51b0030 	ldr	r0, [fp, #-48]	; 0xffffffd0
     7a4:	e51b1034 	ldr	r1, [fp, #-52]	; 0xffffffcc
     7a8:	e3a02001 	mov	r2, #1
     7ac:	e1a0300c 	mov	r3, ip
     7b0:	eb00403a 	bl	108a0 <scan_opts>
     7b4:	e1a03000 	mov	r3, r0
     7b8:	e3530000 	cmp	r3, #0
     7bc:	0a000008 	beq	7e4 <do_led+0xb0>
     7c0:	e51b302c 	ldr	r3, [fp, #-44]	; 0xffffffd4
     7c4:	e3530000 	cmp	r3, #0
     7c8:	1a000002 	bne	7d8 <do_led+0xa4>
     7cc:	e59f0024 	ldr	r0, [pc, #36]	; 7f8 <do_led+0xc4>
     7d0:	eb003169 	bl	cd7c <diag_printf>
     7d4:	ea000002 	b	7e4 <do_led+0xb0>
     7d8:	e51b3028 	ldr	r3, [fp, #-40]	; 0xffffffd8
     7dc:	e1a00003 	mov	r0, r3
     7e0:	eb0013cc 	bl	5718 <hal_lpc2xxx_set_leds>
     7e4:	e24bd00c 	sub	sp, fp, #12
     7e8:	e89d6800 	ldm	sp, {fp, sp, lr}
     7ec:	e12fff1e 	bx	lr
     7f0:	00014c34 	.word	0x00014c34
     7f4:	00014c3c 	.word	0x00014c3c
     7f8:	00014c40 	.word	0x00014c40

000007fc <redboot_getc>:
     7fc:	e1a0c00d 	mov	ip, sp
     800:	e92dd800 	push	{fp, ip, lr, pc}
     804:	e24cb004 	sub	fp, ip, #4
     808:	e24dd008 	sub	sp, sp, #8
     80c:	e59f31b0 	ldr	r3, [pc, #432]	; 9c4 <redboot_getc+0x1c8>
     810:	e593310c 	ldr	r3, [r3, #268]	; 0x10c
     814:	e3530000 	cmp	r3, #0
     818:	aa000002 	bge	828 <redboot_getc+0x2c>
     81c:	e3e03000 	mvn	r3, #0
     820:	e50b3010 	str	r3, [fp, #-16]
     824:	ea000061 	b	9b0 <redboot_getc+0x1b4>
     828:	e59f3194 	ldr	r3, [pc, #404]	; 9c4 <redboot_getc+0x1c8>
     82c:	e593310c 	ldr	r3, [r3, #268]	; 0x10c
     830:	e3530000 	cmp	r3, #0
     834:	1a000051 	bne	980 <redboot_getc+0x184>
     838:	e59f3184 	ldr	r3, [pc, #388]	; 9c4 <redboot_getc+0x1c8>
     83c:	e5933118 	ldr	r3, [r3, #280]	; 0x118
     840:	e3530000 	cmp	r3, #0
     844:	0a000010 	beq	88c <redboot_getc+0x90>
     848:	e59f3174 	ldr	r3, [pc, #372]	; 9c4 <redboot_getc+0x1c8>
     84c:	e5932120 	ldr	r2, [r3, #288]	; 0x120
     850:	e59f3170 	ldr	r3, [pc, #368]	; 9c8 <redboot_getc+0x1cc>
     854:	e7d33002 	ldrb	r3, [r3, r2]
     858:	e1a01003 	mov	r1, r3
     85c:	e2822001 	add	r2, r2, #1
     860:	e59f315c 	ldr	r3, [pc, #348]	; 9c4 <redboot_getc+0x1c8>
     864:	e5832120 	str	r2, [r3, #288]	; 0x120
     868:	e59f015c 	ldr	r0, [pc, #348]	; 9cc <redboot_getc+0x1d0>
     86c:	eb003fd3 	bl	107c0 <err_printf>
     870:	e59f314c 	ldr	r3, [pc, #332]	; 9c4 <redboot_getc+0x1c8>
     874:	e5933120 	ldr	r3, [r3, #288]	; 0x120
     878:	e3530006 	cmp	r3, #6
     87c:	9a000002 	bls	88c <redboot_getc+0x90>
     880:	e59f213c 	ldr	r2, [pc, #316]	; 9c4 <redboot_getc+0x1c8>
     884:	e3a03000 	mov	r3, #0
     888:	e5823120 	str	r3, [r2, #288]	; 0x120
     88c:	e59f3130 	ldr	r3, [pc, #304]	; 9c4 <redboot_getc+0x1c8>
     890:	e5933110 	ldr	r3, [r3, #272]	; 0x110
     894:	e35300ff 	cmp	r3, #255	; 0xff
     898:	ca000008 	bgt	8c0 <redboot_getc+0xc4>
     89c:	e59f3120 	ldr	r3, [pc, #288]	; 9c4 <redboot_getc+0x1c8>
     8a0:	e5933118 	ldr	r3, [r3, #280]	; 0x118
     8a4:	e3530000 	cmp	r3, #0
     8a8:	0a000001 	beq	8b4 <redboot_getc+0xb8>
     8ac:	e59f011c 	ldr	r0, [pc, #284]	; 9d0 <redboot_getc+0x1d4>
     8b0:	eb003131 	bl	cd7c <diag_printf>
     8b4:	e3e03000 	mvn	r3, #0
     8b8:	e50b3010 	str	r3, [fp, #-16]
     8bc:	ea00003b 	b	9b0 <redboot_getc+0x1b4>
     8c0:	e59f20fc 	ldr	r2, [pc, #252]	; 9c4 <redboot_getc+0x1c8>
     8c4:	e59f3108 	ldr	r3, [pc, #264]	; 9d4 <redboot_getc+0x1d8>
     8c8:	e5823108 	str	r3, [r2, #264]	; 0x108
     8cc:	e59f30f0 	ldr	r3, [pc, #240]	; 9c4 <redboot_getc+0x1c8>
     8d0:	e593c004 	ldr	ip, [r3, #4]
     8d4:	e59f30e8 	ldr	r3, [pc, #232]	; 9c4 <redboot_getc+0x1c8>
     8d8:	e5933108 	ldr	r3, [r3, #264]	; 0x108
     8dc:	e1a00003 	mov	r0, r3
     8e0:	e3a01c01 	mov	r1, #256	; 0x100
     8e4:	e59f20ec 	ldr	r2, [pc, #236]	; 9d8 <redboot_getc+0x1dc>
     8e8:	e1a0e00f 	mov	lr, pc
     8ec:	e12fff1c 	bx	ip
     8f0:	e1a02000 	mov	r2, r0
     8f4:	e59f30c8 	ldr	r3, [pc, #200]	; 9c4 <redboot_getc+0x1c8>
     8f8:	e5832110 	str	r2, [r3, #272]	; 0x110
     8fc:	e59f30c0 	ldr	r3, [pc, #192]	; 9c4 <redboot_getc+0x1c8>
     900:	e5932110 	ldr	r2, [r3, #272]	; 0x110
     904:	e59f30b8 	ldr	r3, [pc, #184]	; 9c4 <redboot_getc+0x1c8>
     908:	e583210c 	str	r2, [r3, #268]	; 0x10c
     90c:	e59f30b0 	ldr	r3, [pc, #176]	; 9c4 <redboot_getc+0x1c8>
     910:	e593310c 	ldr	r3, [r3, #268]	; 0x10c
     914:	e3530000 	cmp	r3, #0
     918:	ca000018 	bgt	980 <redboot_getc+0x184>
     91c:	e59f30a0 	ldr	r3, [pc, #160]	; 9c4 <redboot_getc+0x1c8>
     920:	e5933110 	ldr	r3, [r3, #272]	; 0x110
     924:	e3530000 	cmp	r3, #0
     928:	aa00000b 	bge	95c <redboot_getc+0x160>
     92c:	e59f3090 	ldr	r3, [pc, #144]	; 9c4 <redboot_getc+0x1c8>
     930:	e5933000 	ldr	r3, [r3]
     934:	e5932010 	ldr	r2, [r3, #16]
     938:	e59f3084 	ldr	r3, [pc, #132]	; 9c4 <redboot_getc+0x1c8>
     93c:	e5933114 	ldr	r3, [r3, #276]	; 0x114
     940:	e1a00003 	mov	r0, r3
     944:	e1a0e00f 	mov	lr, pc
     948:	e12fff12 	bx	r2
     94c:	e1a03000 	mov	r3, r0
     950:	e59f0084 	ldr	r0, [pc, #132]	; 9dc <redboot_getc+0x1e0>
     954:	e1a01003 	mov	r1, r3
     958:	eb003107 	bl	cd7c <diag_printf>
     95c:	e59f3060 	ldr	r3, [pc, #96]	; 9c4 <redboot_getc+0x1c8>
     960:	e5933118 	ldr	r3, [r3, #280]	; 0x118
     964:	e3530000 	cmp	r3, #0
     968:	0a000001 	beq	974 <redboot_getc+0x178>
     96c:	e59f005c 	ldr	r0, [pc, #92]	; 9d0 <redboot_getc+0x1d4>
     970:	eb003101 	bl	cd7c <diag_printf>
     974:	e3e03000 	mvn	r3, #0
     978:	e50b3010 	str	r3, [fp, #-16]
     97c:	ea00000b 	b	9b0 <redboot_getc+0x1b4>
     980:	e59f303c 	ldr	r3, [pc, #60]	; 9c4 <redboot_getc+0x1c8>
     984:	e593310c 	ldr	r3, [r3, #268]	; 0x10c
     988:	e2432001 	sub	r2, r3, #1
     98c:	e59f3030 	ldr	r3, [pc, #48]	; 9c4 <redboot_getc+0x1c8>
     990:	e583210c 	str	r2, [r3, #268]	; 0x10c
     994:	e59f3028 	ldr	r3, [pc, #40]	; 9c4 <redboot_getc+0x1c8>
     998:	e5932108 	ldr	r2, [r3, #264]	; 0x108
     99c:	e5d23000 	ldrb	r3, [r2]
     9a0:	e50b3010 	str	r3, [fp, #-16]
     9a4:	e2822001 	add	r2, r2, #1
     9a8:	e59f3014 	ldr	r3, [pc, #20]	; 9c4 <redboot_getc+0x1c8>
     9ac:	e5832108 	str	r2, [r3, #264]	; 0x108
     9b0:	e51b3010 	ldr	r3, [fp, #-16]
     9b4:	e1a00003 	mov	r0, r3
     9b8:	e24bd00c 	sub	sp, fp, #12
     9bc:	e89d6800 	ldm	sp, {fp, sp, lr}
     9c0:	e12fff1e 	bx	lr
     9c4:	8100443c 	.word	0x8100443c
     9c8:	8100027c 	.word	0x8100027c
     9cc:	00014c68 	.word	0x00014c68
     9d0:	00014c6c 	.word	0x00014c6c
     9d4:	81004444 	.word	0x81004444
     9d8:	81004550 	.word	0x81004550
     9dc:	00014c70 	.word	0x00014c70

000009e0 <redboot_getc_init>:
     9e0:	e1a0c00d 	mov	ip, sp
     9e4:	e92dd810 	push	{r4, fp, ip, lr, pc}
     9e8:	e24cb004 	sub	fp, ip, #4
     9ec:	e24dd024 	sub	sp, sp, #36	; 0x24
     9f0:	e50b0020 	str	r0, [fp, #-32]	; 0xffffffe0
     9f4:	e50b1024 	str	r1, [fp, #-36]	; 0xffffffdc
     9f8:	e50b2028 	str	r2, [fp, #-40]	; 0xffffffd8
     9fc:	e50b302c 	str	r3, [fp, #-44]	; 0xffffffd4
     a00:	e51b3024 	ldr	r3, [fp, #-36]	; 0xffffffdc
     a04:	e5933000 	ldr	r3, [r3]
     a08:	e51b0020 	ldr	r0, [fp, #-32]	; 0xffffffe0
     a0c:	e59f10d0 	ldr	r1, [pc, #208]	; ae4 <redboot_getc_init+0x104>
     a10:	e1a0e00f 	mov	lr, pc
     a14:	e12fff13 	bx	r3
     a18:	e1a03000 	mov	r3, r0
     a1c:	e50b3018 	str	r3, [fp, #-24]	; 0xffffffe8
     a20:	e51b3018 	ldr	r3, [fp, #-24]	; 0xffffffe8
     a24:	e3530000 	cmp	r3, #0
     a28:	aa000010 	bge	a70 <redboot_getc_init+0x90>
     a2c:	e51b3020 	ldr	r3, [fp, #-32]	; 0xffffffe0
     a30:	e5934000 	ldr	r4, [r3]
     a34:	e51b3024 	ldr	r3, [fp, #-36]	; 0xffffffdc
     a38:	e5932010 	ldr	r2, [r3, #16]
     a3c:	e59f30a4 	ldr	r3, [pc, #164]	; ae8 <redboot_getc_init+0x108>
     a40:	e5933114 	ldr	r3, [r3, #276]	; 0x114
     a44:	e1a00003 	mov	r0, r3
     a48:	e1a0e00f 	mov	lr, pc
     a4c:	e12fff12 	bx	r2
     a50:	e1a03000 	mov	r3, r0
     a54:	e59f0090 	ldr	r0, [pc, #144]	; aec <redboot_getc_init+0x10c>
     a58:	e1a01004 	mov	r1, r4
     a5c:	e1a02003 	mov	r2, r3
     a60:	eb003f56 	bl	107c0 <err_printf>
     a64:	e51b3018 	ldr	r3, [fp, #-24]	; 0xffffffe8
     a68:	e50b3030 	str	r3, [fp, #-48]	; 0xffffffd0
     a6c:	ea000017 	b	ad0 <redboot_getc_init+0xf0>
     a70:	e59f2070 	ldr	r2, [pc, #112]	; ae8 <redboot_getc_init+0x108>
     a74:	e51b3024 	ldr	r3, [fp, #-36]	; 0xffffffdc
     a78:	e5823000 	str	r3, [r2]
     a7c:	e51b3024 	ldr	r3, [fp, #-36]	; 0xffffffdc
     a80:	e593200c 	ldr	r2, [r3, #12]
     a84:	e59f305c 	ldr	r3, [pc, #92]	; ae8 <redboot_getc_init+0x108>
     a88:	e5832004 	str	r2, [r3, #4]
     a8c:	e59f2054 	ldr	r2, [pc, #84]	; ae8 <redboot_getc_init+0x108>
     a90:	e3a03000 	mov	r3, #0
     a94:	e582310c 	str	r3, [r2, #268]	; 0x10c
     a98:	e59f2048 	ldr	r2, [pc, #72]	; ae8 <redboot_getc_init+0x108>
     a9c:	e3a03c01 	mov	r3, #256	; 0x100
     aa0:	e5823110 	str	r3, [r2, #272]	; 0x110
     aa4:	e59f203c 	ldr	r2, [pc, #60]	; ae8 <redboot_getc_init+0x108>
     aa8:	e51b3028 	ldr	r3, [fp, #-40]	; 0xffffffd8
     aac:	e5823118 	str	r3, [r2, #280]	; 0x118
     ab0:	e59f2030 	ldr	r2, [pc, #48]	; ae8 <redboot_getc_init+0x108>
     ab4:	e51b302c 	ldr	r3, [fp, #-44]	; 0xffffffd4
     ab8:	e582311c 	str	r3, [r2, #284]	; 0x11c
     abc:	e59f2024 	ldr	r2, [pc, #36]	; ae8 <redboot_getc_init+0x108>
     ac0:	e3a03000 	mov	r3, #0
     ac4:	e5823120 	str	r3, [r2, #288]	; 0x120
     ac8:	e3a03000 	mov	r3, #0
     acc:	e50b3030 	str	r3, [fp, #-48]	; 0xffffffd0
     ad0:	e51b3030 	ldr	r3, [fp, #-48]	; 0xffffffd0
     ad4:	e1a00003 	mov	r0, r3
     ad8:	e24bd010 	sub	sp, fp, #16
     adc:	e89d6810 	ldm	sp, {r4, fp, sp, lr}
     ae0:	e12fff1e 	bx	lr
     ae4:	81004550 	.word	0x81004550
     ae8:	8100443c 	.word	0x8100443c
     aec:	00014c80 	.word	0x00014c80

00000af0 <redboot_getc_rewind>:
     af0:	e1a0c00d 	mov	ip, sp
     af4:	e92dd800 	push	{fp, ip, lr, pc}
     af8:	e24cb004 	sub	fp, ip, #4
     afc:	e59f2020 	ldr	r2, [pc, #32]	; b24 <redboot_getc_rewind+0x34>
     b00:	e59f3020 	ldr	r3, [pc, #32]	; b28 <redboot_getc_rewind+0x38>
     b04:	e5823108 	str	r3, [r2, #264]	; 0x108
     b08:	e59f3014 	ldr	r3, [pc, #20]	; b24 <redboot_getc_rewind+0x34>
     b0c:	e5932110 	ldr	r2, [r3, #272]	; 0x110
     b10:	e59f300c 	ldr	r3, [pc, #12]	; b24 <redboot_getc_rewind+0x34>
     b14:	e583210c 	str	r2, [r3, #268]	; 0x10c
     b18:	e24bd00c 	sub	sp, fp, #12
     b1c:	e89d6800 	ldm	sp, {fp, sp, lr}
     b20:	e12fff1e 	bx	lr
     b24:	8100443c 	.word	0x8100443c
     b28:	81004444 	.word	0x81004444

00000b2c <redboot_getc_terminate>:
     b2c:	e1a0c00d 	mov	ip, sp
     b30:	e92dd800 	push	{fp, ip, lr, pc}
     b34:	e24cb004 	sub	fp, ip, #4
     b38:	e24dd008 	sub	sp, sp, #8
     b3c:	e50b0010 	str	r0, [fp, #-16]
     b40:	e59f3034 	ldr	r3, [pc, #52]	; b7c <redboot_getc_terminate+0x50>
     b44:	e5933000 	ldr	r3, [r3]
     b48:	e5933008 	ldr	r3, [r3, #8]
     b4c:	e3530000 	cmp	r3, #0
     b50:	0a000006 	beq	b70 <redboot_getc_terminate+0x44>
     b54:	e59f3020 	ldr	r3, [pc, #32]	; b7c <redboot_getc_terminate+0x50>
     b58:	e5933000 	ldr	r3, [r3]
     b5c:	e5933008 	ldr	r3, [r3, #8]
     b60:	e51b0010 	ldr	r0, [fp, #-16]
     b64:	e59f1014 	ldr	r1, [pc, #20]	; b80 <redboot_getc_terminate+0x54>
     b68:	e1a0e00f 	mov	lr, pc
     b6c:	e12fff13 	bx	r3
     b70:	e24bd00c 	sub	sp, fp, #12
     b74:	e89d6800 	ldm	sp, {fp, sp, lr}
     b78:	e12fff1e 	bx	lr
     b7c:	8100443c 	.word	0x8100443c
     b80:	000007fc 	.word	0x000007fc

00000b84 <redboot_getc_close>:
     b84:	e1a0c00d 	mov	ip, sp
     b88:	e92dd800 	push	{fp, ip, lr, pc}
     b8c:	e24cb004 	sub	fp, ip, #4
     b90:	e59f301c 	ldr	r3, [pc, #28]	; bb4 <redboot_getc_close+0x30>
     b94:	e5933000 	ldr	r3, [r3]
     b98:	e5933004 	ldr	r3, [r3, #4]
     b9c:	e59f0014 	ldr	r0, [pc, #20]	; bb8 <redboot_getc_close+0x34>
     ba0:	e1a0e00f 	mov	lr, pc
     ba4:	e12fff13 	bx	r3
     ba8:	e24bd00c 	sub	sp, fp, #12
     bac:	e89d6800 	ldm	sp, {fp, sp, lr}
     bb0:	e12fff1e 	bx	lr
     bb4:	8100443c 	.word	0x8100443c
     bb8:	81004550 	.word	0x81004550

00000bbc <_read>:
     bbc:	e1a0c00d 	mov	ip, sp
     bc0:	e92dd800 	push	{fp, ip, lr, pc}
     bc4:	e24cb004 	sub	fp, ip, #4
     bc8:	e24dd018 	sub	sp, sp, #24
     bcc:	e50b0018 	str	r0, [fp, #-24]	; 0xffffffe8
     bd0:	e50b101c 	str	r1, [fp, #-28]	; 0xffffffe4
     bd4:	e50b2020 	str	r2, [fp, #-32]	; 0xffffffe0
     bd8:	e3a03000 	mov	r3, #0
     bdc:	e50b3014 	str	r3, [fp, #-20]	; 0xffffffec
     be0:	ea000011 	b	c2c <_read+0x70>
     be4:	e51b3018 	ldr	r3, [fp, #-24]	; 0xffffffe8
     be8:	e1a0e00f 	mov	lr, pc
     bec:	e12fff13 	bx	r3
     bf0:	e1a03000 	mov	r3, r0
     bf4:	e50b3010 	str	r3, [fp, #-16]
     bf8:	e51b3010 	ldr	r3, [fp, #-16]
     bfc:	e3530000 	cmp	r3, #0
     c00:	ba000013 	blt	c54 <_read+0x98>
     c04:	e51b3010 	ldr	r3, [fp, #-16]
     c08:	e20330ff 	and	r3, r3, #255	; 0xff
     c0c:	e51b201c 	ldr	r2, [fp, #-28]	; 0xffffffe4
     c10:	e5c23000 	strb	r3, [r2]
     c14:	e51b301c 	ldr	r3, [fp, #-28]	; 0xffffffe4
     c18:	e2833001 	add	r3, r3, #1
     c1c:	e50b301c 	str	r3, [fp, #-28]	; 0xffffffe4
     c20:	e51b3014 	ldr	r3, [fp, #-20]	; 0xffffffec
     c24:	e2833001 	add	r3, r3, #1
     c28:	e50b3014 	str	r3, [fp, #-20]	; 0xffffffec
     c2c:	e51b3020 	ldr	r3, [fp, #-32]	; 0xffffffe0
     c30:	e3530000 	cmp	r3, #0
     c34:	d3a03000 	movle	r3, #0
     c38:	c3a03001 	movgt	r3, #1
     c3c:	e20320ff 	and	r2, r3, #255	; 0xff
     c40:	e51b3020 	ldr	r3, [fp, #-32]	; 0xffffffe0
     c44:	e2433001 	sub	r3, r3, #1
     c48:	e50b3020 	str	r3, [fp, #-32]	; 0xffffffe0
     c4c:	e3520000 	cmp	r2, #0
     c50:	1affffe3 	bne	be4 <_read+0x28>
     c54:	e51b3014 	ldr	r3, [fp, #-20]	; 0xffffffec
     c58:	e1a00003 	mov	r0, r3
     c5c:	e24bd00c 	sub	sp, fp, #12
     c60:	e89d6800 	ldm	sp, {fp, sp, lr}
     c64:	e12fff1e 	bx	lr

00000c68 <load_elf_image>:
     c68:	e1a0c00d 	mov	ip, sp
     c6c:	e92dd800 	push	{fp, ip, lr, pc}
     c70:	e24cb004 	sub	fp, ip, #4
     c74:	e24ddf62 	sub	sp, sp, #392	; 0x188
     c78:	e50b0188 	str	r0, [fp, #-392]	; 0xfffffe78
     c7c:	e50b118c 	str	r1, [fp, #-396]	; 0xfffffe74
     c80:	e3a03000 	mov	r3, #0
     c84:	e50b302c 	str	r3, [fp, #-44]	; 0xffffffd4
     c88:	e3a03000 	mov	r3, #0
     c8c:	e50b3018 	str	r3, [fp, #-24]	; 0xffffffe8
     c90:	e3a03000 	mov	r3, #0
     c94:	e50b3014 	str	r3, [fp, #-20]	; 0xffffffec
     c98:	e3e03000 	mvn	r3, #0
     c9c:	e50b3010 	str	r3, [fp, #-16]
     ca0:	e59f2664 	ldr	r2, [pc, #1636]	; 130c <load_elf_image+0x6a4>
     ca4:	e24b3f5f 	sub	r3, fp, #380	; 0x17c
     ca8:	e2433001 	sub	r3, r3, #1
     cac:	e3a0c01d 	mov	ip, #29
     cb0:	e1a00003 	mov	r0, r3
     cb4:	e1a01002 	mov	r1, r2
     cb8:	e1a0200c 	mov	r2, ip
     cbc:	eb00312a 	bl	d16c <_memcpy>
     cc0:	e24b3060 	sub	r3, fp, #96	; 0x60
     cc4:	e51b0188 	ldr	r0, [fp, #-392]	; 0xfffffe78
     cc8:	e1a01003 	mov	r1, r3
     ccc:	e3a02034 	mov	r2, #52	; 0x34
     cd0:	ebffffb9 	bl	bbc <_read>
     cd4:	e1a03000 	mov	r3, r0
     cd8:	e3530034 	cmp	r3, #52	; 0x34
     cdc:	0a000006 	beq	cfc <load_elf_image+0x94>
     ce0:	e59f0628 	ldr	r0, [pc, #1576]	; 1310 <load_elf_image+0x6a8>
     ce4:	eb003eb5 	bl	107c0 <err_printf>
     ce8:	e3a00001 	mov	r0, #1
     cec:	ebffff8e 	bl	b2c <redboot_getc_terminate>
     cf0:	e3a01000 	mov	r1, #0
     cf4:	e50b1190 	str	r1, [fp, #-400]	; 0xfffffe70
     cf8:	ea00017e 	b	12f8 <load_elf_image+0x690>
     cfc:	e51b302c 	ldr	r3, [fp, #-44]	; 0xffffffd4
     d00:	e2833034 	add	r3, r3, #52	; 0x34
     d04:	e50b302c 	str	r3, [fp, #-44]	; 0xffffffd4
     d08:	e15b35b0 	ldrh	r3, [fp, #-80]	; 0xffffffb0
     d0c:	e3530002 	cmp	r3, #2
     d10:	0a000006 	beq	d30 <load_elf_image+0xc8>
     d14:	e59f05f8 	ldr	r0, [pc, #1528]	; 1314 <load_elf_image+0x6ac>
     d18:	eb003ea8 	bl	107c0 <err_printf>
     d1c:	e3a00001 	mov	r0, #1
     d20:	ebffff81 	bl	b2c <redboot_getc_terminate>
     d24:	e3a03000 	mov	r3, #0
     d28:	e50b3190 	str	r3, [fp, #-400]	; 0xfffffe70
     d2c:	ea000171 	b	12f8 <load_elf_image+0x690>
     d30:	e15b33b4 	ldrh	r3, [fp, #-52]	; 0xffffffcc
     d34:	e3530008 	cmp	r3, #8
     d38:	9a000018 	bls	da0 <load_elf_image+0x138>
     d3c:	e59f05d4 	ldr	r0, [pc, #1492]	; 1318 <load_elf_image+0x6b0>
     d40:	eb003e9e 	bl	107c0 <err_printf>
     d44:	e3a00001 	mov	r0, #1
     d48:	ebffff77 	bl	b2c <redboot_getc_terminate>
     d4c:	e3a01000 	mov	r1, #0
     d50:	e50b1190 	str	r1, [fp, #-400]	; 0xfffffe70
     d54:	ea000167 	b	12f8 <load_elf_image+0x690>
     d58:	e51b3188 	ldr	r3, [fp, #-392]	; 0xfffffe78
     d5c:	e1a0e00f 	mov	lr, pc
     d60:	e12fff13 	bx	r3
     d64:	e1a03000 	mov	r3, r0
     d68:	e3530000 	cmp	r3, #0
     d6c:	aa000008 	bge	d94 <load_elf_image+0x12c>
     d70:	e24b3f5f 	sub	r3, fp, #380	; 0x17c
     d74:	e2433001 	sub	r3, r3, #1
     d78:	e1a00003 	mov	r0, r3
     d7c:	eb003e8f 	bl	107c0 <err_printf>
     d80:	e3a00001 	mov	r0, #1
     d84:	ebffff68 	bl	b2c <redboot_getc_terminate>
     d88:	e3a03000 	mov	r3, #0
     d8c:	e50b3190 	str	r3, [fp, #-400]	; 0xfffffe70
     d90:	ea000158 	b	12f8 <load_elf_image+0x690>
     d94:	e51b302c 	ldr	r3, [fp, #-44]	; 0xffffffd4
     d98:	e2833001 	add	r3, r3, #1
     d9c:	e50b302c 	str	r3, [fp, #-44]	; 0xffffffd4
     da0:	e51b2044 	ldr	r2, [fp, #-68]	; 0xffffffbc
     da4:	e51b302c 	ldr	r3, [fp, #-44]	; 0xffffffd4
     da8:	e1520003 	cmp	r2, r3
     dac:	8affffe9 	bhi	d58 <load_elf_image+0xf0>
     db0:	e3a03000 	mov	r3, #0
     db4:	e50b3028 	str	r3, [fp, #-40]	; 0xffffffd8
     db8:	ea000017 	b	e1c <load_elf_image+0x1b4>
     dbc:	e24b2e16 	sub	r2, fp, #352	; 0x160
     dc0:	e51b3028 	ldr	r3, [fp, #-40]	; 0xffffffd8
     dc4:	e1a03283 	lsl	r3, r3, #5
     dc8:	e0823003 	add	r3, r2, r3
     dcc:	e51b0188 	ldr	r0, [fp, #-392]	; 0xfffffe78
     dd0:	e1a01003 	mov	r1, r3
     dd4:	e3a02020 	mov	r2, #32
     dd8:	ebffff77 	bl	bbc <_read>
     ddc:	e1a03000 	mov	r3, r0
     de0:	e3530020 	cmp	r3, #32
     de4:	0a000006 	beq	e04 <load_elf_image+0x19c>
     de8:	e59f052c 	ldr	r0, [pc, #1324]	; 131c <load_elf_image+0x6b4>
     dec:	eb003e73 	bl	107c0 <err_printf>
     df0:	e3a00001 	mov	r0, #1
     df4:	ebffff4c 	bl	b2c <redboot_getc_terminate>
     df8:	e3a01000 	mov	r1, #0
     dfc:	e50b1190 	str	r1, [fp, #-400]	; 0xfffffe70
     e00:	ea00013c 	b	12f8 <load_elf_image+0x690>
     e04:	e51b302c 	ldr	r3, [fp, #-44]	; 0xffffffd4
     e08:	e2833020 	add	r3, r3, #32
     e0c:	e50b302c 	str	r3, [fp, #-44]	; 0xffffffd4
     e10:	e51b3028 	ldr	r3, [fp, #-40]	; 0xffffffd8
     e14:	e2833001 	add	r3, r3, #1
     e18:	e50b3028 	str	r3, [fp, #-40]	; 0xffffffd8
     e1c:	e15b33b4 	ldrh	r3, [fp, #-52]	; 0xffffffcc
     e20:	e1a02003 	mov	r2, r3
     e24:	e51b3028 	ldr	r3, [fp, #-40]	; 0xffffffd8
     e28:	e1520003 	cmp	r2, r3
     e2c:	caffffe2 	bgt	dbc <load_elf_image+0x154>
     e30:	e51b318c 	ldr	r3, [fp, #-396]	; 0xfffffe74
     e34:	e3530000 	cmp	r3, #0
     e38:	0a000033 	beq	f0c <load_elf_image+0x2a4>
     e3c:	e3e03000 	mvn	r3, #0
     e40:	e50b3018 	str	r3, [fp, #-24]	; 0xffffffe8
     e44:	e3a03000 	mov	r3, #0
     e48:	e50b3028 	str	r3, [fp, #-40]	; 0xffffffd8
     e4c:	ea000024 	b	ee4 <load_elf_image+0x27c>
     e50:	e51b2028 	ldr	r2, [fp, #-40]	; 0xffffffd8
     e54:	e3a034ab 	mov	r3, #-1426063360	; 0xab000000
     e58:	e1a03b43 	asr	r3, r3, #22
     e5c:	e1a02282 	lsl	r2, r2, #5
     e60:	e24b100c 	sub	r1, fp, #12
     e64:	e0812002 	add	r2, r1, r2
     e68:	e0823003 	add	r3, r2, r3
     e6c:	e5933000 	ldr	r3, [r3]
     e70:	e3530001 	cmp	r3, #1
     e74:	1a000017 	bne	ed8 <load_elf_image+0x270>
     e78:	e51b3028 	ldr	r3, [fp, #-40]	; 0xffffffd8
     e7c:	e1a03103 	lsl	r3, r3, #2
     e80:	e2832001 	add	r2, r3, #1
     e84:	e3a0332b 	mov	r3, #-1409286144	; 0xac000000
     e88:	e1a03b43 	asr	r3, r3, #22
     e8c:	e1a02182 	lsl	r2, r2, #3
     e90:	e24b100c 	sub	r1, fp, #12
     e94:	e0812002 	add	r2, r1, r2
     e98:	e0823003 	add	r3, r2, r3
     e9c:	e5932000 	ldr	r2, [r3]
     ea0:	e51b3018 	ldr	r3, [fp, #-24]	; 0xffffffe8
     ea4:	e1520003 	cmp	r2, r3
     ea8:	2a00000a 	bcs	ed8 <load_elf_image+0x270>
     eac:	e51b3028 	ldr	r3, [fp, #-40]	; 0xffffffd8
     eb0:	e1a03103 	lsl	r3, r3, #2
     eb4:	e2832001 	add	r2, r3, #1
     eb8:	e3a0332b 	mov	r3, #-1409286144	; 0xac000000
     ebc:	e1a03b43 	asr	r3, r3, #22
     ec0:	e1a02182 	lsl	r2, r2, #3
     ec4:	e24b100c 	sub	r1, fp, #12
     ec8:	e0812002 	add	r2, r1, r2
     ecc:	e0823003 	add	r3, r2, r3
     ed0:	e5933000 	ldr	r3, [r3]
     ed4:	e50b3018 	str	r3, [fp, #-24]	; 0xffffffe8
     ed8:	e51b3028 	ldr	r3, [fp, #-40]	; 0xffffffd8
     edc:	e2833001 	add	r3, r3, #1
     ee0:	e50b3028 	str	r3, [fp, #-40]	; 0xffffffd8
     ee4:	e15b33b4 	ldrh	r3, [fp, #-52]	; 0xffffffcc
     ee8:	e1a02003 	mov	r2, r3
     eec:	e51b3028 	ldr	r3, [fp, #-40]	; 0xffffffd8
     ef0:	e1520003 	cmp	r2, r3
     ef4:	caffffd5 	bgt	e50 <load_elf_image+0x1e8>
     ef8:	e51b318c 	ldr	r3, [fp, #-396]	; 0xfffffe74
     efc:	e51b2018 	ldr	r2, [fp, #-24]	; 0xffffffe8
     f00:	e0623003 	rsb	r3, r2, r3
     f04:	e50b3018 	str	r3, [fp, #-24]	; 0xffffffe8
     f08:	ea000001 	b	f14 <load_elf_image+0x2ac>
     f0c:	e3a03000 	mov	r3, #0
     f10:	e50b3018 	str	r3, [fp, #-24]	; 0xffffffe8
     f14:	e3a03000 	mov	r3, #0
     f18:	e50b3028 	str	r3, [fp, #-40]	; 0xffffffd8
     f1c:	ea0000bb 	b	1210 <load_elf_image+0x5a8>
     f20:	e51b2028 	ldr	r2, [fp, #-40]	; 0xffffffd8
     f24:	e3a034ab 	mov	r3, #-1426063360	; 0xab000000
     f28:	e1a03b43 	asr	r3, r3, #22
     f2c:	e1a02282 	lsl	r2, r2, #5
     f30:	e24b100c 	sub	r1, fp, #12
     f34:	e0812002 	add	r2, r1, r2
     f38:	e0823003 	add	r3, r2, r3
     f3c:	e5933000 	ldr	r3, [r3]
     f40:	e3530001 	cmp	r3, #1
     f44:	1a0000ae 	bne	1204 <load_elf_image+0x59c>
     f48:	e51b3028 	ldr	r3, [fp, #-40]	; 0xffffffd8
     f4c:	e1a03103 	lsl	r3, r3, #2
     f50:	e2832001 	add	r2, r3, #1
     f54:	e3a0332b 	mov	r3, #-1409286144	; 0xac000000
     f58:	e1a03b43 	asr	r3, r3, #22
     f5c:	e1a02182 	lsl	r2, r2, #3
     f60:	e24b100c 	sub	r1, fp, #12
     f64:	e0812002 	add	r2, r1, r2
     f68:	e0823003 	add	r3, r2, r3
     f6c:	e5933000 	ldr	r3, [r3]
     f70:	e50b301c 	str	r3, [fp, #-28]	; 0xffffffe4
     f74:	e51b3028 	ldr	r3, [fp, #-40]	; 0xffffffd8
     f78:	e1a03083 	lsl	r3, r3, #1
     f7c:	e2832001 	add	r2, r3, #1
     f80:	e3a034ab 	mov	r3, #-1426063360	; 0xab000000
     f84:	e1a03b43 	asr	r3, r3, #22
     f88:	e1a02202 	lsl	r2, r2, #4
     f8c:	e24b100c 	sub	r1, fp, #12
     f90:	e0812002 	add	r2, r1, r2
     f94:	e0823003 	add	r3, r2, r3
     f98:	e5933000 	ldr	r3, [r3]
     f9c:	e50b3024 	str	r3, [fp, #-36]	; 0xffffffdc
     fa0:	e51b201c 	ldr	r2, [fp, #-28]	; 0xffffffe4
     fa4:	e51b3010 	ldr	r3, [fp, #-16]
     fa8:	e1520003 	cmp	r2, r3
     fac:	2a000001 	bcs	fb8 <load_elf_image+0x350>
     fb0:	e51b301c 	ldr	r3, [fp, #-28]	; 0xffffffe4
     fb4:	e50b3010 	str	r3, [fp, #-16]
     fb8:	e51b201c 	ldr	r2, [fp, #-28]	; 0xffffffe4
     fbc:	e51b3018 	ldr	r3, [fp, #-24]	; 0xffffffe8
     fc0:	e0823003 	add	r3, r2, r3
     fc4:	e50b301c 	str	r3, [fp, #-28]	; 0xffffffe4
     fc8:	e51b2028 	ldr	r2, [fp, #-40]	; 0xffffffd8
     fcc:	e3a0332b 	mov	r3, #-1409286144	; 0xac000000
     fd0:	e1a03b43 	asr	r3, r3, #22
     fd4:	e1a02282 	lsl	r2, r2, #5
     fd8:	e24b100c 	sub	r1, fp, #12
     fdc:	e0812002 	add	r2, r1, r2
     fe0:	e0823003 	add	r3, r2, r3
     fe4:	e5932000 	ldr	r2, [r3]
     fe8:	e51b302c 	ldr	r3, [fp, #-44]	; 0xffffffd4
     fec:	e1520003 	cmp	r2, r3
     ff0:	2a000033 	bcs	10c4 <load_elf_image+0x45c>
     ff4:	e51b2028 	ldr	r2, [fp, #-40]	; 0xffffffd8
     ff8:	e3a0332b 	mov	r3, #-1409286144	; 0xac000000
     ffc:	e1a03b43 	asr	r3, r3, #22
    1000:	e1a02282 	lsl	r2, r2, #5
    1004:	e24b100c 	sub	r1, fp, #12
    1008:	e0812002 	add	r2, r1, r2
    100c:	e0823003 	add	r3, r2, r3
    1010:	e5932000 	ldr	r2, [r3]
    1014:	e51b3024 	ldr	r3, [fp, #-36]	; 0xffffffdc
    1018:	e0822003 	add	r2, r2, r3
    101c:	e51b302c 	ldr	r3, [fp, #-44]	; 0xffffffd4
    1020:	e1520003 	cmp	r2, r3
    1024:	2a000006 	bcs	1044 <load_elf_image+0x3dc>
    1028:	e59f02f0 	ldr	r0, [pc, #752]	; 1320 <load_elf_image+0x6b8>
    102c:	eb003de3 	bl	107c0 <err_printf>
    1030:	e3a00001 	mov	r0, #1
    1034:	ebfffebc 	bl	b2c <redboot_getc_terminate>
    1038:	e3a03000 	mov	r3, #0
    103c:	e50b3190 	str	r3, [fp, #-400]	; 0xfffffe70
    1040:	ea0000ac 	b	12f8 <load_elf_image+0x690>
    1044:	e51b2028 	ldr	r2, [fp, #-40]	; 0xffffffd8
    1048:	e3a0332b 	mov	r3, #-1409286144	; 0xac000000
    104c:	e1a03b43 	asr	r3, r3, #22
    1050:	e1a02282 	lsl	r2, r2, #5
    1054:	e24b100c 	sub	r1, fp, #12
    1058:	e0812002 	add	r2, r1, r2
    105c:	e0823003 	add	r3, r2, r3
    1060:	e5932000 	ldr	r2, [r3]
    1064:	e51b302c 	ldr	r3, [fp, #-44]	; 0xffffffd4
    1068:	e0622003 	rsb	r2, r2, r3
    106c:	e51b301c 	ldr	r3, [fp, #-28]	; 0xffffffe4
    1070:	e0833002 	add	r3, r3, r2
    1074:	e50b301c 	str	r3, [fp, #-28]	; 0xffffffe4
    1078:	ea000057 	b	11dc <load_elf_image+0x574>
    107c:	e51b3188 	ldr	r3, [fp, #-392]	; 0xfffffe78
    1080:	e1a0e00f 	mov	lr, pc
    1084:	e12fff13 	bx	r3
    1088:	e1a03000 	mov	r3, r0
    108c:	e3530000 	cmp	r3, #0
    1090:	aa000008 	bge	10b8 <load_elf_image+0x450>
    1094:	e24b3f5f 	sub	r3, fp, #380	; 0x17c
    1098:	e2433001 	sub	r3, r3, #1
    109c:	e1a00003 	mov	r0, r3
    10a0:	eb003dc6 	bl	107c0 <err_printf>
    10a4:	e3a00001 	mov	r0, #1
    10a8:	ebfffe9f 	bl	b2c <redboot_getc_terminate>
    10ac:	e3a03000 	mov	r3, #0
    10b0:	e50b3190 	str	r3, [fp, #-400]	; 0xfffffe70
    10b4:	ea00008f 	b	12f8 <load_elf_image+0x690>
    10b8:	e51b302c 	ldr	r3, [fp, #-44]	; 0xffffffd4
    10bc:	e2833001 	add	r3, r3, #1
    10c0:	e50b302c 	str	r3, [fp, #-44]	; 0xffffffd4
    10c4:	e51b2028 	ldr	r2, [fp, #-40]	; 0xffffffd8
    10c8:	e3a0332b 	mov	r3, #-1409286144	; 0xac000000
    10cc:	e1a03b43 	asr	r3, r3, #22
    10d0:	e1a02282 	lsl	r2, r2, #5
    10d4:	e24b100c 	sub	r1, fp, #12
    10d8:	e0812002 	add	r2, r1, r2
    10dc:	e0823003 	add	r3, r2, r3
    10e0:	e5932000 	ldr	r2, [r3]
    10e4:	e51b302c 	ldr	r3, [fp, #-44]	; 0xffffffd4
    10e8:	e1520003 	cmp	r2, r3
    10ec:	8affffe2 	bhi	107c <load_elf_image+0x414>
    10f0:	ea000039 	b	11dc <load_elf_image+0x574>
    10f4:	e51b001c 	ldr	r0, [fp, #-28]	; 0xffffffe4
    10f8:	eb003523 	bl	e58c <valid_address>
    10fc:	e1a03000 	mov	r3, r0
    1100:	e3530000 	cmp	r3, #0
    1104:	1a000007 	bne	1128 <load_elf_image+0x4c0>
    1108:	e3a00001 	mov	r0, #1
    110c:	ebfffe86 	bl	b2c <redboot_getc_terminate>
    1110:	e59f020c 	ldr	r0, [pc, #524]	; 1324 <load_elf_image+0x6bc>
    1114:	e51b101c 	ldr	r1, [fp, #-28]	; 0xffffffe4
    1118:	eb003da8 	bl	107c0 <err_printf>
    111c:	e3a03000 	mov	r3, #0
    1120:	e50b3190 	str	r3, [fp, #-400]	; 0xfffffe70
    1124:	ea000073 	b	12f8 <load_elf_image+0x690>
    1128:	e51b3188 	ldr	r3, [fp, #-392]	; 0xfffffe78
    112c:	e1a0e00f 	mov	lr, pc
    1130:	e12fff13 	bx	r3
    1134:	e1a03000 	mov	r3, r0
    1138:	e50b3020 	str	r3, [fp, #-32]	; 0xffffffe0
    113c:	e51b3020 	ldr	r3, [fp, #-32]	; 0xffffffe0
    1140:	e3530000 	cmp	r3, #0
    1144:	aa000008 	bge	116c <load_elf_image+0x504>
    1148:	e24b3f5f 	sub	r3, fp, #380	; 0x17c
    114c:	e2433001 	sub	r3, r3, #1
    1150:	e1a00003 	mov	r0, r3
    1154:	eb003d99 	bl	107c0 <err_printf>
    1158:	e3a00001 	mov	r0, #1
    115c:	ebfffe72 	bl	b2c <redboot_getc_terminate>
    1160:	e3a01000 	mov	r1, #0
    1164:	e50b1190 	str	r1, [fp, #-400]	; 0xfffffe70
    1168:	ea000062 	b	12f8 <load_elf_image+0x690>
    116c:	e51b001c 	ldr	r0, [fp, #-28]	; 0xffffffe4
    1170:	eb003505 	bl	e58c <valid_address>
    1174:	e1a03000 	mov	r3, r0
    1178:	e3530000 	cmp	r3, #0
    117c:	0a000006 	beq	119c <load_elf_image+0x534>
    1180:	e51b3020 	ldr	r3, [fp, #-32]	; 0xffffffe0
    1184:	e20330ff 	and	r3, r3, #255	; 0xff
    1188:	e51b201c 	ldr	r2, [fp, #-28]	; 0xffffffe4
    118c:	e5c23000 	strb	r3, [r2]
    1190:	e51b301c 	ldr	r3, [fp, #-28]	; 0xffffffe4
    1194:	e2833001 	add	r3, r3, #1
    1198:	e50b301c 	str	r3, [fp, #-28]	; 0xffffffe4
    119c:	e51b302c 	ldr	r3, [fp, #-44]	; 0xffffffd4
    11a0:	e2833001 	add	r3, r3, #1
    11a4:	e50b302c 	str	r3, [fp, #-44]	; 0xffffffd4
    11a8:	e51b3018 	ldr	r3, [fp, #-24]	; 0xffffffe8
    11ac:	e2632000 	rsb	r2, r3, #0
    11b0:	e51b301c 	ldr	r3, [fp, #-28]	; 0xffffffe4
    11b4:	e0833002 	add	r3, r3, r2
    11b8:	e1a02003 	mov	r2, r3
    11bc:	e51b3014 	ldr	r3, [fp, #-20]	; 0xffffffec
    11c0:	e1520003 	cmp	r2, r3
    11c4:	9a000004 	bls	11dc <load_elf_image+0x574>
    11c8:	e51b3018 	ldr	r3, [fp, #-24]	; 0xffffffe8
    11cc:	e2632000 	rsb	r2, r3, #0
    11d0:	e51b301c 	ldr	r3, [fp, #-28]	; 0xffffffe4
    11d4:	e0833002 	add	r3, r3, r2
    11d8:	e50b3014 	str	r3, [fp, #-20]	; 0xffffffec
    11dc:	e51b3024 	ldr	r3, [fp, #-36]	; 0xffffffdc
    11e0:	e3530000 	cmp	r3, #0
    11e4:	d3a03000 	movle	r3, #0
    11e8:	c3a03001 	movgt	r3, #1
    11ec:	e20320ff 	and	r2, r3, #255	; 0xff
    11f0:	e51b3024 	ldr	r3, [fp, #-36]	; 0xffffffdc
    11f4:	e2433001 	sub	r3, r3, #1
    11f8:	e50b3024 	str	r3, [fp, #-36]	; 0xffffffdc
    11fc:	e3520000 	cmp	r2, #0
    1200:	1affffbb 	bne	10f4 <load_elf_image+0x48c>
    1204:	e51b3028 	ldr	r3, [fp, #-40]	; 0xffffffd8
    1208:	e2833001 	add	r3, r3, #1
    120c:	e50b3028 	str	r3, [fp, #-40]	; 0xffffffd8
    1210:	e15b33b4 	ldrh	r3, [fp, #-52]	; 0xffffffcc
    1214:	e1a02003 	mov	r2, r3
    1218:	e51b3028 	ldr	r3, [fp, #-40]	; 0xffffffd8
    121c:	e1520003 	cmp	r2, r3
    1220:	caffff3e 	bgt	f20 <load_elf_image+0x2b8>
    1224:	e51b318c 	ldr	r3, [fp, #-396]	; 0xfffffe74
    1228:	e3530000 	cmp	r3, #0
    122c:	0a000011 	beq	1278 <load_elf_image+0x610>
    1230:	e59f20f0 	ldr	r2, [pc, #240]	; 1328 <load_elf_image+0x6c0>
    1234:	e51b318c 	ldr	r3, [fp, #-396]	; 0xfffffe74
    1238:	e5823000 	str	r3, [r2]
    123c:	e51b2014 	ldr	r2, [fp, #-20]	; 0xffffffec
    1240:	e51b3010 	ldr	r3, [fp, #-16]
    1244:	e0632002 	rsb	r2, r3, r2
    1248:	e51b318c 	ldr	r3, [fp, #-396]	; 0xfffffe74
    124c:	e0822003 	add	r2, r2, r3
    1250:	e59f30d4 	ldr	r3, [pc, #212]	; 132c <load_elf_image+0x6c4>
    1254:	e5832000 	str	r2, [r3]
    1258:	e51b2048 	ldr	r2, [fp, #-72]	; 0xffffffb8
    125c:	e51b3010 	ldr	r3, [fp, #-16]
    1260:	e0632002 	rsb	r2, r3, r2
    1264:	e51b318c 	ldr	r3, [fp, #-396]	; 0xfffffe74
    1268:	e0822003 	add	r2, r2, r3
    126c:	e59f30bc 	ldr	r3, [pc, #188]	; 1330 <load_elf_image+0x6c8>
    1270:	e5832000 	str	r2, [r3]
    1274:	ea000008 	b	129c <load_elf_image+0x634>
    1278:	e59f20a8 	ldr	r2, [pc, #168]	; 1328 <load_elf_image+0x6c0>
    127c:	e51b3010 	ldr	r3, [fp, #-16]
    1280:	e5823000 	str	r3, [r2]
    1284:	e59f20a0 	ldr	r2, [pc, #160]	; 132c <load_elf_image+0x6c4>
    1288:	e51b3014 	ldr	r3, [fp, #-20]	; 0xffffffec
    128c:	e5823000 	str	r3, [r2]
    1290:	e51b2048 	ldr	r2, [fp, #-72]	; 0xffffffb8
    1294:	e59f3094 	ldr	r3, [pc, #148]	; 1330 <load_elf_image+0x6c8>
    1298:	e5832000 	str	r2, [r3]
    129c:	e3a00001 	mov	r0, #1
    12a0:	ebfffe21 	bl	b2c <redboot_getc_terminate>
    12a4:	e51b3018 	ldr	r3, [fp, #-24]	; 0xffffffe8
    12a8:	e3530000 	cmp	r3, #0
    12ac:	0a000003 	beq	12c0 <load_elf_image+0x658>
    12b0:	e51b3018 	ldr	r3, [fp, #-24]	; 0xffffffe8
    12b4:	e59f0078 	ldr	r0, [pc, #120]	; 1334 <load_elf_image+0x6cc>
    12b8:	e1a01003 	mov	r1, r3
    12bc:	eb002eae 	bl	cd7c <diag_printf>
    12c0:	e59f3068 	ldr	r3, [pc, #104]	; 1330 <load_elf_image+0x6c8>
    12c4:	e5933000 	ldr	r3, [r3]
    12c8:	e1a02003 	mov	r2, r3
    12cc:	e59f3054 	ldr	r3, [pc, #84]	; 1328 <load_elf_image+0x6c0>
    12d0:	e5933000 	ldr	r3, [r3]
    12d4:	e1a0c003 	mov	ip, r3
    12d8:	e59f304c 	ldr	r3, [pc, #76]	; 132c <load_elf_image+0x6c4>
    12dc:	e5933000 	ldr	r3, [r3]
    12e0:	e59f0050 	ldr	r0, [pc, #80]	; 1338 <load_elf_image+0x6d0>
    12e4:	e1a01002 	mov	r1, r2
    12e8:	e1a0200c 	mov	r2, ip
    12ec:	eb002ea2 	bl	cd7c <diag_printf>
    12f0:	e3a03001 	mov	r3, #1
    12f4:	e50b3190 	str	r3, [fp, #-400]	; 0xfffffe70
    12f8:	e51b3190 	ldr	r3, [fp, #-400]	; 0xfffffe70
    12fc:	e1a00003 	mov	r0, r3
    1300:	e24bd00c 	sub	sp, fp, #12
    1304:	e89d6800 	ldm	sp, {fp, sp, lr}
    1308:	e12fff1e 	bx	lr
    130c:	00014dcc 	.word	0x00014dcc
    1310:	00014c98 	.word	0x00014c98
    1314:	00014cb0 	.word	0x00014cb0
    1318:	00014cd4 	.word	0x00014cd4
    131c:	00014cf0 	.word	0x00014cf0
    1320:	00014d10 	.word	0x00014d10
    1324:	00014d44 	.word	0x00014d44
    1328:	81005748 	.word	0x81005748
    132c:	81005720 	.word	0x81005720
    1330:	81005730 	.word	0x81005730
    1334:	00014d8c 	.word	0x00014d8c
    1338:	00014da4 	.word	0x00014da4

0000133c <_hex2>:
    133c:	e1a0c00d 	mov	ip, sp
    1340:	e92dd810 	push	{r4, fp, ip, lr, pc}
    1344:	e24cb004 	sub	fp, ip, #4
    1348:	e24dd024 	sub	sp, sp, #36	; 0x24
    134c:	e50b0028 	str	r0, [fp, #-40]	; 0xffffffd8
    1350:	e50b102c 	str	r1, [fp, #-44]	; 0xffffffd4
    1354:	e50b2030 	str	r2, [fp, #-48]	; 0xffffffd0
    1358:	e3a03000 	mov	r3, #0
    135c:	e50b3020 	str	r3, [fp, #-32]	; 0xffffffe0
    1360:	ea000034 	b	1438 <_hex2+0xfc>
    1364:	e51b3028 	ldr	r3, [fp, #-40]	; 0xffffffd8
    1368:	e1a0e00f 	mov	lr, pc
    136c:	e12fff13 	bx	r3
    1370:	e1a03000 	mov	r3, r0
    1374:	e54b3016 	strb	r3, [fp, #-22]	; 0xffffffea
    1378:	e51b3028 	ldr	r3, [fp, #-40]	; 0xffffffd8
    137c:	e1a0e00f 	mov	lr, pc
    1380:	e12fff13 	bx	r3
    1384:	e1a03000 	mov	r3, r0
    1388:	e54b3015 	strb	r3, [fp, #-21]	; 0xffffffeb
    138c:	e55b3016 	ldrb	r3, [fp, #-22]	; 0xffffffea
    1390:	e1a00003 	mov	r0, r3
    1394:	eb000038 	bl	147c <_is_hex>
    1398:	e1a03000 	mov	r3, r0
    139c:	e3530000 	cmp	r3, #0
    13a0:	0a000021 	beq	142c <_hex2+0xf0>
    13a4:	e55b3015 	ldrb	r3, [fp, #-21]	; 0xffffffeb
    13a8:	e1a00003 	mov	r0, r3
    13ac:	eb000032 	bl	147c <_is_hex>
    13b0:	e1a03000 	mov	r3, r0
    13b4:	e3530000 	cmp	r3, #0
    13b8:	0a00001b 	beq	142c <_hex2+0xf0>
    13bc:	e51b3020 	ldr	r3, [fp, #-32]	; 0xffffffe0
    13c0:	e1a03403 	lsl	r3, r3, #8
    13c4:	e50b3020 	str	r3, [fp, #-32]	; 0xffffffe0
    13c8:	e55b3016 	ldrb	r3, [fp, #-22]	; 0xffffffea
    13cc:	e1a00003 	mov	r0, r3
    13d0:	eb00004b 	bl	1504 <_from_hex>
    13d4:	e1a03000 	mov	r3, r0
    13d8:	e1a04203 	lsl	r4, r3, #4
    13dc:	e55b3015 	ldrb	r3, [fp, #-21]	; 0xffffffeb
    13e0:	e1a00003 	mov	r0, r3
    13e4:	eb000046 	bl	1504 <_from_hex>
    13e8:	e1a03000 	mov	r3, r0
    13ec:	e1843003 	orr	r3, r4, r3
    13f0:	e50b301c 	str	r3, [fp, #-28]	; 0xffffffe4
    13f4:	e51b2020 	ldr	r2, [fp, #-32]	; 0xffffffe0
    13f8:	e51b301c 	ldr	r3, [fp, #-28]	; 0xffffffe4
    13fc:	e1823003 	orr	r3, r2, r3
    1400:	e50b3020 	str	r3, [fp, #-32]	; 0xffffffe0
    1404:	e51b3030 	ldr	r3, [fp, #-48]	; 0xffffffd0
    1408:	e3530000 	cmp	r3, #0
    140c:	0a000009 	beq	1438 <_hex2+0xfc>
    1410:	e51b3030 	ldr	r3, [fp, #-48]	; 0xffffffd0
    1414:	e5932000 	ldr	r2, [r3]
    1418:	e51b301c 	ldr	r3, [fp, #-28]	; 0xffffffe4
    141c:	e0822003 	add	r2, r2, r3
    1420:	e51b3030 	ldr	r3, [fp, #-48]	; 0xffffffd0
    1424:	e5832000 	str	r2, [r3]
    1428:	ea000002 	b	1438 <_hex2+0xfc>
    142c:	e3e03000 	mvn	r3, #0
    1430:	e50b3034 	str	r3, [fp, #-52]	; 0xffffffcc
    1434:	ea00000b 	b	1468 <_hex2+0x12c>
    1438:	e51b302c 	ldr	r3, [fp, #-44]	; 0xffffffd4
    143c:	e3530000 	cmp	r3, #0
    1440:	d3a03000 	movle	r3, #0
    1444:	c3a03001 	movgt	r3, #1
    1448:	e20320ff 	and	r2, r3, #255	; 0xff
    144c:	e51b302c 	ldr	r3, [fp, #-44]	; 0xffffffd4
    1450:	e2433001 	sub	r3, r3, #1
    1454:	e50b302c 	str	r3, [fp, #-44]	; 0xffffffd4
    1458:	e3520000 	cmp	r2, #0
    145c:	1affffc0 	bne	1364 <_hex2+0x28>
    1460:	e51b3020 	ldr	r3, [fp, #-32]	; 0xffffffe0
    1464:	e50b3034 	str	r3, [fp, #-52]	; 0xffffffcc
    1468:	e51b3034 	ldr	r3, [fp, #-52]	; 0xffffffcc
    146c:	e1a00003 	mov	r0, r3
    1470:	e24bd010 	sub	sp, fp, #16
    1474:	e89d6810 	ldm	sp, {r4, fp, sp, lr}
    1478:	e12fff1e 	bx	lr

0000147c <_is_hex>:
    147c:	e1a0c00d 	mov	ip, sp
    1480:	e92dd800 	push	{fp, ip, lr, pc}
    1484:	e24cb004 	sub	fp, ip, #4
    1488:	e24dd008 	sub	sp, sp, #8
    148c:	e1a03000 	mov	r3, r0
    1490:	e54b300d 	strb	r3, [fp, #-13]
    1494:	e55b300d 	ldrb	r3, [fp, #-13]
    1498:	e353002f 	cmp	r3, #47	; 0x2f
    149c:	9a000002 	bls	14ac <_is_hex+0x30>
    14a0:	e55b300d 	ldrb	r3, [fp, #-13]
    14a4:	e3530039 	cmp	r3, #57	; 0x39
    14a8:	9a00000b 	bls	14dc <_is_hex+0x60>
    14ac:	e55b300d 	ldrb	r3, [fp, #-13]
    14b0:	e3530040 	cmp	r3, #64	; 0x40
    14b4:	9a000002 	bls	14c4 <_is_hex+0x48>
    14b8:	e55b300d 	ldrb	r3, [fp, #-13]
    14bc:	e3530046 	cmp	r3, #70	; 0x46
    14c0:	9a000005 	bls	14dc <_is_hex+0x60>
    14c4:	e55b300d 	ldrb	r3, [fp, #-13]
    14c8:	e3530060 	cmp	r3, #96	; 0x60
    14cc:	9a000005 	bls	14e8 <_is_hex+0x6c>
    14d0:	e55b300d 	ldrb	r3, [fp, #-13]
    14d4:	e3530066 	cmp	r3, #102	; 0x66
    14d8:	8a000002 	bhi	14e8 <_is_hex+0x6c>
    14dc:	e3a03001 	mov	r3, #1
    14e0:	e50b3014 	str	r3, [fp, #-20]	; 0xffffffec
    14e4:	ea000001 	b	14f0 <_is_hex+0x74>
    14e8:	e3a03000 	mov	r3, #0
    14ec:	e50b3014 	str	r3, [fp, #-20]	; 0xffffffec
    14f0:	e51b3014 	ldr	r3, [fp, #-20]	; 0xffffffec
    14f4:	e1a00003 	mov	r0, r3
    14f8:	e24bd00c 	sub	sp, fp, #12
    14fc:	e89d6800 	ldm	sp, {fp, sp, lr}
    1500:	e12fff1e 	bx	lr

00001504 <_from_hex>:
    1504:	e1a0c00d 	mov	ip, sp
    1508:	e92dd800 	push	{fp, ip, lr, pc}
    150c:	e24cb004 	sub	fp, ip, #4
    1510:	e24dd010 	sub	sp, sp, #16
    1514:	e1a03000 	mov	r3, r0
    1518:	e54b3015 	strb	r3, [fp, #-21]	; 0xffffffeb
    151c:	e3a03000 	mov	r3, #0
    1520:	e50b3010 	str	r3, [fp, #-16]
    1524:	e55b3015 	ldrb	r3, [fp, #-21]	; 0xffffffeb
    1528:	e353002f 	cmp	r3, #47	; 0x2f
    152c:	9a000006 	bls	154c <_from_hex+0x48>
    1530:	e55b3015 	ldrb	r3, [fp, #-21]	; 0xffffffeb
    1534:	e3530039 	cmp	r3, #57	; 0x39
    1538:	8a000003 	bhi	154c <_from_hex+0x48>
    153c:	e55b3015 	ldrb	r3, [fp, #-21]	; 0xffffffeb
    1540:	e2433030 	sub	r3, r3, #48	; 0x30
    1544:	e50b3010 	str	r3, [fp, #-16]
    1548:	ea000012 	b	1598 <_from_hex+0x94>
    154c:	e55b3015 	ldrb	r3, [fp, #-21]	; 0xffffffeb
    1550:	e3530060 	cmp	r3, #96	; 0x60
    1554:	9a000006 	bls	1574 <_from_hex+0x70>
    1558:	e55b3015 	ldrb	r3, [fp, #-21]	; 0xffffffeb
    155c:	e3530066 	cmp	r3, #102	; 0x66
    1560:	8a000003 	bhi	1574 <_from_hex+0x70>
    1564:	e55b3015 	ldrb	r3, [fp, #-21]	; 0xffffffeb
    1568:	e2433057 	sub	r3, r3, #87	; 0x57
    156c:	e50b3010 	str	r3, [fp, #-16]
    1570:	ea000008 	b	1598 <_from_hex+0x94>
    1574:	e55b3015 	ldrb	r3, [fp, #-21]	; 0xffffffeb
    1578:	e3530040 	cmp	r3, #64	; 0x40
    157c:	9a000005 	bls	1598 <_from_hex+0x94>
    1580:	e55b3015 	ldrb	r3, [fp, #-21]	; 0xffffffeb
    1584:	e3530046 	cmp	r3, #70	; 0x46
    1588:	8a000002 	bhi	1598 <_from_hex+0x94>
    158c:	e55b3015 	ldrb	r3, [fp, #-21]	; 0xffffffeb
    1590:	e2433037 	sub	r3, r3, #55	; 0x37
    1594:	e50b3010 	str	r3, [fp, #-16]
    1598:	e51b3010 	ldr	r3, [fp, #-16]
    159c:	e1a00003 	mov	r0, r3
    15a0:	e24bd00c 	sub	sp, fp, #12
    15a4:	e89d6800 	ldm	sp, {fp, sp, lr}
    15a8:	e12fff1e 	bx	lr

000015ac <load_srec_image>:
    15ac:	e1a0c00d 	mov	ip, sp
    15b0:	e92dd800 	push	{fp, ip, lr, pc}
    15b4:	e24cb004 	sub	fp, ip, #4
    15b8:	e24dd048 	sub	sp, sp, #72	; 0x48
    15bc:	e50b0048 	str	r0, [fp, #-72]	; 0xffffffb8
    15c0:	e50b104c 	str	r1, [fp, #-76]	; 0xffffffb4
    15c4:	e3a03000 	mov	r3, #0
    15c8:	e50b3038 	str	r3, [fp, #-56]	; 0xffffffc8
    15cc:	e3a03001 	mov	r3, #1
    15d0:	e50b301c 	str	r3, [fp, #-28]	; 0xffffffe4
    15d4:	e3a03000 	mov	r3, #0
    15d8:	e50b3018 	str	r3, [fp, #-24]	; 0xffffffe8
    15dc:	e3a03000 	mov	r3, #0
    15e0:	e50b3014 	str	r3, [fp, #-20]	; 0xffffffec
    15e4:	e3e03000 	mvn	r3, #0
    15e8:	e50b3010 	str	r3, [fp, #-16]
    15ec:	ea000125 	b	1a88 <load_srec_image+0x4dc>
    15f0:	e51b303c 	ldr	r3, [fp, #-60]	; 0xffffffc4
    15f4:	e3530053 	cmp	r3, #83	; 0x53
    15f8:	0a000009 	beq	1624 <load_srec_image+0x78>
    15fc:	e3a00001 	mov	r0, #1
    1600:	ebfffd49 	bl	b2c <redboot_getc_terminate>
    1604:	e51b3038 	ldr	r3, [fp, #-56]	; 0xffffffc8
    1608:	e59f04b4 	ldr	r0, [pc, #1204]	; 1ac4 <load_srec_image+0x518>
    160c:	e1a01003 	mov	r1, r3
    1610:	e51b203c 	ldr	r2, [fp, #-60]	; 0xffffffc4
    1614:	eb003c69 	bl	107c0 <err_printf>
    1618:	e3a03000 	mov	r3, #0
    161c:	e50b3050 	str	r3, [fp, #-80]	; 0xffffffb0
    1620:	ea000122 	b	1ab0 <load_srec_image+0x504>
    1624:	e51b3048 	ldr	r3, [fp, #-72]	; 0xffffffb8
    1628:	e1a0e00f 	mov	lr, pc
    162c:	e12fff13 	bx	r3
    1630:	e1a03000 	mov	r3, r0
    1634:	e54b301d 	strb	r3, [fp, #-29]	; 0xffffffe3
    1638:	e51b3038 	ldr	r3, [fp, #-56]	; 0xffffffc8
    163c:	e2833002 	add	r3, r3, #2
    1640:	e50b3038 	str	r3, [fp, #-56]	; 0xffffffc8
    1644:	e3a03000 	mov	r3, #0
    1648:	e50b3040 	str	r3, [fp, #-64]	; 0xffffffc0
    164c:	e24b3040 	sub	r3, fp, #64	; 0x40
    1650:	e51b0048 	ldr	r0, [fp, #-72]	; 0xffffffb8
    1654:	e3a01001 	mov	r1, #1
    1658:	e1a02003 	mov	r2, r3
    165c:	ebffff36 	bl	133c <_hex2>
    1660:	e1a03000 	mov	r3, r0
    1664:	e50b3034 	str	r3, [fp, #-52]	; 0xffffffcc
    1668:	e51b3034 	ldr	r3, [fp, #-52]	; 0xffffffcc
    166c:	e3530000 	cmp	r3, #0
    1670:	aa000008 	bge	1698 <load_srec_image+0xec>
    1674:	e3a00001 	mov	r0, #1
    1678:	ebfffd2b 	bl	b2c <redboot_getc_terminate>
    167c:	e51b3038 	ldr	r3, [fp, #-56]	; 0xffffffc8
    1680:	e59f0440 	ldr	r0, [pc, #1088]	; 1ac8 <load_srec_image+0x51c>
    1684:	e1a01003 	mov	r1, r3
    1688:	eb003c4c 	bl	107c0 <err_printf>
    168c:	e3a03000 	mov	r3, #0
    1690:	e50b3050 	str	r3, [fp, #-80]	; 0xffffffb0
    1694:	ea000105 	b	1ab0 <load_srec_image+0x504>
    1698:	e51b3038 	ldr	r3, [fp, #-56]	; 0xffffffc8
    169c:	e2833001 	add	r3, r3, #1
    16a0:	e50b3038 	str	r3, [fp, #-56]	; 0xffffffc8
    16a4:	e55b301d 	ldrb	r3, [fp, #-29]	; 0xffffffe3
    16a8:	e2433030 	sub	r3, r3, #48	; 0x30
    16ac:	e3530009 	cmp	r3, #9
    16b0:	979ff103 	ldrls	pc, [pc, r3, lsl #2]
    16b4:	ea0000de 	b	1a34 <load_srec_image+0x488>
    16b8:	00001a68 	.word	0x00001a68
    16bc:	000016e0 	.word	0x000016e0
    16c0:	000016e0 	.word	0x000016e0
    16c4:	000016e0 	.word	0x000016e0
    16c8:	00001a34 	.word	0x00001a34
    16cc:	00001a34 	.word	0x00001a34
    16d0:	00001a34 	.word	0x00001a34
    16d4:	00001920 	.word	0x00001920
    16d8:	00001920 	.word	0x00001920
    16dc:	00001920 	.word	0x00001920
    16e0:	e55b301d 	ldrb	r3, [fp, #-29]	; 0xffffffe3
    16e4:	e243302f 	sub	r3, r3, #47	; 0x2f
    16e8:	e24b2040 	sub	r2, fp, #64	; 0x40
    16ec:	e51b0048 	ldr	r0, [fp, #-72]	; 0xffffffb8
    16f0:	e1a01003 	mov	r1, r3
    16f4:	ebffff10 	bl	133c <_hex2>
    16f8:	e1a03000 	mov	r3, r0
    16fc:	e50b3028 	str	r3, [fp, #-40]	; 0xffffffd8
    1700:	e51b3028 	ldr	r3, [fp, #-40]	; 0xffffffd8
    1704:	e50b3024 	str	r3, [fp, #-36]	; 0xffffffdc
    1708:	e55b301d 	ldrb	r3, [fp, #-29]	; 0xffffffe3
    170c:	e243202f 	sub	r2, r3, #47	; 0x2f
    1710:	e51b3038 	ldr	r3, [fp, #-56]	; 0xffffffc8
    1714:	e0833002 	add	r3, r3, r2
    1718:	e50b3038 	str	r3, [fp, #-56]	; 0xffffffc8
    171c:	e51b301c 	ldr	r3, [fp, #-28]	; 0xffffffe4
    1720:	e3530000 	cmp	r3, #0
    1724:	0a00000b 	beq	1758 <load_srec_image+0x1ac>
    1728:	e51b304c 	ldr	r3, [fp, #-76]	; 0xffffffb4
    172c:	e3530000 	cmp	r3, #0
    1730:	0a000004 	beq	1748 <load_srec_image+0x19c>
    1734:	e51b3028 	ldr	r3, [fp, #-40]	; 0xffffffd8
    1738:	e51b204c 	ldr	r2, [fp, #-76]	; 0xffffffb4
    173c:	e0633002 	rsb	r3, r3, r2
    1740:	e50b3018 	str	r3, [fp, #-24]	; 0xffffffe8
    1744:	ea000001 	b	1750 <load_srec_image+0x1a4>
    1748:	e3a03000 	mov	r3, #0
    174c:	e50b3018 	str	r3, [fp, #-24]	; 0xffffffe8
    1750:	e3a03000 	mov	r3, #0
    1754:	e50b301c 	str	r3, [fp, #-28]	; 0xffffffe4
    1758:	e51b2028 	ldr	r2, [fp, #-40]	; 0xffffffd8
    175c:	e51b3018 	ldr	r3, [fp, #-24]	; 0xffffffe8
    1760:	e0823003 	add	r3, r2, r3
    1764:	e50b3028 	str	r3, [fp, #-40]	; 0xffffffd8
    1768:	e51b3018 	ldr	r3, [fp, #-24]	; 0xffffffe8
    176c:	e2632000 	rsb	r2, r3, #0
    1770:	e51b3028 	ldr	r3, [fp, #-40]	; 0xffffffd8
    1774:	e0833002 	add	r3, r3, r2
    1778:	e1a02003 	mov	r2, r3
    177c:	e51b3010 	ldr	r3, [fp, #-16]
    1780:	e1520003 	cmp	r2, r3
    1784:	2a000004 	bcs	179c <load_srec_image+0x1f0>
    1788:	e51b3018 	ldr	r3, [fp, #-24]	; 0xffffffe8
    178c:	e2632000 	rsb	r2, r3, #0
    1790:	e51b3028 	ldr	r3, [fp, #-40]	; 0xffffffd8
    1794:	e0833002 	add	r3, r3, r2
    1798:	e50b3010 	str	r3, [fp, #-16]
    179c:	e51b0028 	ldr	r0, [fp, #-40]	; 0xffffffd8
    17a0:	eb003379 	bl	e58c <valid_address>
    17a4:	e1a03000 	mov	r3, r0
    17a8:	e3530000 	cmp	r3, #0
    17ac:	1a000007 	bne	17d0 <load_srec_image+0x224>
    17b0:	e3a00001 	mov	r0, #1
    17b4:	ebfffcdc 	bl	b2c <redboot_getc_terminate>
    17b8:	e59f030c 	ldr	r0, [pc, #780]	; 1acc <load_srec_image+0x520>
    17bc:	e51b1028 	ldr	r1, [fp, #-40]	; 0xffffffd8
    17c0:	eb003bfe 	bl	107c0 <err_printf>
    17c4:	e3a03000 	mov	r3, #0
    17c8:	e50b3050 	str	r3, [fp, #-80]	; 0xffffffb0
    17cc:	ea0000b7 	b	1ab0 <load_srec_image+0x504>
    17d0:	e55b301d 	ldrb	r3, [fp, #-29]	; 0xffffffe3
    17d4:	e263202e 	rsb	r2, r3, #46	; 0x2e
    17d8:	e51b3034 	ldr	r3, [fp, #-52]	; 0xffffffcc
    17dc:	e0833002 	add	r3, r3, r2
    17e0:	e50b3034 	str	r3, [fp, #-52]	; 0xffffffcc
    17e4:	e51b2038 	ldr	r2, [fp, #-56]	; 0xffffffc8
    17e8:	e51b3034 	ldr	r3, [fp, #-52]	; 0xffffffcc
    17ec:	e0823003 	add	r3, r2, r3
    17f0:	e50b3038 	str	r3, [fp, #-56]	; 0xffffffc8
    17f4:	ea000012 	b	1844 <load_srec_image+0x298>
    17f8:	e24b3040 	sub	r3, fp, #64	; 0x40
    17fc:	e51b0048 	ldr	r0, [fp, #-72]	; 0xffffffb8
    1800:	e3a01001 	mov	r1, #1
    1804:	e1a02003 	mov	r2, r3
    1808:	ebfffecb 	bl	133c <_hex2>
    180c:	e1a03000 	mov	r3, r0
    1810:	e50b3030 	str	r3, [fp, #-48]	; 0xffffffd0
    1814:	e51b0028 	ldr	r0, [fp, #-40]	; 0xffffffd8
    1818:	eb00335b 	bl	e58c <valid_address>
    181c:	e1a03000 	mov	r3, r0
    1820:	e3530000 	cmp	r3, #0
    1824:	0a000006 	beq	1844 <load_srec_image+0x298>
    1828:	e51b3030 	ldr	r3, [fp, #-48]	; 0xffffffd0
    182c:	e20330ff 	and	r3, r3, #255	; 0xff
    1830:	e51b2028 	ldr	r2, [fp, #-40]	; 0xffffffd8
    1834:	e5c23000 	strb	r3, [r2]
    1838:	e51b3028 	ldr	r3, [fp, #-40]	; 0xffffffd8
    183c:	e2833001 	add	r3, r3, #1
    1840:	e50b3028 	str	r3, [fp, #-40]	; 0xffffffd8
    1844:	e51b3034 	ldr	r3, [fp, #-52]	; 0xffffffcc
    1848:	e3530000 	cmp	r3, #0
    184c:	d3a03000 	movle	r3, #0
    1850:	c3a03001 	movgt	r3, #1
    1854:	e20320ff 	and	r2, r3, #255	; 0xff
    1858:	e51b3034 	ldr	r3, [fp, #-52]	; 0xffffffcc
    185c:	e2433001 	sub	r3, r3, #1
    1860:	e50b3034 	str	r3, [fp, #-52]	; 0xffffffcc
    1864:	e3520000 	cmp	r2, #0
    1868:	1affffe2 	bne	17f8 <load_srec_image+0x24c>
    186c:	e51b0048 	ldr	r0, [fp, #-72]	; 0xffffffb8
    1870:	e3a01001 	mov	r1, #1
    1874:	e3a02000 	mov	r2, #0
    1878:	ebfffeaf 	bl	133c <_hex2>
    187c:	e1a03000 	mov	r3, r0
    1880:	e50b302c 	str	r3, [fp, #-44]	; 0xffffffd4
    1884:	e51b3038 	ldr	r3, [fp, #-56]	; 0xffffffc8
    1888:	e2833001 	add	r3, r3, #1
    188c:	e50b3038 	str	r3, [fp, #-56]	; 0xffffffc8
    1890:	e51b3040 	ldr	r3, [fp, #-64]	; 0xffffffc0
    1894:	e20330ff 	and	r3, r3, #255	; 0xff
    1898:	e50b3040 	str	r3, [fp, #-64]	; 0xffffffc0
    189c:	e51b302c 	ldr	r3, [fp, #-44]	; 0xffffffd4
    18a0:	e1e03003 	mvn	r3, r3
    18a4:	e20330ff 	and	r3, r3, #255	; 0xff
    18a8:	e50b302c 	str	r3, [fp, #-44]	; 0xffffffd4
    18ac:	e51b2040 	ldr	r2, [fp, #-64]	; 0xffffffc0
    18b0:	e51b302c 	ldr	r3, [fp, #-44]	; 0xffffffd4
    18b4:	e1530002 	cmp	r3, r2
    18b8:	0a00000a 	beq	18e8 <load_srec_image+0x33c>
    18bc:	e3a00001 	mov	r0, #1
    18c0:	ebfffc99 	bl	b2c <redboot_getc_terminate>
    18c4:	e51b3024 	ldr	r3, [fp, #-36]	; 0xffffffdc
    18c8:	e51b2040 	ldr	r2, [fp, #-64]	; 0xffffffc0
    18cc:	e59f01fc 	ldr	r0, [pc, #508]	; 1ad0 <load_srec_image+0x524>
    18d0:	e1a01003 	mov	r1, r3
    18d4:	e51b302c 	ldr	r3, [fp, #-44]	; 0xffffffd4
    18d8:	eb003bb8 	bl	107c0 <err_printf>
    18dc:	e3a03000 	mov	r3, #0
    18e0:	e50b3050 	str	r3, [fp, #-80]	; 0xffffffb0
    18e4:	ea000071 	b	1ab0 <load_srec_image+0x504>
    18e8:	e51b3018 	ldr	r3, [fp, #-24]	; 0xffffffe8
    18ec:	e2632000 	rsb	r2, r3, #0
    18f0:	e51b3028 	ldr	r3, [fp, #-40]	; 0xffffffd8
    18f4:	e0833002 	add	r3, r3, r2
    18f8:	e1a02003 	mov	r2, r3
    18fc:	e51b3014 	ldr	r3, [fp, #-20]	; 0xffffffec
    1900:	e1520003 	cmp	r2, r3
    1904:	9a000057 	bls	1a68 <load_srec_image+0x4bc>
    1908:	e51b3018 	ldr	r3, [fp, #-24]	; 0xffffffe8
    190c:	e2632000 	rsb	r2, r3, #0
    1910:	e51b3028 	ldr	r3, [fp, #-40]	; 0xffffffd8
    1914:	e0833002 	add	r3, r3, r2
    1918:	e50b3014 	str	r3, [fp, #-20]	; 0xffffffec
    191c:	ea000051 	b	1a68 <load_srec_image+0x4bc>
    1920:	e55b301d 	ldrb	r3, [fp, #-29]	; 0xffffffe3
    1924:	e263303b 	rsb	r3, r3, #59	; 0x3b
    1928:	e24b2040 	sub	r2, fp, #64	; 0x40
    192c:	e51b0048 	ldr	r0, [fp, #-72]	; 0xffffffb8
    1930:	e1a01003 	mov	r1, r3
    1934:	ebfffe80 	bl	133c <_hex2>
    1938:	e1a03000 	mov	r3, r0
    193c:	e50b3028 	str	r3, [fp, #-40]	; 0xffffffd8
    1940:	e55b301d 	ldrb	r3, [fp, #-29]	; 0xffffffe3
    1944:	e263203b 	rsb	r2, r3, #59	; 0x3b
    1948:	e51b3038 	ldr	r3, [fp, #-56]	; 0xffffffc8
    194c:	e0833002 	add	r3, r3, r2
    1950:	e50b3038 	str	r3, [fp, #-56]	; 0xffffffc8
    1954:	e51b304c 	ldr	r3, [fp, #-76]	; 0xffffffb4
    1958:	e3530000 	cmp	r3, #0
    195c:	0a000012 	beq	19ac <load_srec_image+0x400>
    1960:	e59f216c 	ldr	r2, [pc, #364]	; 1ad4 <load_srec_image+0x528>
    1964:	e51b304c 	ldr	r3, [fp, #-76]	; 0xffffffb4
    1968:	e5823000 	str	r3, [r2]
    196c:	e51b2014 	ldr	r2, [fp, #-20]	; 0xffffffec
    1970:	e51b3010 	ldr	r3, [fp, #-16]
    1974:	e0632002 	rsb	r2, r3, r2
    1978:	e51b304c 	ldr	r3, [fp, #-76]	; 0xffffffb4
    197c:	e0822003 	add	r2, r2, r3
    1980:	e59f3150 	ldr	r3, [pc, #336]	; 1ad8 <load_srec_image+0x52c>
    1984:	e5832000 	str	r2, [r3]
    1988:	e51b204c 	ldr	r2, [fp, #-76]	; 0xffffffb4
    198c:	e51b3010 	ldr	r3, [fp, #-16]
    1990:	e0632002 	rsb	r2, r3, r2
    1994:	e51b3028 	ldr	r3, [fp, #-40]	; 0xffffffd8
    1998:	e0833002 	add	r3, r3, r2
    199c:	e1a02003 	mov	r2, r3
    19a0:	e59f3134 	ldr	r3, [pc, #308]	; 1adc <load_srec_image+0x530>
    19a4:	e5832000 	str	r2, [r3]
    19a8:	ea000008 	b	19d0 <load_srec_image+0x424>
    19ac:	e59f2120 	ldr	r2, [pc, #288]	; 1ad4 <load_srec_image+0x528>
    19b0:	e51b3010 	ldr	r3, [fp, #-16]
    19b4:	e5823000 	str	r3, [r2]
    19b8:	e59f2118 	ldr	r2, [pc, #280]	; 1ad8 <load_srec_image+0x52c>
    19bc:	e51b3014 	ldr	r3, [fp, #-20]	; 0xffffffec
    19c0:	e5823000 	str	r3, [r2]
    19c4:	e51b2028 	ldr	r2, [fp, #-40]	; 0xffffffd8
    19c8:	e59f310c 	ldr	r3, [pc, #268]	; 1adc <load_srec_image+0x530>
    19cc:	e5832000 	str	r2, [r3]
    19d0:	e3a00000 	mov	r0, #0
    19d4:	ebfffc54 	bl	b2c <redboot_getc_terminate>
    19d8:	e51b3018 	ldr	r3, [fp, #-24]	; 0xffffffe8
    19dc:	e3530000 	cmp	r3, #0
    19e0:	0a000003 	beq	19f4 <load_srec_image+0x448>
    19e4:	e51b3018 	ldr	r3, [fp, #-24]	; 0xffffffe8
    19e8:	e59f00f0 	ldr	r0, [pc, #240]	; 1ae0 <load_srec_image+0x534>
    19ec:	e1a01003 	mov	r1, r3
    19f0:	eb002ce1 	bl	cd7c <diag_printf>
    19f4:	e59f30e0 	ldr	r3, [pc, #224]	; 1adc <load_srec_image+0x530>
    19f8:	e5933000 	ldr	r3, [r3]
    19fc:	e1a02003 	mov	r2, r3
    1a00:	e59f30cc 	ldr	r3, [pc, #204]	; 1ad4 <load_srec_image+0x528>
    1a04:	e5933000 	ldr	r3, [r3]
    1a08:	e1a0c003 	mov	ip, r3
    1a0c:	e59f30c4 	ldr	r3, [pc, #196]	; 1ad8 <load_srec_image+0x52c>
    1a10:	e5933000 	ldr	r3, [r3]
    1a14:	e59f00c8 	ldr	r0, [pc, #200]	; 1ae4 <load_srec_image+0x538>
    1a18:	e1a01002 	mov	r1, r2
    1a1c:	e1a0200c 	mov	r2, ip
    1a20:	eb002cd5 	bl	cd7c <diag_printf>
    1a24:	e59f30ac 	ldr	r3, [pc, #172]	; 1ad8 <load_srec_image+0x52c>
    1a28:	e5933000 	ldr	r3, [r3]
    1a2c:	e50b3050 	str	r3, [fp, #-80]	; 0xffffffb0
    1a30:	ea00001e 	b	1ab0 <load_srec_image+0x504>
    1a34:	e3a00001 	mov	r0, #1
    1a38:	ebfffc3b 	bl	b2c <redboot_getc_terminate>
    1a3c:	e51b3038 	ldr	r3, [fp, #-56]	; 0xffffffc8
    1a40:	e55b201d 	ldrb	r2, [fp, #-29]	; 0xffffffe3
    1a44:	e59f009c 	ldr	r0, [pc, #156]	; 1ae8 <load_srec_image+0x53c>
    1a48:	e1a01003 	mov	r1, r3
    1a4c:	eb003b5b 	bl	107c0 <err_printf>
    1a50:	e3a03000 	mov	r3, #0
    1a54:	e50b3050 	str	r3, [fp, #-80]	; 0xffffffb0
    1a58:	ea000014 	b	1ab0 <load_srec_image+0x504>
    1a5c:	e51b3038 	ldr	r3, [fp, #-56]	; 0xffffffc8
    1a60:	e2833001 	add	r3, r3, #1
    1a64:	e50b3038 	str	r3, [fp, #-56]	; 0xffffffc8
    1a68:	e51b3048 	ldr	r3, [fp, #-72]	; 0xffffffb8
    1a6c:	e1a0e00f 	mov	lr, pc
    1a70:	e12fff13 	bx	r3
    1a74:	e1a03000 	mov	r3, r0
    1a78:	e50b303c 	str	r3, [fp, #-60]	; 0xffffffc4
    1a7c:	e51b303c 	ldr	r3, [fp, #-60]	; 0xffffffc4
    1a80:	e353000a 	cmp	r3, #10
    1a84:	1afffff4 	bne	1a5c <load_srec_image+0x4b0>
    1a88:	e51b3048 	ldr	r3, [fp, #-72]	; 0xffffffb8
    1a8c:	e1a0e00f 	mov	lr, pc
    1a90:	e12fff13 	bx	r3
    1a94:	e1a03000 	mov	r3, r0
    1a98:	e50b303c 	str	r3, [fp, #-60]	; 0xffffffc4
    1a9c:	e51b303c 	ldr	r3, [fp, #-60]	; 0xffffffc4
    1aa0:	e3530000 	cmp	r3, #0
    1aa4:	cafffed1 	bgt	15f0 <load_srec_image+0x44>
    1aa8:	e3a03000 	mov	r3, #0
    1aac:	e50b3050 	str	r3, [fp, #-80]	; 0xffffffb0
    1ab0:	e51b3050 	ldr	r3, [fp, #-80]	; 0xffffffb0
    1ab4:	e1a00003 	mov	r0, r3
    1ab8:	e24bd00c 	sub	sp, fp, #12
    1abc:	e89d6800 	ldm	sp, {fp, sp, lr}
    1ac0:	e12fff1e 	bx	lr
    1ac4:	00014dec 	.word	0x00014dec
    1ac8:	00014e18 	.word	0x00014e18
    1acc:	00014e3c 	.word	0x00014e3c
    1ad0:	00014e84 	.word	0x00014e84
    1ad4:	81005748 	.word	0x81005748
    1ad8:	81005720 	.word	0x81005720
    1adc:	81005730 	.word	0x81005730
    1ae0:	00014d8c 	.word	0x00014d8c
    1ae4:	00014da4 	.word	0x00014da4
    1ae8:	00014ec0 	.word	0x00014ec0

00001aec <do_load>:
    1aec:	e1a0c00d 	mov	ip, sp
    1af0:	e92dd830 	push	{r4, r5, fp, ip, lr, pc}
    1af4:	e24cb004 	sub	fp, ip, #4
    1af8:	e24ddf56 	sub	sp, sp, #344	; 0x158
    1afc:	e50b0150 	str	r0, [fp, #-336]	; 0xfffffeb0
    1b00:	e50b1154 	str	r1, [fp, #-340]	; 0xfffffeac
    1b04:	e3a03000 	mov	r3, #0
    1b08:	e50b3034 	str	r3, [fp, #-52]	; 0xffffffcc
    1b0c:	e3e03000 	mvn	r3, #0
    1b10:	e50b3030 	str	r3, [fp, #-48]	; 0xffffffd0
    1b14:	e3a03000 	mov	r3, #0
    1b18:	e50b305c 	str	r3, [fp, #-92]	; 0xffffffa4
    1b1c:	e3a03000 	mov	r3, #0
    1b20:	e50b302c 	str	r3, [fp, #-44]	; 0xffffffd4
    1b24:	e3a03000 	mov	r3, #0
    1b28:	e50b3064 	str	r3, [fp, #-100]	; 0xffffff9c
    1b2c:	e3a03000 	mov	r3, #0
    1b30:	e50b3028 	str	r3, [fp, #-40]	; 0xffffffd8
    1b34:	e3a03000 	mov	r3, #0
    1b38:	e50b3020 	str	r3, [fp, #-32]	; 0xffffffe0
    1b3c:	e24b2f4f 	sub	r2, fp, #316	; 0x13c
    1b40:	e24b3048 	sub	r3, fp, #72	; 0x48
    1b44:	e58d3000 	str	r3, [sp]
    1b48:	e3a03000 	mov	r3, #0
    1b4c:	e58d3004 	str	r3, [sp, #4]
    1b50:	e59f358c 	ldr	r3, [pc, #1420]	; 20e4 <do_load+0x5f8>
    1b54:	e58d3008 	str	r3, [sp, #8]
    1b58:	e1a00002 	mov	r0, r2
    1b5c:	e3a01076 	mov	r1, #118	; 0x76
    1b60:	e3a02000 	mov	r2, #0
    1b64:	e3a03002 	mov	r3, #2
    1b68:	eb003b2e 	bl	10828 <init_opts>
    1b6c:	e24b3f4f 	sub	r3, fp, #316	; 0x13c
    1b70:	e2832018 	add	r2, r3, #24
    1b74:	e24b304c 	sub	r3, fp, #76	; 0x4c
    1b78:	e58d3000 	str	r3, [sp]
    1b7c:	e3a03000 	mov	r3, #0
    1b80:	e58d3004 	str	r3, [sp, #4]
    1b84:	e59f355c 	ldr	r3, [pc, #1372]	; 20e8 <do_load+0x5fc>
    1b88:	e58d3008 	str	r3, [sp, #8]
    1b8c:	e1a00002 	mov	r0, r2
    1b90:	e3a01072 	mov	r1, #114	; 0x72
    1b94:	e3a02000 	mov	r2, #0
    1b98:	e3a03002 	mov	r3, #2
    1b9c:	eb003b21 	bl	10828 <init_opts>
    1ba0:	e24b3f4f 	sub	r3, fp, #316	; 0x13c
    1ba4:	e2832030 	add	r2, r3, #48	; 0x30
    1ba8:	e24b305c 	sub	r3, fp, #92	; 0x5c
    1bac:	e58d3000 	str	r3, [sp]
    1bb0:	e24b3050 	sub	r3, fp, #80	; 0x50
    1bb4:	e58d3004 	str	r3, [sp, #4]
    1bb8:	e59f352c 	ldr	r3, [pc, #1324]	; 20ec <do_load+0x600>
    1bbc:	e58d3008 	str	r3, [sp, #8]
    1bc0:	e1a00002 	mov	r0, r2
    1bc4:	e3a01062 	mov	r1, #98	; 0x62
    1bc8:	e3a02001 	mov	r2, #1
    1bcc:	e3a03000 	mov	r3, #0
    1bd0:	eb003b14 	bl	10828 <init_opts>
    1bd4:	e24b3f4f 	sub	r3, fp, #316	; 0x13c
    1bd8:	e2832048 	add	r2, r3, #72	; 0x48
    1bdc:	e24b3058 	sub	r3, fp, #88	; 0x58
    1be0:	e58d3000 	str	r3, [sp]
    1be4:	e24b3054 	sub	r3, fp, #84	; 0x54
    1be8:	e58d3004 	str	r3, [sp, #4]
    1bec:	e59f34fc 	ldr	r3, [pc, #1276]	; 20f0 <do_load+0x604>
    1bf0:	e58d3008 	str	r3, [sp, #8]
    1bf4:	e1a00002 	mov	r0, r2
    1bf8:	e3a0106d 	mov	r1, #109	; 0x6d
    1bfc:	e3a02001 	mov	r2, #1
    1c00:	e3a03001 	mov	r3, #1
    1c04:	eb003b07 	bl	10828 <init_opts>
    1c08:	e3a03004 	mov	r3, #4
    1c0c:	e50b3040 	str	r3, [fp, #-64]	; 0xffffffc0
    1c10:	e24bcf4f 	sub	ip, fp, #316	; 0x13c
    1c14:	e51b3040 	ldr	r3, [fp, #-64]	; 0xffffffc0
    1c18:	e58d3000 	str	r3, [sp]
    1c1c:	e24b3064 	sub	r3, fp, #100	; 0x64
    1c20:	e58d3004 	str	r3, [sp, #4]
    1c24:	e3a03001 	mov	r3, #1
    1c28:	e58d3008 	str	r3, [sp, #8]
    1c2c:	e59f34c0 	ldr	r3, [pc, #1216]	; 20f4 <do_load+0x608>
    1c30:	e58d300c 	str	r3, [sp, #12]
    1c34:	e51b0150 	ldr	r0, [fp, #-336]	; 0xfffffeb0
    1c38:	e51b1154 	ldr	r1, [fp, #-340]	; 0xfffffeac
    1c3c:	e3a02001 	mov	r2, #1
    1c40:	e1a0300c 	mov	r3, ip
    1c44:	eb003b15 	bl	108a0 <scan_opts>
    1c48:	e1a03000 	mov	r3, r0
    1c4c:	e3530000 	cmp	r3, #0
    1c50:	0a000120 	beq	20d8 <do_load+0x5ec>
    1c54:	e59f349c 	ldr	r3, [pc, #1180]	; 20f8 <do_load+0x60c>
    1c58:	e3e02000 	mvn	r2, #0
    1c5c:	e5832000 	str	r2, [r3]
    1c60:	e51b3030 	ldr	r3, [fp, #-48]	; 0xffffffd0
    1c64:	e3530000 	cmp	r3, #0
    1c68:	da000003 	ble	1c7c <do_load+0x190>
    1c6c:	e59f0488 	ldr	r0, [pc, #1160]	; 20fc <do_load+0x610>
    1c70:	e51b1030 	ldr	r1, [fp, #-48]	; 0xffffffd0
    1c74:	eb003ad1 	bl	107c0 <err_printf>
    1c78:	ea000116 	b	20d8 <do_load+0x5ec>
    1c7c:	e51b3054 	ldr	r3, [fp, #-84]	; 0xffffffac
    1c80:	e3530000 	cmp	r3, #0
    1c84:	0a000048 	beq	1dac <do_load+0x2c0>
    1c88:	e59f3470 	ldr	r3, [pc, #1136]	; 2100 <do_load+0x614>
    1c8c:	e50b3024 	str	r3, [fp, #-36]	; 0xffffffdc
    1c90:	ea000014 	b	1ce8 <do_load+0x1fc>
    1c94:	e51b4058 	ldr	r4, [fp, #-88]	; 0xffffffa8
    1c98:	e51b3024 	ldr	r3, [fp, #-36]	; 0xffffffdc
    1c9c:	e5935000 	ldr	r5, [r3]
    1ca0:	e51b3058 	ldr	r3, [fp, #-88]	; 0xffffffa8
    1ca4:	e1a00003 	mov	r0, r3
    1ca8:	eb003f19 	bl	11914 <__strlen>
    1cac:	e1a03000 	mov	r3, r0
    1cb0:	e1a00004 	mov	r0, r4
    1cb4:	e1a01005 	mov	r1, r5
    1cb8:	e1a02003 	mov	r2, r3
    1cbc:	eb0032a0 	bl	e744 <strncasecmp>
    1cc0:	e1a03000 	mov	r3, r0
    1cc4:	e3530000 	cmp	r3, #0
    1cc8:	1a000003 	bne	1cdc <do_load+0x1f0>
    1ccc:	e51b3024 	ldr	r3, [fp, #-36]	; 0xffffffdc
    1cd0:	e5933004 	ldr	r3, [r3, #4]
    1cd4:	e50b3028 	str	r3, [fp, #-40]	; 0xffffffd8
    1cd8:	ea000006 	b	1cf8 <do_load+0x20c>
    1cdc:	e51b3024 	ldr	r3, [fp, #-36]	; 0xffffffdc
    1ce0:	e2833014 	add	r3, r3, #20
    1ce4:	e50b3024 	str	r3, [fp, #-36]	; 0xffffffdc
    1ce8:	e51b2024 	ldr	r2, [fp, #-36]	; 0xffffffdc
    1cec:	e59f3410 	ldr	r3, [pc, #1040]	; 2104 <do_load+0x618>
    1cf0:	e1520003 	cmp	r2, r3
    1cf4:	1affffe6 	bne	1c94 <do_load+0x1a8>
    1cf8:	e51b3028 	ldr	r3, [fp, #-40]	; 0xffffffd8
    1cfc:	e3530000 	cmp	r3, #0
    1d00:	1a000014 	bne	1d58 <do_load+0x26c>
    1d04:	e51b3058 	ldr	r3, [fp, #-88]	; 0xffffffa8
    1d08:	e59f03f8 	ldr	r0, [pc, #1016]	; 2108 <do_load+0x61c>
    1d0c:	e1a01003 	mov	r1, r3
    1d10:	eb002c19 	bl	cd7c <diag_printf>
    1d14:	e59f33e4 	ldr	r3, [pc, #996]	; 2100 <do_load+0x614>
    1d18:	e50b3024 	str	r3, [fp, #-36]	; 0xffffffdc
    1d1c:	ea000007 	b	1d40 <do_load+0x254>
    1d20:	e51b3024 	ldr	r3, [fp, #-36]	; 0xffffffdc
    1d24:	e5933000 	ldr	r3, [r3]
    1d28:	e59f03dc 	ldr	r0, [pc, #988]	; 210c <do_load+0x620>
    1d2c:	e1a01003 	mov	r1, r3
    1d30:	eb002c11 	bl	cd7c <diag_printf>
    1d34:	e51b3024 	ldr	r3, [fp, #-36]	; 0xffffffdc
    1d38:	e2833014 	add	r3, r3, #20
    1d3c:	e50b3024 	str	r3, [fp, #-36]	; 0xffffffdc
    1d40:	e51b2024 	ldr	r2, [fp, #-36]	; 0xffffffdc
    1d44:	e59f33b8 	ldr	r3, [pc, #952]	; 2104 <do_load+0x618>
    1d48:	e1520003 	cmp	r2, r3
    1d4c:	1afffff3 	bne	1d20 <do_load+0x234>
    1d50:	e59f03b8 	ldr	r0, [pc, #952]	; 2110 <do_load+0x624>
    1d54:	eb003a99 	bl	107c0 <err_printf>
    1d58:	e51b3028 	ldr	r3, [fp, #-40]	; 0xffffffd8
    1d5c:	e3530000 	cmp	r3, #0
    1d60:	0a0000dc 	beq	20d8 <do_load+0x5ec>
    1d64:	e51b3024 	ldr	r3, [fp, #-36]	; 0xffffffdc
    1d68:	e5932008 	ldr	r2, [r3, #8]
    1d6c:	e51b3048 	ldr	r3, [fp, #-72]	; 0xffffffb8
    1d70:	e0023003 	and	r3, r2, r3
    1d74:	e50b3048 	str	r3, [fp, #-72]	; 0xffffffb8
    1d78:	e51b3024 	ldr	r3, [fp, #-36]	; 0xffffffdc
    1d7c:	e593300c 	ldr	r3, [r3, #12]
    1d80:	e3530000 	cmp	r3, #0
    1d84:	0a000015 	beq	1de0 <do_load+0x2f4>
    1d88:	e51b3064 	ldr	r3, [fp, #-100]	; 0xffffff9c
    1d8c:	e3530000 	cmp	r3, #0
    1d90:	1a000012 	bne	1de0 <do_load+0x2f4>
    1d94:	e59f0378 	ldr	r0, [pc, #888]	; 2114 <do_load+0x628>
    1d98:	eb002bf7 	bl	cd7c <diag_printf>
    1d9c:	e59f0374 	ldr	r0, [pc, #884]	; 2118 <do_load+0x62c>
    1da0:	e59f1374 	ldr	r1, [pc, #884]	; 211c <do_load+0x630>
    1da4:	eb003a85 	bl	107c0 <err_printf>
    1da8:	ea0000ca 	b	20d8 <do_load+0x5ec>
    1dac:	e59f336c 	ldr	r3, [pc, #876]	; 2120 <do_load+0x634>
    1db0:	e50b301c 	str	r3, [fp, #-28]	; 0xffffffe4
    1db4:	e3a03000 	mov	r3, #0
    1db8:	e50b3024 	str	r3, [fp, #-36]	; 0xffffffdc
    1dbc:	e51b3028 	ldr	r3, [fp, #-40]	; 0xffffffd8
    1dc0:	e3530000 	cmp	r3, #0
    1dc4:	1a000002 	bne	1dd4 <do_load+0x2e8>
    1dc8:	e59f0354 	ldr	r0, [pc, #852]	; 2124 <do_load+0x638>
    1dcc:	eb003a7b 	bl	107c0 <err_printf>
    1dd0:	ea0000c0 	b	20d8 <do_load+0x5ec>
    1dd4:	e59f034c 	ldr	r0, [pc, #844]	; 2128 <do_load+0x63c>
    1dd8:	e51b101c 	ldr	r1, [fp, #-28]	; 0xffffffe4
    1ddc:	eb002be6 	bl	cd7c <diag_printf>
    1de0:	e51b3050 	ldr	r3, [fp, #-80]	; 0xffffffb0
    1de4:	e3530000 	cmp	r3, #0
    1de8:	0a00000e 	beq	1e28 <do_load+0x33c>
    1dec:	e51b305c 	ldr	r3, [fp, #-92]	; 0xffffffa4
    1df0:	e1a00003 	mov	r0, r3
    1df4:	eb0031e4 	bl	e58c <valid_address>
    1df8:	e1a03000 	mov	r3, r0
    1dfc:	e3530000 	cmp	r3, #0
    1e00:	1a000008 	bne	1e28 <do_load+0x33c>
    1e04:	e51b305c 	ldr	r3, [fp, #-92]	; 0xffffffa4
    1e08:	e59f031c 	ldr	r0, [pc, #796]	; 212c <do_load+0x640>
    1e0c:	e1a01003 	mov	r1, r3
    1e10:	eb00382a 	bl	fec0 <verify_action>
    1e14:	e1a03000 	mov	r3, r0
    1e18:	e3530000 	cmp	r3, #0
    1e1c:	0a0000ad 	beq	20d8 <do_load+0x5ec>
    1e20:	e3a03001 	mov	r3, #1
    1e24:	e50b3020 	str	r3, [fp, #-32]	; 0xffffffe0
    1e28:	e51b304c 	ldr	r3, [fp, #-76]	; 0xffffffb4
    1e2c:	e3530000 	cmp	r3, #0
    1e30:	0a000005 	beq	1e4c <do_load+0x360>
    1e34:	e51b3050 	ldr	r3, [fp, #-80]	; 0xffffffb0
    1e38:	e3530000 	cmp	r3, #0
    1e3c:	1a000002 	bne	1e4c <do_load+0x360>
    1e40:	e59f02e8 	ldr	r0, [pc, #744]	; 2130 <do_load+0x644>
    1e44:	eb003a5d 	bl	107c0 <err_printf>
    1e48:	ea0000a2 	b	20d8 <do_load+0x5ec>
    1e4c:	e51b3064 	ldr	r3, [fp, #-100]	; 0xffffff9c
    1e50:	e50b3148 	str	r3, [fp, #-328]	; 0xfffffeb8
    1e54:	e51b3030 	ldr	r3, [fp, #-48]	; 0xffffffd0
    1e58:	e50b3140 	str	r3, [fp, #-320]	; 0xfffffec0
    1e5c:	e51b3024 	ldr	r3, [fp, #-36]	; 0xffffffdc
    1e60:	e3530000 	cmp	r3, #0
    1e64:	0a000003 	beq	1e78 <do_load+0x38c>
    1e68:	e51b3024 	ldr	r3, [fp, #-36]	; 0xffffffdc
    1e6c:	e5933010 	ldr	r3, [r3, #16]
    1e70:	e50b3158 	str	r3, [fp, #-344]	; 0xfffffea8
    1e74:	ea000001 	b	1e80 <do_load+0x394>
    1e78:	e3a03000 	mov	r3, #0
    1e7c:	e50b3158 	str	r3, [fp, #-344]	; 0xfffffea8
    1e80:	e51bc158 	ldr	ip, [fp, #-344]	; 0xfffffea8
    1e84:	e50bc144 	str	ip, [fp, #-324]	; 0xfffffebc
    1e88:	e51b2048 	ldr	r2, [fp, #-72]	; 0xffffffb8
    1e8c:	e24b3f52 	sub	r3, fp, #328	; 0x148
    1e90:	e1a00003 	mov	r0, r3
    1e94:	e51b1028 	ldr	r1, [fp, #-40]	; 0xffffffd8
    1e98:	e51b3034 	ldr	r3, [fp, #-52]	; 0xffffffcc
    1e9c:	ebfffacf 	bl	9e0 <redboot_getc_init>
    1ea0:	e1a03000 	mov	r3, r0
    1ea4:	e50b3044 	str	r3, [fp, #-68]	; 0xffffffbc
    1ea8:	e51b3044 	ldr	r3, [fp, #-68]	; 0xffffffbc
    1eac:	e3530000 	cmp	r3, #0
    1eb0:	ba000088 	blt	20d8 <do_load+0x5ec>
    1eb4:	e51b304c 	ldr	r3, [fp, #-76]	; 0xffffffb4
    1eb8:	e3530000 	cmp	r3, #0
    1ebc:	0a00003d 	beq	1fb8 <do_load+0x4cc>
    1ec0:	e51b305c 	ldr	r3, [fp, #-92]	; 0xffffffa4
    1ec4:	e50b3018 	str	r3, [fp, #-24]	; 0xffffffe8
    1ec8:	e3a03000 	mov	r3, #0
    1ecc:	e50b3038 	str	r3, [fp, #-56]	; 0xffffffc8
    1ed0:	ea000019 	b	1f3c <do_load+0x450>
    1ed4:	e51b3050 	ldr	r3, [fp, #-80]	; 0xffffffb0
    1ed8:	e3530000 	cmp	r3, #0
    1edc:	0a00000f 	beq	1f20 <do_load+0x434>
    1ee0:	e51b0018 	ldr	r0, [fp, #-24]	; 0xffffffe8
    1ee4:	eb0031a8 	bl	e58c <valid_address>
    1ee8:	e1a03000 	mov	r3, r0
    1eec:	e3530000 	cmp	r3, #0
    1ef0:	1a00000a 	bne	1f20 <do_load+0x434>
    1ef4:	e51b3020 	ldr	r3, [fp, #-32]	; 0xffffffe0
    1ef8:	e3530000 	cmp	r3, #0
    1efc:	1a000007 	bne	1f20 <do_load+0x434>
    1f00:	e3a00001 	mov	r0, #1
    1f04:	ebfffb08 	bl	b2c <redboot_getc_terminate>
    1f08:	e59f0224 	ldr	r0, [pc, #548]	; 2134 <do_load+0x648>
    1f0c:	e51b1018 	ldr	r1, [fp, #-24]	; 0xffffffe8
    1f10:	eb003a2a 	bl	107c0 <err_printf>
    1f14:	e3e03000 	mvn	r3, #0
    1f18:	e50b3038 	str	r3, [fp, #-56]	; 0xffffffc8
    1f1c:	ea00000c 	b	1f54 <do_load+0x468>
    1f20:	e51b3044 	ldr	r3, [fp, #-68]	; 0xffffffbc
    1f24:	e20330ff 	and	r3, r3, #255	; 0xff
    1f28:	e51b2018 	ldr	r2, [fp, #-24]	; 0xffffffe8
    1f2c:	e5c23000 	strb	r3, [r2]
    1f30:	e51b3018 	ldr	r3, [fp, #-24]	; 0xffffffe8
    1f34:	e2833001 	add	r3, r3, #1
    1f38:	e50b3018 	str	r3, [fp, #-24]	; 0xffffffe8
    1f3c:	ebfffa2e 	bl	7fc <redboot_getc>
    1f40:	e1a03000 	mov	r3, r0
    1f44:	e50b3044 	str	r3, [fp, #-68]	; 0xffffffbc
    1f48:	e51b3044 	ldr	r3, [fp, #-68]	; 0xffffffbc
    1f4c:	e3530000 	cmp	r3, #0
    1f50:	aaffffdf 	bge	1ed4 <do_load+0x3e8>
    1f54:	e51b3018 	ldr	r3, [fp, #-24]	; 0xffffffe8
    1f58:	e50b302c 	str	r3, [fp, #-44]	; 0xffffffd4
    1f5c:	e51b205c 	ldr	r2, [fp, #-92]	; 0xffffffa4
    1f60:	e59f31d0 	ldr	r3, [pc, #464]	; 2138 <do_load+0x64c>
    1f64:	e5832000 	str	r2, [r3]
    1f68:	e59f21cc 	ldr	r2, [pc, #460]	; 213c <do_load+0x650>
    1f6c:	e51b302c 	ldr	r3, [fp, #-44]	; 0xffffffd4
    1f70:	e5823000 	str	r3, [r2]
    1f74:	e51b205c 	ldr	r2, [fp, #-92]	; 0xffffffa4
    1f78:	e59f3178 	ldr	r3, [pc, #376]	; 20f8 <do_load+0x60c>
    1f7c:	e5832000 	str	r2, [r3]
    1f80:	e3a00000 	mov	r0, #0
    1f84:	ebfffae8 	bl	b2c <redboot_getc_terminate>
    1f88:	e51b3038 	ldr	r3, [fp, #-56]	; 0xffffffc8
    1f8c:	e3530000 	cmp	r3, #0
    1f90:	1a00004f 	bne	20d4 <do_load+0x5e8>
    1f94:	e51b305c 	ldr	r3, [fp, #-92]	; 0xffffffa4
    1f98:	e1a01003 	mov	r1, r3
    1f9c:	e51b302c 	ldr	r3, [fp, #-44]	; 0xffffffd4
    1fa0:	e2433001 	sub	r3, r3, #1
    1fa4:	e1a02003 	mov	r2, r3
    1fa8:	e51b305c 	ldr	r3, [fp, #-92]	; 0xffffffa4
    1fac:	e59f018c 	ldr	r0, [pc, #396]	; 2140 <do_load+0x654>
    1fb0:	eb002b71 	bl	cd7c <diag_printf>
    1fb4:	ea000046 	b	20d4 <do_load+0x5e8>
    1fb8:	e3a03000 	mov	r3, #0
    1fbc:	e50b303c 	str	r3, [fp, #-60]	; 0xffffffc4
    1fc0:	ea000015 	b	201c <do_load+0x530>
    1fc4:	ebfffa0c 	bl	7fc <redboot_getc>
    1fc8:	e1a03000 	mov	r3, r0
    1fcc:	e50b3044 	str	r3, [fp, #-68]	; 0xffffffbc
    1fd0:	e51b3044 	ldr	r3, [fp, #-68]	; 0xffffffbc
    1fd4:	e3530000 	cmp	r3, #0
    1fd8:	aa000003 	bge	1fec <do_load+0x500>
    1fdc:	e59f3160 	ldr	r3, [pc, #352]	; 2144 <do_load+0x658>
    1fe0:	e5933114 	ldr	r3, [r3, #276]	; 0x114
    1fe4:	e50b3038 	str	r3, [fp, #-56]	; 0xffffffc8
    1fe8:	ea00000e 	b	2028 <do_load+0x53c>
    1fec:	e51b103c 	ldr	r1, [fp, #-60]	; 0xffffffc4
    1ff0:	e51b3044 	ldr	r3, [fp, #-68]	; 0xffffffbc
    1ff4:	e20300ff 	and	r0, r3, #255	; 0xff
    1ff8:	e3e0204b 	mvn	r2, #75	; 0x4b
    1ffc:	e24bc014 	sub	ip, fp, #20
    2000:	e08c3001 	add	r3, ip, r1
    2004:	e0832002 	add	r2, r3, r2
    2008:	e1a03000 	mov	r3, r0
    200c:	e5c23000 	strb	r3, [r2]
    2010:	e51b303c 	ldr	r3, [fp, #-60]	; 0xffffffc4
    2014:	e2833001 	add	r3, r3, #1
    2018:	e50b303c 	str	r3, [fp, #-60]	; 0xffffffc4
    201c:	e51b303c 	ldr	r3, [fp, #-60]	; 0xffffffc4
    2020:	e3530003 	cmp	r3, #3
    2024:	9affffe6 	bls	1fc4 <do_load+0x4d8>
    2028:	e51b3044 	ldr	r3, [fp, #-68]	; 0xffffffbc
    202c:	e3530000 	cmp	r3, #0
    2030:	ba000027 	blt	20d4 <do_load+0x5e8>
    2034:	ebfffaad 	bl	af0 <redboot_getc_rewind>
    2038:	e24b3060 	sub	r3, fp, #96	; 0x60
    203c:	e2833001 	add	r3, r3, #1
    2040:	e1a00003 	mov	r0, r3
    2044:	e59f10fc 	ldr	r1, [pc, #252]	; 2148 <do_load+0x65c>
    2048:	e3a02003 	mov	r2, #3
    204c:	eb003e75 	bl	11a28 <__strncmp>
    2050:	e1a03000 	mov	r3, r0
    2054:	e3530000 	cmp	r3, #0
    2058:	1a000006 	bne	2078 <do_load+0x58c>
    205c:	e51b305c 	ldr	r3, [fp, #-92]	; 0xffffffa4
    2060:	e59f00e4 	ldr	r0, [pc, #228]	; 214c <do_load+0x660>
    2064:	e1a01003 	mov	r1, r3
    2068:	ebfffafe 	bl	c68 <load_elf_image>
    206c:	e1a03000 	mov	r3, r0
    2070:	e50b302c 	str	r3, [fp, #-44]	; 0xffffffd4
    2074:	ea000016 	b	20d4 <do_load+0x5e8>
    2078:	e55b3060 	ldrb	r3, [fp, #-96]	; 0xffffffa0
    207c:	e3530053 	cmp	r3, #83	; 0x53
    2080:	1a00000c 	bne	20b8 <do_load+0x5cc>
    2084:	e55b305f 	ldrb	r3, [fp, #-95]	; 0xffffffa1
    2088:	e353002f 	cmp	r3, #47	; 0x2f
    208c:	9a000009 	bls	20b8 <do_load+0x5cc>
    2090:	e55b305f 	ldrb	r3, [fp, #-95]	; 0xffffffa1
    2094:	e3530039 	cmp	r3, #57	; 0x39
    2098:	8a000006 	bhi	20b8 <do_load+0x5cc>
    209c:	e51b305c 	ldr	r3, [fp, #-92]	; 0xffffffa4
    20a0:	e59f00a4 	ldr	r0, [pc, #164]	; 214c <do_load+0x660>
    20a4:	e1a01003 	mov	r1, r3
    20a8:	ebfffd3f 	bl	15ac <load_srec_image>
    20ac:	e1a03000 	mov	r3, r0
    20b0:	e50b302c 	str	r3, [fp, #-44]	; 0xffffffd4
    20b4:	ea000006 	b	20d4 <do_load+0x5e8>
    20b8:	e3a00001 	mov	r0, #1
    20bc:	ebfffa9a 	bl	b2c <redboot_getc_terminate>
    20c0:	e24b3060 	sub	r3, fp, #96	; 0x60
    20c4:	e5933000 	ldr	r3, [r3]
    20c8:	e59f0080 	ldr	r0, [pc, #128]	; 2150 <do_load+0x664>
    20cc:	e1a01003 	mov	r1, r3
    20d0:	eb0039ba 	bl	107c0 <err_printf>
    20d4:	ebfffaaa 	bl	b84 <redboot_getc_close>
    20d8:	e24bd014 	sub	sp, fp, #20
    20dc:	e89d6830 	ldm	sp, {r4, r5, fp, sp, lr}
    20e0:	e12fff1e 	bx	lr
    20e4:	00014eec 	.word	0x00014eec
    20e8:	00014ef4 	.word	0x00014ef4
    20ec:	00014f04 	.word	0x00014f04
    20f0:	00014f14 	.word	0x00014f14
    20f4:	00014f3c 	.word	0x00014f3c
    20f8:	81005730 	.word	0x81005730
    20fc:	00014f48 	.word	0x00014f48
    2100:	810004f8 	.word	0x810004f8
    2104:	81000534 	.word	0x81000534
    2108:	00014f64 	.word	0x00014f64
    210c:	00014f8c 	.word	0x00014f8c
    2110:	00014c6c 	.word	0x00014c6c
    2114:	00014f90 	.word	0x00014f90
    2118:	00014fa4 	.word	0x00014fa4
    211c:	81000238 	.word	0x81000238
    2120:	00014fb4 	.word	0x00014fb4
    2124:	00014fb8 	.word	0x00014fb8
    2128:	00014fd0 	.word	0x00014fd0
    212c:	00014ff0 	.word	0x00014ff0
    2130:	00015024 	.word	0x00015024
    2134:	00015048 	.word	0x00015048
    2138:	81005748 	.word	0x81005748
    213c:	81005720 	.word	0x81005720
    2140:	00015084 	.word	0x00015084
    2144:	8100443c 	.word	0x8100443c
    2148:	000150b0 	.word	0x000150b0
    214c:	000007fc 	.word	0x000007fc
    2150:	000150b4 	.word	0x000150b4

00002154 <xyzModem_flush>:
    2154:	e1a0c00d 	mov	ip, sp
    2158:	e92dd800 	push	{fp, ip, lr, pc}
    215c:	e24cb004 	sub	fp, ip, #4
    2160:	e24dd008 	sub	sp, sp, #8
    2164:	e59f3030 	ldr	r3, [pc, #48]	; 219c <xyzModem_flush+0x48>
    2168:	e5933000 	ldr	r3, [r3]
    216c:	e24b2011 	sub	r2, fp, #17
    2170:	e1a00003 	mov	r0, r3
    2174:	e1a01002 	mov	r1, r2
    2178:	eb000008 	bl	21a0 <__call_COMM_IF_GETC_TIMEOUT>
    217c:	e1a03000 	mov	r3, r0
    2180:	e50b3010 	str	r3, [fp, #-16]
    2184:	e51b3010 	ldr	r3, [fp, #-16]
    2188:	e3530000 	cmp	r3, #0
    218c:	1afffff4 	bne	2164 <xyzModem_flush+0x10>
    2190:	e24bd00c 	sub	sp, fp, #12
    2194:	e89d6800 	ldm	sp, {fp, sp, lr}
    2198:	e12fff1e 	bx	lr
    219c:	81002640 	.word	0x81002640

000021a0 <__call_COMM_IF_GETC_TIMEOUT>:
    21a0:	e1a0c00d 	mov	ip, sp
    21a4:	e92dd800 	push	{fp, ip, lr, pc}
    21a8:	e24cb004 	sub	fp, ip, #4
    21ac:	e24dd010 	sub	sp, sp, #16
    21b0:	e50b0018 	str	r0, [fp, #-24]	; 0xffffffe8
    21b4:	e50b101c 	str	r1, [fp, #-28]	; 0xffffffe4
    21b8:	e51b3018 	ldr	r3, [fp, #-24]	; 0xffffffe8
    21bc:	e5933000 	ldr	r3, [r3]
    21c0:	e50b3010 	str	r3, [fp, #-16]
    21c4:	e51b3018 	ldr	r3, [fp, #-24]	; 0xffffffe8
    21c8:	e283301c 	add	r3, r3, #28
    21cc:	e5933000 	ldr	r3, [r3]
    21d0:	e51b0010 	ldr	r0, [fp, #-16]
    21d4:	e51b101c 	ldr	r1, [fp, #-28]	; 0xffffffe4
    21d8:	e1a0e00f 	mov	lr, pc
    21dc:	e12fff13 	bx	r3
    21e0:	e1a03000 	mov	r3, r0
    21e4:	e50b3014 	str	r3, [fp, #-20]	; 0xffffffec
    21e8:	e51b3014 	ldr	r3, [fp, #-20]	; 0xffffffec
    21ec:	e1a00003 	mov	r0, r3
    21f0:	e24bd00c 	sub	sp, fp, #12
    21f4:	e89d6800 	ldm	sp, {fp, sp, lr}
    21f8:	e12fff1e 	bx	lr

000021fc <xyzModem_get_hdr>:
    21fc:	e1a0c00d 	mov	ip, sp
    2200:	e92dd800 	push	{fp, ip, lr, pc}
    2204:	e24cb004 	sub	fp, ip, #4
    2208:	e24dd028 	sub	sp, sp, #40	; 0x28
    220c:	e3a03000 	mov	r3, #0
    2210:	e50b3020 	str	r3, [fp, #-32]	; 0xffffffe0
    2214:	e3a03000 	mov	r3, #0
    2218:	e50b3018 	str	r3, [fp, #-24]	; 0xffffffe8
    221c:	e3a03000 	mov	r3, #0
    2220:	e50b3014 	str	r3, [fp, #-20]	; 0xffffffec
    2224:	e59f3470 	ldr	r3, [pc, #1136]	; 269c <xyzModem_get_hdr+0x4a0>
    2228:	e5933430 	ldr	r3, [r3, #1072]	; 0x430
    222c:	e3530000 	cmp	r3, #0
    2230:	0a000063 	beq	23c4 <xyzModem_get_hdr+0x1c8>
    2234:	e59f3460 	ldr	r3, [pc, #1120]	; 269c <xyzModem_get_hdr+0x4a0>
    2238:	e5933000 	ldr	r3, [r3]
    223c:	e1a00003 	mov	r0, r3
    2240:	e3a01006 	mov	r1, #6
    2244:	eb00011a 	bl	26b4 <__call_COMM_IF_PUTC>
    2248:	e59f244c 	ldr	r2, [pc, #1100]	; 269c <xyzModem_get_hdr+0x4a0>
    224c:	e3a03000 	mov	r3, #0
    2250:	e5823430 	str	r3, [r2, #1072]	; 0x430
    2254:	ea00005a 	b	23c4 <xyzModem_get_hdr+0x1c8>
    2258:	e59f343c 	ldr	r3, [pc, #1084]	; 269c <xyzModem_get_hdr+0x4a0>
    225c:	e5933000 	ldr	r3, [r3]
    2260:	e24b2025 	sub	r2, fp, #37	; 0x25
    2264:	e1a00003 	mov	r0, r3
    2268:	e1a01002 	mov	r1, r2
    226c:	ebffffcb 	bl	21a0 <__call_COMM_IF_GETC_TIMEOUT>
    2270:	e1a03000 	mov	r3, r0
    2274:	e50b3024 	str	r3, [fp, #-36]	; 0xffffffdc
    2278:	e51b3024 	ldr	r3, [fp, #-36]	; 0xffffffdc
    227c:	e3530000 	cmp	r3, #0
    2280:	0a000048 	beq	23a8 <xyzModem_get_hdr+0x1ac>
    2284:	e51b3014 	ldr	r3, [fp, #-20]	; 0xffffffec
    2288:	e2833001 	add	r3, r3, #1
    228c:	e50b3014 	str	r3, [fp, #-20]	; 0xffffffec
    2290:	e55b3025 	ldrb	r3, [fp, #-37]	; 0xffffffdb
    2294:	e2433001 	sub	r3, r3, #1
    2298:	e3530017 	cmp	r3, #23
    229c:	979ff103 	ldrls	pc, [pc, r3, lsl #2]
    22a0:	ea000047 	b	23c4 <xyzModem_get_hdr+0x1c8>
    22a4:	00002304 	.word	0x00002304
    22a8:	00002318 	.word	0x00002318
    22ac:	000023c4 	.word	0x000023c4
    22b0:	0000237c 	.word	0x0000237c
    22b4:	000023c4 	.word	0x000023c4
    22b8:	000023c4 	.word	0x000023c4
    22bc:	000023c4 	.word	0x000023c4
    22c0:	000023c4 	.word	0x000023c4
    22c4:	000023c4 	.word	0x000023c4
    22c8:	000023c4 	.word	0x000023c4
    22cc:	000023c4 	.word	0x000023c4
    22d0:	000023c4 	.word	0x000023c4
    22d4:	000023c4 	.word	0x000023c4
    22d8:	000023c4 	.word	0x000023c4
    22dc:	000023c4 	.word	0x000023c4
    22e0:	000023c4 	.word	0x000023c4
    22e4:	000023c4 	.word	0x000023c4
    22e8:	000023c4 	.word	0x000023c4
    22ec:	000023c4 	.word	0x000023c4
    22f0:	000023c4 	.word	0x000023c4
    22f4:	000023c4 	.word	0x000023c4
    22f8:	000023c4 	.word	0x000023c4
    22fc:	000023c4 	.word	0x000023c4
    2300:	00002344 	.word	0x00002344
    2304:	e59f3390 	ldr	r3, [pc, #912]	; 269c <xyzModem_get_hdr+0x4a0>
    2308:	e593341c 	ldr	r3, [r3, #1052]	; 0x41c
    230c:	e2832001 	add	r2, r3, #1
    2310:	e59f3384 	ldr	r3, [pc, #900]	; 269c <xyzModem_get_hdr+0x4a0>
    2314:	e583241c 	str	r2, [r3, #1052]	; 0x41c
    2318:	e55b3025 	ldrb	r3, [fp, #-37]	; 0xffffffdb
    231c:	e3530002 	cmp	r3, #2
    2320:	1a000004 	bne	2338 <xyzModem_get_hdr+0x13c>
    2324:	e59f3370 	ldr	r3, [pc, #880]	; 269c <xyzModem_get_hdr+0x4a0>
    2328:	e5933420 	ldr	r3, [r3, #1056]	; 0x420
    232c:	e2832001 	add	r2, r3, #1
    2330:	e59f3364 	ldr	r3, [pc, #868]	; 269c <xyzModem_get_hdr+0x4a0>
    2334:	e5832420 	str	r2, [r3, #1056]	; 0x420
    2338:	e3a03001 	mov	r3, #1
    233c:	e50b3020 	str	r3, [fp, #-32]	; 0xffffffe0
    2340:	ea00001f 	b	23c4 <xyzModem_get_hdr+0x1c8>
    2344:	e59f3350 	ldr	r3, [pc, #848]	; 269c <xyzModem_get_hdr+0x4a0>
    2348:	e5933424 	ldr	r3, [r3, #1060]	; 0x424
    234c:	e2832001 	add	r2, r3, #1
    2350:	e59f3344 	ldr	r3, [pc, #836]	; 269c <xyzModem_get_hdr+0x4a0>
    2354:	e5832424 	str	r2, [r3, #1060]	; 0x424
    2358:	e51b3018 	ldr	r3, [fp, #-24]	; 0xffffffe8
    235c:	e2833001 	add	r3, r3, #1
    2360:	e50b3018 	str	r3, [fp, #-24]	; 0xffffffe8
    2364:	e51b3018 	ldr	r3, [fp, #-24]	; 0xffffffe8
    2368:	e3530003 	cmp	r3, #3
    236c:	1a000014 	bne	23c4 <xyzModem_get_hdr+0x1c8>
    2370:	e3e02004 	mvn	r2, #4
    2374:	e50b2034 	str	r2, [fp, #-52]	; 0xffffffcc
    2378:	ea0000c2 	b	2688 <xyzModem_get_hdr+0x48c>
    237c:	e51b3014 	ldr	r3, [fp, #-20]	; 0xffffffec
    2380:	e3530001 	cmp	r3, #1
    2384:	1a00000e 	bne	23c4 <xyzModem_get_hdr+0x1c8>
    2388:	e59f330c 	ldr	r3, [pc, #780]	; 269c <xyzModem_get_hdr+0x4a0>
    238c:	e5933000 	ldr	r3, [r3]
    2390:	e1a00003 	mov	r0, r3
    2394:	e3a01006 	mov	r1, #6
    2398:	eb0000c5 	bl	26b4 <__call_COMM_IF_PUTC>
    239c:	e3e03003 	mvn	r3, #3
    23a0:	e50b3034 	str	r3, [fp, #-52]	; 0xffffffcc
    23a4:	ea0000b7 	b	2688 <xyzModem_get_hdr+0x48c>
    23a8:	ebffff69 	bl	2154 <xyzModem_flush>
    23ac:	e3a00a3d 	mov	r0, #249856	; 0x3d000
    23b0:	e2800090 	add	r0, r0, #144	; 0x90
    23b4:	eb0000d4 	bl	270c <__call_vv_CYGNUM_CALL_IF_DELAY_US>
    23b8:	e3e02002 	mvn	r2, #2
    23bc:	e50b2034 	str	r2, [fp, #-52]	; 0xffffffcc
    23c0:	ea0000b0 	b	2688 <xyzModem_get_hdr+0x48c>
    23c4:	e51b3020 	ldr	r3, [fp, #-32]	; 0xffffffe0
    23c8:	e3530000 	cmp	r3, #0
    23cc:	0affffa1 	beq	2258 <xyzModem_get_hdr+0x5c>
    23d0:	e59f32c4 	ldr	r3, [pc, #708]	; 269c <xyzModem_get_hdr+0x4a0>
    23d4:	e5933000 	ldr	r3, [r3]
    23d8:	e1a00003 	mov	r0, r3
    23dc:	e59f12bc 	ldr	r1, [pc, #700]	; 26a0 <xyzModem_get_hdr+0x4a4>
    23e0:	ebffff6e 	bl	21a0 <__call_COMM_IF_GETC_TIMEOUT>
    23e4:	e1a03000 	mov	r3, r0
    23e8:	e50b3024 	str	r3, [fp, #-36]	; 0xffffffdc
    23ec:	e51b3024 	ldr	r3, [fp, #-36]	; 0xffffffdc
    23f0:	e3530000 	cmp	r3, #0
    23f4:	1a000002 	bne	2404 <xyzModem_get_hdr+0x208>
    23f8:	e3e03002 	mvn	r3, #2
    23fc:	e50b3034 	str	r3, [fp, #-52]	; 0xffffffcc
    2400:	ea0000a0 	b	2688 <xyzModem_get_hdr+0x48c>
    2404:	e59f3290 	ldr	r3, [pc, #656]	; 269c <xyzModem_get_hdr+0x4a0>
    2408:	e5933000 	ldr	r3, [r3]
    240c:	e1a00003 	mov	r0, r3
    2410:	e59f128c 	ldr	r1, [pc, #652]	; 26a4 <xyzModem_get_hdr+0x4a8>
    2414:	ebffff61 	bl	21a0 <__call_COMM_IF_GETC_TIMEOUT>
    2418:	e1a03000 	mov	r3, r0
    241c:	e50b3024 	str	r3, [fp, #-36]	; 0xffffffdc
    2420:	e51b3024 	ldr	r3, [fp, #-36]	; 0xffffffdc
    2424:	e3530000 	cmp	r3, #0
    2428:	1a000002 	bne	2438 <xyzModem_get_hdr+0x23c>
    242c:	e3e02002 	mvn	r2, #2
    2430:	e50b2034 	str	r2, [fp, #-52]	; 0xffffffcc
    2434:	ea000093 	b	2688 <xyzModem_get_hdr+0x48c>
    2438:	e55b3025 	ldrb	r3, [fp, #-37]	; 0xffffffdb
    243c:	e3530001 	cmp	r3, #1
    2440:	1a000002 	bne	2450 <xyzModem_get_hdr+0x254>
    2444:	e3a03080 	mov	r3, #128	; 0x80
    2448:	e50b3030 	str	r3, [fp, #-48]	; 0xffffffd0
    244c:	ea000001 	b	2458 <xyzModem_get_hdr+0x25c>
    2450:	e3a02b01 	mov	r2, #1024	; 0x400
    2454:	e50b2030 	str	r2, [fp, #-48]	; 0xffffffd0
    2458:	e59f323c 	ldr	r3, [pc, #572]	; 269c <xyzModem_get_hdr+0x4a0>
    245c:	e51b2030 	ldr	r2, [fp, #-48]	; 0xffffffd0
    2460:	e5832410 	str	r2, [r3, #1040]	; 0x410
    2464:	e59f2230 	ldr	r2, [pc, #560]	; 269c <xyzModem_get_hdr+0x4a0>
    2468:	e59f3238 	ldr	r3, [pc, #568]	; 26a8 <xyzModem_get_hdr+0x4ac>
    246c:	e5823404 	str	r3, [r2, #1028]	; 0x404
    2470:	e3a03000 	mov	r3, #0
    2474:	e50b301c 	str	r3, [fp, #-28]	; 0xffffffe4
    2478:	ea000019 	b	24e4 <xyzModem_get_hdr+0x2e8>
    247c:	e59f3218 	ldr	r3, [pc, #536]	; 269c <xyzModem_get_hdr+0x4a0>
    2480:	e5933000 	ldr	r3, [r3]
    2484:	e24b2025 	sub	r2, fp, #37	; 0x25
    2488:	e1a00003 	mov	r0, r3
    248c:	e1a01002 	mov	r1, r2
    2490:	ebffff42 	bl	21a0 <__call_COMM_IF_GETC_TIMEOUT>
    2494:	e1a03000 	mov	r3, r0
    2498:	e50b3024 	str	r3, [fp, #-36]	; 0xffffffdc
    249c:	e51b3024 	ldr	r3, [fp, #-36]	; 0xffffffdc
    24a0:	e3530000 	cmp	r3, #0
    24a4:	0a00000b 	beq	24d8 <xyzModem_get_hdr+0x2dc>
    24a8:	e51b101c 	ldr	r1, [fp, #-28]	; 0xffffffe4
    24ac:	e55b0025 	ldrb	r0, [fp, #-37]	; 0xffffffdb
    24b0:	e59f31e4 	ldr	r3, [pc, #484]	; 269c <xyzModem_get_hdr+0x4a0>
    24b4:	e3a02004 	mov	r2, #4
    24b8:	e0833001 	add	r3, r3, r1
    24bc:	e0832002 	add	r2, r3, r2
    24c0:	e1a03000 	mov	r3, r0
    24c4:	e5c23000 	strb	r3, [r2]
    24c8:	e51b301c 	ldr	r3, [fp, #-28]	; 0xffffffe4
    24cc:	e2833001 	add	r3, r3, #1
    24d0:	e50b301c 	str	r3, [fp, #-28]	; 0xffffffe4
    24d4:	ea000002 	b	24e4 <xyzModem_get_hdr+0x2e8>
    24d8:	e3e03002 	mvn	r3, #2
    24dc:	e50b3034 	str	r3, [fp, #-52]	; 0xffffffcc
    24e0:	ea000068 	b	2688 <xyzModem_get_hdr+0x48c>
    24e4:	e59f31b0 	ldr	r3, [pc, #432]	; 269c <xyzModem_get_hdr+0x4a0>
    24e8:	e5932410 	ldr	r2, [r3, #1040]	; 0x410
    24ec:	e51b301c 	ldr	r3, [fp, #-28]	; 0xffffffe4
    24f0:	e1520003 	cmp	r2, r3
    24f4:	caffffe0 	bgt	247c <xyzModem_get_hdr+0x280>
    24f8:	e59f319c 	ldr	r3, [pc, #412]	; 269c <xyzModem_get_hdr+0x4a0>
    24fc:	e5933000 	ldr	r3, [r3]
    2500:	e1a00003 	mov	r0, r3
    2504:	e59f11a0 	ldr	r1, [pc, #416]	; 26ac <xyzModem_get_hdr+0x4b0>
    2508:	ebffff24 	bl	21a0 <__call_COMM_IF_GETC_TIMEOUT>
    250c:	e1a03000 	mov	r3, r0
    2510:	e50b3024 	str	r3, [fp, #-36]	; 0xffffffdc
    2514:	e51b3024 	ldr	r3, [fp, #-36]	; 0xffffffdc
    2518:	e3530000 	cmp	r3, #0
    251c:	1a000002 	bne	252c <xyzModem_get_hdr+0x330>
    2520:	e3e02002 	mvn	r2, #2
    2524:	e50b2034 	str	r2, [fp, #-52]	; 0xffffffcc
    2528:	ea000056 	b	2688 <xyzModem_get_hdr+0x48c>
    252c:	e59f3168 	ldr	r3, [pc, #360]	; 269c <xyzModem_get_hdr+0x4a0>
    2530:	e5933428 	ldr	r3, [r3, #1064]	; 0x428
    2534:	e3530000 	cmp	r3, #0
    2538:	0a00000c 	beq	2570 <xyzModem_get_hdr+0x374>
    253c:	e59f3158 	ldr	r3, [pc, #344]	; 269c <xyzModem_get_hdr+0x4a0>
    2540:	e5933000 	ldr	r3, [r3]
    2544:	e1a00003 	mov	r0, r3
    2548:	e59f1160 	ldr	r1, [pc, #352]	; 26b0 <xyzModem_get_hdr+0x4b4>
    254c:	ebffff13 	bl	21a0 <__call_COMM_IF_GETC_TIMEOUT>
    2550:	e1a03000 	mov	r3, r0
    2554:	e50b3024 	str	r3, [fp, #-36]	; 0xffffffdc
    2558:	e51b3024 	ldr	r3, [fp, #-36]	; 0xffffffdc
    255c:	e3530000 	cmp	r3, #0
    2560:	1a000002 	bne	2570 <xyzModem_get_hdr+0x374>
    2564:	e3e03002 	mvn	r3, #2
    2568:	e50b3034 	str	r3, [fp, #-52]	; 0xffffffcc
    256c:	ea000045 	b	2688 <xyzModem_get_hdr+0x48c>
    2570:	e59f3124 	ldr	r3, [pc, #292]	; 269c <xyzModem_get_hdr+0x4a0>
    2574:	e5d32408 	ldrb	r2, [r3, #1032]	; 0x408
    2578:	e59f311c 	ldr	r3, [pc, #284]	; 269c <xyzModem_get_hdr+0x4a0>
    257c:	e5d33409 	ldrb	r3, [r3, #1033]	; 0x409
    2580:	e0223003 	eor	r3, r2, r3
    2584:	e20330ff 	and	r3, r3, #255	; 0xff
    2588:	e35300ff 	cmp	r3, #255	; 0xff
    258c:	0a000003 	beq	25a0 <xyzModem_get_hdr+0x3a4>
    2590:	ebfffeef 	bl	2154 <xyzModem_flush>
    2594:	e3e02005 	mvn	r2, #5
    2598:	e50b2034 	str	r2, [fp, #-52]	; 0xffffffcc
    259c:	ea000039 	b	2688 <xyzModem_get_hdr+0x48c>
    25a0:	e59f30f4 	ldr	r3, [pc, #244]	; 269c <xyzModem_get_hdr+0x4a0>
    25a4:	e5933428 	ldr	r3, [r3, #1064]	; 0x428
    25a8:	e3530000 	cmp	r3, #0
    25ac:	0a000012 	beq	25fc <xyzModem_get_hdr+0x400>
    25b0:	e59f30e4 	ldr	r3, [pc, #228]	; 269c <xyzModem_get_hdr+0x4a0>
    25b4:	e5933410 	ldr	r3, [r3, #1040]	; 0x410
    25b8:	e59f00e8 	ldr	r0, [pc, #232]	; 26a8 <xyzModem_get_hdr+0x4ac>
    25bc:	e1a01003 	mov	r1, r3
    25c0:	eb003e08 	bl	11de8 <cyg_crc16>
    25c4:	e1a03000 	mov	r3, r0
    25c8:	e14b30be 	strh	r3, [fp, #-14]
    25cc:	e15b10be 	ldrh	r1, [fp, #-14]
    25d0:	e59f30c4 	ldr	r3, [pc, #196]	; 269c <xyzModem_get_hdr+0x4a0>
    25d4:	e5d3340a 	ldrb	r3, [r3, #1034]	; 0x40a
    25d8:	e1a02403 	lsl	r2, r3, #8
    25dc:	e59f30b8 	ldr	r3, [pc, #184]	; 269c <xyzModem_get_hdr+0x4a0>
    25e0:	e5d3340b 	ldrb	r3, [r3, #1035]	; 0x40b
    25e4:	e1823003 	orr	r3, r2, r3
    25e8:	e1510003 	cmp	r1, r3
    25ec:	0a000023 	beq	2680 <xyzModem_get_hdr+0x484>
    25f0:	e3e03006 	mvn	r3, #6
    25f4:	e50b3034 	str	r3, [fp, #-52]	; 0xffffffcc
    25f8:	ea000022 	b	2688 <xyzModem_get_hdr+0x48c>
    25fc:	e3a03000 	mov	r3, #0
    2600:	e14b30be 	strh	r3, [fp, #-14]
    2604:	e3a03000 	mov	r3, #0
    2608:	e50b301c 	str	r3, [fp, #-28]	; 0xffffffe4
    260c:	ea00000c 	b	2644 <xyzModem_get_hdr+0x448>
    2610:	e51b101c 	ldr	r1, [fp, #-28]	; 0xffffffe4
    2614:	e59f3080 	ldr	r3, [pc, #128]	; 269c <xyzModem_get_hdr+0x4a0>
    2618:	e3a02004 	mov	r2, #4
    261c:	e0833001 	add	r3, r3, r1
    2620:	e0833002 	add	r3, r3, r2
    2624:	e5d33000 	ldrb	r3, [r3]
    2628:	e1a02003 	mov	r2, r3
    262c:	e15b30be 	ldrh	r3, [fp, #-14]
    2630:	e0823003 	add	r3, r2, r3
    2634:	e14b30be 	strh	r3, [fp, #-14]
    2638:	e51b301c 	ldr	r3, [fp, #-28]	; 0xffffffe4
    263c:	e2833001 	add	r3, r3, #1
    2640:	e50b301c 	str	r3, [fp, #-28]	; 0xffffffe4
    2644:	e59f3050 	ldr	r3, [pc, #80]	; 269c <xyzModem_get_hdr+0x4a0>
    2648:	e5932410 	ldr	r2, [r3, #1040]	; 0x410
    264c:	e51b301c 	ldr	r3, [fp, #-28]	; 0xffffffe4
    2650:	e1520003 	cmp	r2, r3
    2654:	caffffed 	bgt	2610 <xyzModem_get_hdr+0x414>
    2658:	e59f303c 	ldr	r3, [pc, #60]	; 269c <xyzModem_get_hdr+0x4a0>
    265c:	e5d3340a 	ldrb	r3, [r3, #1034]	; 0x40a
    2660:	e1a02003 	mov	r2, r3
    2664:	e15b30be 	ldrh	r3, [fp, #-14]
    2668:	e20330ff 	and	r3, r3, #255	; 0xff
    266c:	e1520003 	cmp	r2, r3
    2670:	0a000002 	beq	2680 <xyzModem_get_hdr+0x484>
    2674:	e3e02006 	mvn	r2, #6
    2678:	e50b2034 	str	r2, [fp, #-52]	; 0xffffffcc
    267c:	ea000001 	b	2688 <xyzModem_get_hdr+0x48c>
    2680:	e3a03000 	mov	r3, #0
    2684:	e50b3034 	str	r3, [fp, #-52]	; 0xffffffcc
    2688:	e51b3034 	ldr	r3, [fp, #-52]	; 0xffffffcc
    268c:	e1a00003 	mov	r0, r3
    2690:	e24bd00c 	sub	sp, fp, #12
    2694:	e89d6800 	ldm	sp, {fp, sp, lr}
    2698:	e12fff1e 	bx	lr
    269c:	81002640 	.word	0x81002640
    26a0:	81002a48 	.word	0x81002a48
    26a4:	81002a49 	.word	0x81002a49
    26a8:	81002644 	.word	0x81002644
    26ac:	81002a4a 	.word	0x81002a4a
    26b0:	81002a4b 	.word	0x81002a4b

000026b4 <__call_COMM_IF_PUTC>:
    26b4:	e1a0c00d 	mov	ip, sp
    26b8:	e92dd800 	push	{fp, ip, lr, pc}
    26bc:	e24cb004 	sub	fp, ip, #4
    26c0:	e24dd010 	sub	sp, sp, #16
    26c4:	e50b0018 	str	r0, [fp, #-24]	; 0xffffffe8
    26c8:	e1a03001 	mov	r3, r1
    26cc:	e54b3019 	strb	r3, [fp, #-25]	; 0xffffffe7
    26d0:	e51b3018 	ldr	r3, [fp, #-24]	; 0xffffffe8
    26d4:	e5933000 	ldr	r3, [r3]
    26d8:	e50b3010 	str	r3, [fp, #-16]
    26dc:	e51b3018 	ldr	r3, [fp, #-24]	; 0xffffffe8
    26e0:	e283300c 	add	r3, r3, #12
    26e4:	e5933000 	ldr	r3, [r3]
    26e8:	e1a02003 	mov	r2, r3
    26ec:	e55b3019 	ldrb	r3, [fp, #-25]	; 0xffffffe7
    26f0:	e51b0010 	ldr	r0, [fp, #-16]
    26f4:	e1a01003 	mov	r1, r3
    26f8:	e1a0e00f 	mov	lr, pc
    26fc:	e12fff12 	bx	r2
    2700:	e24bd00c 	sub	sp, fp, #12
    2704:	e89d6800 	ldm	sp, {fp, sp, lr}
    2708:	e12fff1e 	bx	lr

0000270c <__call_vv_CYGNUM_CALL_IF_DELAY_US>:
    270c:	e1a0c00d 	mov	ip, sp
    2710:	e92dd800 	push	{fp, ip, lr, pc}
    2714:	e24cb004 	sub	fp, ip, #4
    2718:	e24dd008 	sub	sp, sp, #8
    271c:	e50b0010 	str	r0, [fp, #-16]
    2720:	e59f3018 	ldr	r3, [pc, #24]	; 2740 <__call_vv_CYGNUM_CALL_IF_DELAY_US+0x34>
    2724:	e5933048 	ldr	r3, [r3, #72]	; 0x48
    2728:	e51b0010 	ldr	r0, [fp, #-16]
    272c:	e1a0e00f 	mov	lr, pc
    2730:	e12fff13 	bx	r3
    2734:	e24bd00c 	sub	sp, fp, #12
    2738:	e89d6800 	ldm	sp, {fp, sp, lr}
    273c:	e12fff1e 	bx	lr
    2740:	40000050 	.word	0x40000050

00002744 <xyzModem_stream_open>:
    2744:	e1a0c00d 	mov	ip, sp
    2748:	e92dd800 	push	{fp, ip, lr, pc}
    274c:	e24cb004 	sub	fp, ip, #4
    2750:	e24dd038 	sub	sp, sp, #56	; 0x38
    2754:	e50b0028 	str	r0, [fp, #-40]	; 0xffffffd8
    2758:	e50b102c 	str	r1, [fp, #-44]	; 0xffffffd4
    275c:	e3a03000 	mov	r3, #0
    2760:	e50b301c 	str	r3, [fp, #-28]	; 0xffffffe4
    2764:	e3a03014 	mov	r3, #20
    2768:	e50b3018 	str	r3, [fp, #-24]	; 0xffffffe8
    276c:	e3a0300a 	mov	r3, #10
    2770:	e50b3014 	str	r3, [fp, #-20]	; 0xffffffec
    2774:	e3e00000 	mvn	r0, #0
    2778:	eb0000cb 	bl	2aac <__call_vv_CYGNUM_CALL_IF_SET_CONSOLE_COMM>
    277c:	e1a03000 	mov	r3, r0
    2780:	e50b3020 	str	r3, [fp, #-32]	; 0xffffffe0
    2784:	e51b3028 	ldr	r3, [fp, #-40]	; 0xffffffd8
    2788:	e5933008 	ldr	r3, [r3, #8]
    278c:	e3530000 	cmp	r3, #0
    2790:	ba000004 	blt	27a8 <xyzModem_stream_open+0x64>
    2794:	e51b3028 	ldr	r3, [fp, #-40]	; 0xffffffd8
    2798:	e5933008 	ldr	r3, [r3, #8]
    279c:	e1a00003 	mov	r0, r3
    27a0:	eb0000c1 	bl	2aac <__call_vv_CYGNUM_CALL_IF_SET_CONSOLE_COMM>
    27a4:	ea000001 	b	27b0 <xyzModem_stream_open+0x6c>
    27a8:	e51b0020 	ldr	r0, [fp, #-32]	; 0xffffffe0
    27ac:	eb0000be 	bl	2aac <__call_vv_CYGNUM_CALL_IF_SET_CONSOLE_COMM>
    27b0:	eb0000b3 	bl	2a84 <__call_vv_CYGNUM_CALL_IF_CONSOLE_PROCS>
    27b4:	e1a02000 	mov	r2, r0
    27b8:	e59f32b8 	ldr	r3, [pc, #696]	; 2a78 <xyzModem_stream_open+0x334>
    27bc:	e5832000 	str	r2, [r3]
    27c0:	e51b0020 	ldr	r0, [fp, #-32]	; 0xffffffe0
    27c4:	eb0000b8 	bl	2aac <__call_vv_CYGNUM_CALL_IF_SET_CONSOLE_COMM>
    27c8:	e59f32a8 	ldr	r3, [pc, #680]	; 2a78 <xyzModem_stream_open+0x334>
    27cc:	e5933000 	ldr	r3, [r3]
    27d0:	e5933014 	ldr	r3, [r3, #20]
    27d4:	e1a0c003 	mov	ip, r3
    27d8:	e59f3298 	ldr	r3, [pc, #664]	; 2a78 <xyzModem_stream_open+0x334>
    27dc:	e5933000 	ldr	r3, [r3]
    27e0:	e5933000 	ldr	r3, [r3]
    27e4:	e1a00003 	mov	r0, r3
    27e8:	e3a01007 	mov	r1, #7
    27ec:	e3a02e7d 	mov	r2, #2000	; 0x7d0
    27f0:	e1a0e00f 	mov	lr, pc
    27f4:	e12fff1c 	bx	ip
    27f8:	e1a03000 	mov	r3, r0
    27fc:	e50b3010 	str	r3, [fp, #-16]
    2800:	e59f2270 	ldr	r2, [pc, #624]	; 2a78 <xyzModem_stream_open+0x334>
    2804:	e3a03000 	mov	r3, #0
    2808:	e5823410 	str	r3, [r2, #1040]	; 0x410
    280c:	e59f2264 	ldr	r2, [pc, #612]	; 2a78 <xyzModem_stream_open+0x334>
    2810:	e3a03001 	mov	r3, #1
    2814:	e5823428 	str	r3, [r2, #1064]	; 0x428
    2818:	e59f2258 	ldr	r2, [pc, #600]	; 2a78 <xyzModem_stream_open+0x334>
    281c:	e3a03000 	mov	r3, #0
    2820:	e582342c 	str	r3, [r2, #1068]	; 0x42c
    2824:	e59f224c 	ldr	r2, [pc, #588]	; 2a78 <xyzModem_stream_open+0x334>
    2828:	e3a03000 	mov	r3, #0
    282c:	e5823430 	str	r3, [r2, #1072]	; 0x430
    2830:	e51b3028 	ldr	r3, [fp, #-40]	; 0xffffffd8
    2834:	e5932004 	ldr	r2, [r3, #4]
    2838:	e59f3238 	ldr	r3, [pc, #568]	; 2a78 <xyzModem_stream_open+0x334>
    283c:	e5832414 	str	r2, [r3, #1044]	; 0x414
    2840:	e59f2230 	ldr	r2, [pc, #560]	; 2a78 <xyzModem_stream_open+0x334>
    2844:	e3a03000 	mov	r3, #0
    2848:	e5823418 	str	r3, [r2, #1048]	; 0x418
    284c:	e59f2224 	ldr	r2, [pc, #548]	; 2a78 <xyzModem_stream_open+0x334>
    2850:	e3a03000 	mov	r3, #0
    2854:	e582341c 	str	r3, [r2, #1052]	; 0x41c
    2858:	e59f2218 	ldr	r2, [pc, #536]	; 2a78 <xyzModem_stream_open+0x334>
    285c:	e3a03000 	mov	r3, #0
    2860:	e5823420 	str	r3, [r2, #1056]	; 0x420
    2864:	e59f220c 	ldr	r2, [pc, #524]	; 2a78 <xyzModem_stream_open+0x334>
    2868:	e3a03000 	mov	r3, #0
    286c:	e5823424 	str	r3, [r2, #1060]	; 0x424
    2870:	e59f2200 	ldr	r2, [pc, #512]	; 2a78 <xyzModem_stream_open+0x334>
    2874:	e3a03000 	mov	r3, #0
    2878:	e5823438 	str	r3, [r2, #1080]	; 0x438
    287c:	e59f21f4 	ldr	r2, [pc, #500]	; 2a78 <xyzModem_stream_open+0x334>
    2880:	e3a03000 	mov	r3, #0
    2884:	e5823434 	str	r3, [r2, #1076]	; 0x434
    2888:	e59f31e8 	ldr	r3, [pc, #488]	; 2a78 <xyzModem_stream_open+0x334>
    288c:	e5933000 	ldr	r3, [r3]
    2890:	e50b3040 	str	r3, [fp, #-64]	; 0xffffffc0
    2894:	e59f31dc 	ldr	r3, [pc, #476]	; 2a78 <xyzModem_stream_open+0x334>
    2898:	e5933428 	ldr	r3, [r3, #1064]	; 0x428
    289c:	e3530000 	cmp	r3, #0
    28a0:	0a000002 	beq	28b0 <xyzModem_stream_open+0x16c>
    28a4:	e3a03043 	mov	r3, #67	; 0x43
    28a8:	e50b303c 	str	r3, [fp, #-60]	; 0xffffffc4
    28ac:	ea000001 	b	28b8 <xyzModem_stream_open+0x174>
    28b0:	e3a03015 	mov	r3, #21
    28b4:	e50b303c 	str	r3, [fp, #-60]	; 0xffffffc4
    28b8:	e51b0040 	ldr	r0, [fp, #-64]	; 0xffffffc0
    28bc:	e51b103c 	ldr	r1, [fp, #-60]	; 0xffffffc4
    28c0:	ebffff7b 	bl	26b4 <__call_COMM_IF_PUTC>
    28c4:	e59f31ac 	ldr	r3, [pc, #428]	; 2a78 <xyzModem_stream_open+0x334>
    28c8:	e5933414 	ldr	r3, [r3, #1044]	; 0x414
    28cc:	e3530001 	cmp	r3, #1
    28d0:	1a000054 	bne	2a28 <xyzModem_stream_open+0x2e4>
    28d4:	e59f319c 	ldr	r3, [pc, #412]	; 2a78 <xyzModem_stream_open+0x334>
    28d8:	e3a02001 	mov	r2, #1
    28dc:	e5c3240c 	strb	r2, [r3, #1036]	; 0x40c
    28e0:	e3a03000 	mov	r3, #0
    28e4:	e50b3038 	str	r3, [fp, #-56]	; 0xffffffc8
    28e8:	ea00005d 	b	2a64 <xyzModem_stream_open+0x320>
    28ec:	ebfffe42 	bl	21fc <xyzModem_get_hdr>
    28f0:	e1a03000 	mov	r3, r0
    28f4:	e50b301c 	str	r3, [fp, #-28]	; 0xffffffe4
    28f8:	e51b301c 	ldr	r3, [fp, #-28]	; 0xffffffe4
    28fc:	e3530000 	cmp	r3, #0
    2900:	1a000022 	bne	2990 <xyzModem_stream_open+0x24c>
    2904:	e59f316c 	ldr	r3, [pc, #364]	; 2a78 <xyzModem_stream_open+0x334>
    2908:	e5d33408 	ldrb	r3, [r3, #1032]	; 0x408
    290c:	e3530000 	cmp	r3, #0
    2910:	1a000015 	bne	296c <xyzModem_stream_open+0x228>
    2914:	e59f315c 	ldr	r3, [pc, #348]	; 2a78 <xyzModem_stream_open+0x334>
    2918:	e5932404 	ldr	r2, [r3, #1028]	; 0x404
    291c:	e5d23000 	ldrb	r3, [r2]
    2920:	e3530000 	cmp	r3, #0
    2924:	03a03000 	moveq	r3, #0
    2928:	13a03001 	movne	r3, #1
    292c:	e20310ff 	and	r1, r3, #255	; 0xff
    2930:	e2822001 	add	r2, r2, #1
    2934:	e59f313c 	ldr	r3, [pc, #316]	; 2a78 <xyzModem_stream_open+0x334>
    2938:	e5832404 	str	r2, [r3, #1028]	; 0x404
    293c:	e3510000 	cmp	r1, #0
    2940:	1afffff3 	bne	2914 <xyzModem_stream_open+0x1d0>
    2944:	e59f312c 	ldr	r3, [pc, #300]	; 2a78 <xyzModem_stream_open+0x334>
    2948:	e5933404 	ldr	r3, [r3, #1028]	; 0x404
    294c:	e1a00003 	mov	r0, r3
    2950:	e59f1124 	ldr	r1, [pc, #292]	; 2a7c <xyzModem_stream_open+0x338>
    2954:	e3a02000 	mov	r2, #0
    2958:	e59f3120 	ldr	r3, [pc, #288]	; 2a80 <xyzModem_stream_open+0x33c>
    295c:	eb003904 	bl	10d74 <parse_num>
    2960:	e59f2110 	ldr	r2, [pc, #272]	; 2a78 <xyzModem_stream_open+0x334>
    2964:	e3a03001 	mov	r3, #1
    2968:	e5823430 	str	r3, [r2, #1072]	; 0x430
    296c:	e59f2104 	ldr	r2, [pc, #260]	; 2a78 <xyzModem_stream_open+0x334>
    2970:	e3a03001 	mov	r3, #1
    2974:	e5c2340c 	strb	r3, [r2, #1036]	; 0x40c
    2978:	e59f20f8 	ldr	r2, [pc, #248]	; 2a78 <xyzModem_stream_open+0x334>
    297c:	e3a03000 	mov	r3, #0
    2980:	e5823410 	str	r3, [r2, #1040]	; 0x410
    2984:	e3a03000 	mov	r3, #0
    2988:	e50b3038 	str	r3, [fp, #-56]	; 0xffffffc8
    298c:	ea000034 	b	2a64 <xyzModem_stream_open+0x320>
    2990:	e51b301c 	ldr	r3, [fp, #-28]	; 0xffffffe4
    2994:	e3730003 	cmn	r3, #3
    2998:	1a00001f 	bne	2a1c <xyzModem_stream_open+0x2d8>
    299c:	e51b3014 	ldr	r3, [fp, #-20]	; 0xffffffec
    29a0:	e2433001 	sub	r3, r3, #1
    29a4:	e50b3014 	str	r3, [fp, #-20]	; 0xffffffec
    29a8:	e51b3014 	ldr	r3, [fp, #-20]	; 0xffffffec
    29ac:	e3530000 	cmp	r3, #0
    29b0:	ca000002 	bgt	29c0 <xyzModem_stream_open+0x27c>
    29b4:	e59f20bc 	ldr	r2, [pc, #188]	; 2a78 <xyzModem_stream_open+0x334>
    29b8:	e3a03000 	mov	r3, #0
    29bc:	e5823428 	str	r3, [r2, #1064]	; 0x428
    29c0:	e3a00a7a 	mov	r0, #499712	; 0x7a000
    29c4:	e2800e12 	add	r0, r0, #288	; 0x120
    29c8:	ebffff4f 	bl	270c <__call_vv_CYGNUM_CALL_IF_DELAY_US>
    29cc:	e59f30a4 	ldr	r3, [pc, #164]	; 2a78 <xyzModem_stream_open+0x334>
    29d0:	e5933000 	ldr	r3, [r3]
    29d4:	e50b3034 	str	r3, [fp, #-52]	; 0xffffffcc
    29d8:	e59f3098 	ldr	r3, [pc, #152]	; 2a78 <xyzModem_stream_open+0x334>
    29dc:	e5933428 	ldr	r3, [r3, #1064]	; 0x428
    29e0:	e3530000 	cmp	r3, #0
    29e4:	0a000002 	beq	29f4 <xyzModem_stream_open+0x2b0>
    29e8:	e3a03043 	mov	r3, #67	; 0x43
    29ec:	e50b3030 	str	r3, [fp, #-48]	; 0xffffffd0
    29f0:	ea000001 	b	29fc <xyzModem_stream_open+0x2b8>
    29f4:	e3a03015 	mov	r3, #21
    29f8:	e50b3030 	str	r3, [fp, #-48]	; 0xffffffd0
    29fc:	e51b0034 	ldr	r0, [fp, #-52]	; 0xffffffcc
    2a00:	e51b1030 	ldr	r1, [fp, #-48]	; 0xffffffd0
    2a04:	ebffff2a 	bl	26b4 <__call_COMM_IF_PUTC>
    2a08:	e59f3068 	ldr	r3, [pc, #104]	; 2a78 <xyzModem_stream_open+0x334>
    2a0c:	e5933418 	ldr	r3, [r3, #1048]	; 0x418
    2a10:	e2832001 	add	r2, r3, #1
    2a14:	e59f305c 	ldr	r3, [pc, #92]	; 2a78 <xyzModem_stream_open+0x334>
    2a18:	e5832418 	str	r2, [r3, #1048]	; 0x418
    2a1c:	e51b301c 	ldr	r3, [fp, #-28]	; 0xffffffe4
    2a20:	e3730005 	cmn	r3, #5
    2a24:	0a000009 	beq	2a50 <xyzModem_stream_open+0x30c>
    2a28:	e51b3018 	ldr	r3, [fp, #-24]	; 0xffffffe8
    2a2c:	e3530000 	cmp	r3, #0
    2a30:	d3a03000 	movle	r3, #0
    2a34:	c3a03001 	movgt	r3, #1
    2a38:	e20320ff 	and	r2, r3, #255	; 0xff
    2a3c:	e51b3018 	ldr	r3, [fp, #-24]	; 0xffffffe8
    2a40:	e2433001 	sub	r3, r3, #1
    2a44:	e50b3018 	str	r3, [fp, #-24]	; 0xffffffe8
    2a48:	e3520000 	cmp	r2, #0
    2a4c:	1affffa6 	bne	28ec <xyzModem_stream_open+0x1a8>
    2a50:	e51b202c 	ldr	r2, [fp, #-44]	; 0xffffffd4
    2a54:	e51b301c 	ldr	r3, [fp, #-28]	; 0xffffffe4
    2a58:	e5823000 	str	r3, [r2]
    2a5c:	e3e03000 	mvn	r3, #0
    2a60:	e50b3038 	str	r3, [fp, #-56]	; 0xffffffc8
    2a64:	e51b3038 	ldr	r3, [fp, #-56]	; 0xffffffc8
    2a68:	e1a00003 	mov	r0, r3
    2a6c:	e24bd00c 	sub	sp, fp, #12
    2a70:	e89d6800 	ldm	sp, {fp, sp, lr}
    2a74:	e12fff1e 	bx	lr
    2a78:	81002640 	.word	0x81002640
    2a7c:	81002a74 	.word	0x81002a74
    2a80:	000150d4 	.word	0x000150d4

00002a84 <__call_vv_CYGNUM_CALL_IF_CONSOLE_PROCS>:
    2a84:	e1a0c00d 	mov	ip, sp
    2a88:	e92dd800 	push	{fp, ip, lr, pc}
    2a8c:	e24cb004 	sub	fp, ip, #4
    2a90:	e59f3010 	ldr	r3, [pc, #16]	; 2aa8 <__call_vv_CYGNUM_CALL_IF_CONSOLE_PROCS+0x24>
    2a94:	e5933014 	ldr	r3, [r3, #20]
    2a98:	e1a00003 	mov	r0, r3
    2a9c:	e24bd00c 	sub	sp, fp, #12
    2aa0:	e89d6800 	ldm	sp, {fp, sp, lr}
    2aa4:	e12fff1e 	bx	lr
    2aa8:	40000050 	.word	0x40000050

00002aac <__call_vv_CYGNUM_CALL_IF_SET_CONSOLE_COMM>:
    2aac:	e1a0c00d 	mov	ip, sp
    2ab0:	e92dd800 	push	{fp, ip, lr, pc}
    2ab4:	e24cb004 	sub	fp, ip, #4
    2ab8:	e24dd010 	sub	sp, sp, #16
    2abc:	e50b0018 	str	r0, [fp, #-24]	; 0xffffffe8
    2ac0:	e59f3028 	ldr	r3, [pc, #40]	; 2af0 <__call_vv_CYGNUM_CALL_IF_SET_CONSOLE_COMM+0x44>
    2ac4:	e5933034 	ldr	r3, [r3, #52]	; 0x34
    2ac8:	e51b0018 	ldr	r0, [fp, #-24]	; 0xffffffe8
    2acc:	e1a0e00f 	mov	lr, pc
    2ad0:	e12fff13 	bx	r3
    2ad4:	e1a03000 	mov	r3, r0
    2ad8:	e50b3010 	str	r3, [fp, #-16]
    2adc:	e51b3010 	ldr	r3, [fp, #-16]
    2ae0:	e1a00003 	mov	r0, r3
    2ae4:	e24bd00c 	sub	sp, fp, #12
    2ae8:	e89d6800 	ldm	sp, {fp, sp, lr}
    2aec:	e12fff1e 	bx	lr
    2af0:	40000050 	.word	0x40000050

00002af4 <xyzModem_stream_read>:
    2af4:	e1a0c00d 	mov	ip, sp
    2af8:	e92dd800 	push	{fp, ip, lr, pc}
    2afc:	e24cb004 	sub	fp, ip, #4
    2b00:	e24dd030 	sub	sp, sp, #48	; 0x30
    2b04:	e50b0020 	str	r0, [fp, #-32]	; 0xffffffe0
    2b08:	e50b1024 	str	r1, [fp, #-36]	; 0xffffffdc
    2b0c:	e50b2028 	str	r2, [fp, #-40]	; 0xffffffd8
    2b10:	e3a03000 	mov	r3, #0
    2b14:	e50b3018 	str	r3, [fp, #-24]	; 0xffffffe8
    2b18:	e3e03004 	mvn	r3, #4
    2b1c:	e50b301c 	str	r3, [fp, #-28]	; 0xffffffe4
    2b20:	ea000108 	b	2f48 <xyzModem_stream_read+0x454>
    2b24:	e59f3454 	ldr	r3, [pc, #1108]	; 2f80 <xyzModem_stream_read+0x48c>
    2b28:	e5933410 	ldr	r3, [r3, #1040]	; 0x410
    2b2c:	e3530000 	cmp	r3, #0
    2b30:	1a0000d9 	bne	2e9c <xyzModem_stream_read+0x3a8>
    2b34:	e3a03014 	mov	r3, #20
    2b38:	e50b3010 	str	r3, [fp, #-16]
    2b3c:	ea0000c0 	b	2e44 <xyzModem_stream_read+0x350>
    2b40:	ebfffdad 	bl	21fc <xyzModem_get_hdr>
    2b44:	e1a03000 	mov	r3, r0
    2b48:	e50b301c 	str	r3, [fp, #-28]	; 0xffffffe4
    2b4c:	e51b301c 	ldr	r3, [fp, #-28]	; 0xffffffe4
    2b50:	e3530000 	cmp	r3, #0
    2b54:	1a000077 	bne	2d38 <xyzModem_stream_read+0x244>
    2b58:	e59f3420 	ldr	r3, [pc, #1056]	; 2f80 <xyzModem_stream_read+0x48c>
    2b5c:	e5d32408 	ldrb	r2, [r3, #1032]	; 0x408
    2b60:	e59f3418 	ldr	r3, [pc, #1048]	; 2f80 <xyzModem_stream_read+0x48c>
    2b64:	e5d3340c 	ldrb	r3, [r3, #1036]	; 0x40c
    2b68:	e1520003 	cmp	r2, r3
    2b6c:	1a000060 	bne	2cf4 <xyzModem_stream_read+0x200>
    2b70:	e59f2408 	ldr	r2, [pc, #1032]	; 2f80 <xyzModem_stream_read+0x48c>
    2b74:	e3a03001 	mov	r3, #1
    2b78:	e5823430 	str	r3, [r2, #1072]	; 0x430
    2b7c:	e59f33fc 	ldr	r3, [pc, #1020]	; 2f80 <xyzModem_stream_read+0x48c>
    2b80:	e5d3340c 	ldrb	r3, [r3, #1036]	; 0x40c
    2b84:	e2833001 	add	r3, r3, #1
    2b88:	e20330ff 	and	r3, r3, #255	; 0xff
    2b8c:	e59f23ec 	ldr	r2, [pc, #1004]	; 2f80 <xyzModem_stream_read+0x48c>
    2b90:	e5c2340c 	strb	r3, [r2, #1036]	; 0x40c
    2b94:	e59f33e4 	ldr	r3, [pc, #996]	; 2f80 <xyzModem_stream_read+0x48c>
    2b98:	e5933414 	ldr	r3, [r3, #1044]	; 0x414
    2b9c:	e3530001 	cmp	r3, #1
    2ba0:	0a000003 	beq	2bb4 <xyzModem_stream_read+0xc0>
    2ba4:	e59f33d4 	ldr	r3, [pc, #980]	; 2f80 <xyzModem_stream_read+0x48c>
    2ba8:	e5933434 	ldr	r3, [r3, #1076]	; 0x434
    2bac:	e3530000 	cmp	r3, #0
    2bb0:	1a00002d 	bne	2c6c <xyzModem_stream_read+0x178>
    2bb4:	e59f33c4 	ldr	r3, [pc, #964]	; 2f80 <xyzModem_stream_read+0x48c>
    2bb8:	e5932404 	ldr	r2, [r3, #1028]	; 0x404
    2bbc:	e59f33bc 	ldr	r3, [pc, #956]	; 2f80 <xyzModem_stream_read+0x48c>
    2bc0:	e5933410 	ldr	r3, [r3, #1040]	; 0x410
    2bc4:	e2433001 	sub	r3, r3, #1
    2bc8:	e0823003 	add	r3, r2, r3
    2bcc:	e5d33000 	ldrb	r3, [r3]
    2bd0:	e353001a 	cmp	r3, #26
    2bd4:	1a000024 	bne	2c6c <xyzModem_stream_read+0x178>
    2bd8:	e59f33a0 	ldr	r3, [pc, #928]	; 2f80 <xyzModem_stream_read+0x48c>
    2bdc:	e5932404 	ldr	r2, [r3, #1028]	; 0x404
    2be0:	e59f3398 	ldr	r3, [pc, #920]	; 2f80 <xyzModem_stream_read+0x48c>
    2be4:	e5933410 	ldr	r3, [r3, #1040]	; 0x410
    2be8:	e2433002 	sub	r3, r3, #2
    2bec:	e0823003 	add	r3, r2, r3
    2bf0:	e5d33000 	ldrb	r3, [r3]
    2bf4:	e353001a 	cmp	r3, #26
    2bf8:	1a00001b 	bne	2c6c <xyzModem_stream_read+0x178>
    2bfc:	e59f337c 	ldr	r3, [pc, #892]	; 2f80 <xyzModem_stream_read+0x48c>
    2c00:	e5932404 	ldr	r2, [r3, #1028]	; 0x404
    2c04:	e59f3374 	ldr	r3, [pc, #884]	; 2f80 <xyzModem_stream_read+0x48c>
    2c08:	e5933410 	ldr	r3, [r3, #1040]	; 0x410
    2c0c:	e2433003 	sub	r3, r3, #3
    2c10:	e0823003 	add	r3, r2, r3
    2c14:	e5d33000 	ldrb	r3, [r3]
    2c18:	e353001a 	cmp	r3, #26
    2c1c:	1a000012 	bne	2c6c <xyzModem_stream_read+0x178>
    2c20:	ea000004 	b	2c38 <xyzModem_stream_read+0x144>
    2c24:	e59f3354 	ldr	r3, [pc, #852]	; 2f80 <xyzModem_stream_read+0x48c>
    2c28:	e5933410 	ldr	r3, [r3, #1040]	; 0x410
    2c2c:	e2432001 	sub	r2, r3, #1
    2c30:	e59f3348 	ldr	r3, [pc, #840]	; 2f80 <xyzModem_stream_read+0x48c>
    2c34:	e5832410 	str	r2, [r3, #1040]	; 0x410
    2c38:	e59f3340 	ldr	r3, [pc, #832]	; 2f80 <xyzModem_stream_read+0x48c>
    2c3c:	e5933410 	ldr	r3, [r3, #1040]	; 0x410
    2c40:	e3530000 	cmp	r3, #0
    2c44:	0a000008 	beq	2c6c <xyzModem_stream_read+0x178>
    2c48:	e59f3330 	ldr	r3, [pc, #816]	; 2f80 <xyzModem_stream_read+0x48c>
    2c4c:	e5932404 	ldr	r2, [r3, #1028]	; 0x404
    2c50:	e59f3328 	ldr	r3, [pc, #808]	; 2f80 <xyzModem_stream_read+0x48c>
    2c54:	e5933410 	ldr	r3, [r3, #1040]	; 0x410
    2c58:	e2433001 	sub	r3, r3, #1
    2c5c:	e0823003 	add	r3, r2, r3
    2c60:	e5d33000 	ldrb	r3, [r3]
    2c64:	e353001a 	cmp	r3, #26
    2c68:	0affffed 	beq	2c24 <xyzModem_stream_read+0x130>
    2c6c:	e59f330c 	ldr	r3, [pc, #780]	; 2f80 <xyzModem_stream_read+0x48c>
    2c70:	e5933414 	ldr	r3, [r3, #1044]	; 0x414
    2c74:	e3530001 	cmp	r3, #1
    2c78:	0a00007b 	beq	2e6c <xyzModem_stream_read+0x378>
    2c7c:	e59f32fc 	ldr	r3, [pc, #764]	; 2f80 <xyzModem_stream_read+0x48c>
    2c80:	e5933434 	ldr	r3, [r3, #1076]	; 0x434
    2c84:	e3530000 	cmp	r3, #0
    2c88:	0a000077 	beq	2e6c <xyzModem_stream_read+0x378>
    2c8c:	e59f32ec 	ldr	r3, [pc, #748]	; 2f80 <xyzModem_stream_read+0x48c>
    2c90:	e5932438 	ldr	r2, [r3, #1080]	; 0x438
    2c94:	e59f32e4 	ldr	r3, [pc, #740]	; 2f80 <xyzModem_stream_read+0x48c>
    2c98:	e5933410 	ldr	r3, [r3, #1040]	; 0x410
    2c9c:	e0822003 	add	r2, r2, r3
    2ca0:	e59f32d8 	ldr	r3, [pc, #728]	; 2f80 <xyzModem_stream_read+0x48c>
    2ca4:	e5832438 	str	r2, [r3, #1080]	; 0x438
    2ca8:	e59f32d0 	ldr	r3, [pc, #720]	; 2f80 <xyzModem_stream_read+0x48c>
    2cac:	e5932438 	ldr	r2, [r3, #1080]	; 0x438
    2cb0:	e59f32c8 	ldr	r3, [pc, #712]	; 2f80 <xyzModem_stream_read+0x48c>
    2cb4:	e5933434 	ldr	r3, [r3, #1076]	; 0x434
    2cb8:	e1520003 	cmp	r2, r3
    2cbc:	9a00006a 	bls	2e6c <xyzModem_stream_read+0x378>
    2cc0:	e59f32b8 	ldr	r3, [pc, #696]	; 2f80 <xyzModem_stream_read+0x48c>
    2cc4:	e5933410 	ldr	r3, [r3, #1040]	; 0x410
    2cc8:	e1a01003 	mov	r1, r3
    2ccc:	e59f32ac 	ldr	r3, [pc, #684]	; 2f80 <xyzModem_stream_read+0x48c>
    2cd0:	e5932434 	ldr	r2, [r3, #1076]	; 0x434
    2cd4:	e59f32a4 	ldr	r3, [pc, #676]	; 2f80 <xyzModem_stream_read+0x48c>
    2cd8:	e5933438 	ldr	r3, [r3, #1080]	; 0x438
    2cdc:	e0633002 	rsb	r3, r3, r2
    2ce0:	e0813003 	add	r3, r1, r3
    2ce4:	e1a02003 	mov	r2, r3
    2ce8:	e59f3290 	ldr	r3, [pc, #656]	; 2f80 <xyzModem_stream_read+0x48c>
    2cec:	e5832410 	str	r2, [r3, #1040]	; 0x410
    2cf0:	ea00005d 	b	2e6c <xyzModem_stream_read+0x378>
    2cf4:	e59f3284 	ldr	r3, [pc, #644]	; 2f80 <xyzModem_stream_read+0x48c>
    2cf8:	e5d33408 	ldrb	r3, [r3, #1032]	; 0x408
    2cfc:	e1a02003 	mov	r2, r3
    2d00:	e59f3278 	ldr	r3, [pc, #632]	; 2f80 <xyzModem_stream_read+0x48c>
    2d04:	e5d3340c 	ldrb	r3, [r3, #1036]	; 0x40c
    2d08:	e2433001 	sub	r3, r3, #1
    2d0c:	e20330ff 	and	r3, r3, #255	; 0xff
    2d10:	e1520003 	cmp	r2, r3
    2d14:	1a000005 	bne	2d30 <xyzModem_stream_read+0x23c>
    2d18:	e59f3260 	ldr	r3, [pc, #608]	; 2f80 <xyzModem_stream_read+0x48c>
    2d1c:	e5933000 	ldr	r3, [r3]
    2d20:	e1a00003 	mov	r0, r3
    2d24:	e3a01006 	mov	r1, #6
    2d28:	ebfffe61 	bl	26b4 <__call_COMM_IF_PUTC>
    2d2c:	ea000044 	b	2e44 <xyzModem_stream_read+0x350>
    2d30:	e3e03007 	mvn	r3, #7
    2d34:	e50b301c 	str	r3, [fp, #-28]	; 0xffffffe4
    2d38:	e51b301c 	ldr	r3, [fp, #-28]	; 0xffffffe4
    2d3c:	e3730005 	cmn	r3, #5
    2d40:	0a000049 	beq	2e6c <xyzModem_stream_read+0x378>
    2d44:	e51b301c 	ldr	r3, [fp, #-28]	; 0xffffffe4
    2d48:	e3730004 	cmn	r3, #4
    2d4c:	1a000028 	bne	2df4 <xyzModem_stream_read+0x300>
    2d50:	e59f3228 	ldr	r3, [pc, #552]	; 2f80 <xyzModem_stream_read+0x48c>
    2d54:	e5933000 	ldr	r3, [r3]
    2d58:	e1a00003 	mov	r0, r3
    2d5c:	e3a01006 	mov	r1, #6
    2d60:	ebfffe53 	bl	26b4 <__call_COMM_IF_PUTC>
    2d64:	e59f3214 	ldr	r3, [pc, #532]	; 2f80 <xyzModem_stream_read+0x48c>
    2d68:	e5933414 	ldr	r3, [r3, #1044]	; 0x414
    2d6c:	e3530002 	cmp	r3, #2
    2d70:	1a00001b 	bne	2de4 <xyzModem_stream_read+0x2f0>
    2d74:	e59f3204 	ldr	r3, [pc, #516]	; 2f80 <xyzModem_stream_read+0x48c>
    2d78:	e5933000 	ldr	r3, [r3]
    2d7c:	e50b303c 	str	r3, [fp, #-60]	; 0xffffffc4
    2d80:	e59f31f8 	ldr	r3, [pc, #504]	; 2f80 <xyzModem_stream_read+0x48c>
    2d84:	e5933428 	ldr	r3, [r3, #1064]	; 0x428
    2d88:	e3530000 	cmp	r3, #0
    2d8c:	0a000002 	beq	2d9c <xyzModem_stream_read+0x2a8>
    2d90:	e3a03043 	mov	r3, #67	; 0x43
    2d94:	e50b3038 	str	r3, [fp, #-56]	; 0xffffffc8
    2d98:	ea000001 	b	2da4 <xyzModem_stream_read+0x2b0>
    2d9c:	e3a03015 	mov	r3, #21
    2da0:	e50b3038 	str	r3, [fp, #-56]	; 0xffffffc8
    2da4:	e51b003c 	ldr	r0, [fp, #-60]	; 0xffffffc4
    2da8:	e51b1038 	ldr	r1, [fp, #-56]	; 0xffffffc8
    2dac:	ebfffe40 	bl	26b4 <__call_COMM_IF_PUTC>
    2db0:	e59f31c8 	ldr	r3, [pc, #456]	; 2f80 <xyzModem_stream_read+0x48c>
    2db4:	e5933418 	ldr	r3, [r3, #1048]	; 0x418
    2db8:	e2832001 	add	r2, r3, #1
    2dbc:	e59f31bc 	ldr	r3, [pc, #444]	; 2f80 <xyzModem_stream_read+0x48c>
    2dc0:	e5832418 	str	r2, [r3, #1048]	; 0x418
    2dc4:	ebfffd0c 	bl	21fc <xyzModem_get_hdr>
    2dc8:	e1a03000 	mov	r3, r0
    2dcc:	e50b301c 	str	r3, [fp, #-28]	; 0xffffffe4
    2dd0:	e59f31a8 	ldr	r3, [pc, #424]	; 2f80 <xyzModem_stream_read+0x48c>
    2dd4:	e5933000 	ldr	r3, [r3]
    2dd8:	e1a00003 	mov	r0, r3
    2ddc:	e3a01006 	mov	r1, #6
    2de0:	ebfffe33 	bl	26b4 <__call_COMM_IF_PUTC>
    2de4:	e59f2194 	ldr	r2, [pc, #404]	; 2f80 <xyzModem_stream_read+0x48c>
    2de8:	e3a03001 	mov	r3, #1
    2dec:	e582342c 	str	r3, [r2, #1068]	; 0x42c
    2df0:	ea00001d 	b	2e6c <xyzModem_stream_read+0x378>
    2df4:	e59f3184 	ldr	r3, [pc, #388]	; 2f80 <xyzModem_stream_read+0x48c>
    2df8:	e5933000 	ldr	r3, [r3]
    2dfc:	e50b3034 	str	r3, [fp, #-52]	; 0xffffffcc
    2e00:	e59f3178 	ldr	r3, [pc, #376]	; 2f80 <xyzModem_stream_read+0x48c>
    2e04:	e5933428 	ldr	r3, [r3, #1064]	; 0x428
    2e08:	e3530000 	cmp	r3, #0
    2e0c:	0a000002 	beq	2e1c <xyzModem_stream_read+0x328>
    2e10:	e3a03043 	mov	r3, #67	; 0x43
    2e14:	e50b3030 	str	r3, [fp, #-48]	; 0xffffffd0
    2e18:	ea000001 	b	2e24 <xyzModem_stream_read+0x330>
    2e1c:	e3a03015 	mov	r3, #21
    2e20:	e50b3030 	str	r3, [fp, #-48]	; 0xffffffd0
    2e24:	e51b0034 	ldr	r0, [fp, #-52]	; 0xffffffcc
    2e28:	e51b1030 	ldr	r1, [fp, #-48]	; 0xffffffd0
    2e2c:	ebfffe20 	bl	26b4 <__call_COMM_IF_PUTC>
    2e30:	e59f3148 	ldr	r3, [pc, #328]	; 2f80 <xyzModem_stream_read+0x48c>
    2e34:	e5933418 	ldr	r3, [r3, #1048]	; 0x418
    2e38:	e2832001 	add	r2, r3, #1
    2e3c:	e59f313c 	ldr	r3, [pc, #316]	; 2f80 <xyzModem_stream_read+0x48c>
    2e40:	e5832418 	str	r2, [r3, #1048]	; 0x418
    2e44:	e51b3010 	ldr	r3, [fp, #-16]
    2e48:	e3530000 	cmp	r3, #0
    2e4c:	d3a03000 	movle	r3, #0
    2e50:	c3a03001 	movgt	r3, #1
    2e54:	e20320ff 	and	r2, r3, #255	; 0xff
    2e58:	e51b3010 	ldr	r3, [fp, #-16]
    2e5c:	e2433001 	sub	r3, r3, #1
    2e60:	e50b3010 	str	r3, [fp, #-16]
    2e64:	e3520000 	cmp	r2, #0
    2e68:	1affff34 	bne	2b40 <xyzModem_stream_read+0x4c>
    2e6c:	e51b301c 	ldr	r3, [fp, #-28]	; 0xffffffe4
    2e70:	e3530000 	cmp	r3, #0
    2e74:	aa000008 	bge	2e9c <xyzModem_stream_read+0x3a8>
    2e78:	e51b2028 	ldr	r2, [fp, #-40]	; 0xffffffd8
    2e7c:	e51b301c 	ldr	r3, [fp, #-28]	; 0xffffffe4
    2e80:	e5823000 	str	r3, [r2]
    2e84:	e59f20f4 	ldr	r2, [pc, #244]	; 2f80 <xyzModem_stream_read+0x48c>
    2e88:	e3e03000 	mvn	r3, #0
    2e8c:	e5823410 	str	r3, [r2, #1040]	; 0x410
    2e90:	e51b3018 	ldr	r3, [fp, #-24]	; 0xffffffe8
    2e94:	e50b302c 	str	r3, [fp, #-44]	; 0xffffffd4
    2e98:	ea000033 	b	2f6c <xyzModem_stream_read+0x478>
    2e9c:	e59f30dc 	ldr	r3, [pc, #220]	; 2f80 <xyzModem_stream_read+0x48c>
    2ea0:	e593342c 	ldr	r3, [r3, #1068]	; 0x42c
    2ea4:	e3530000 	cmp	r3, #0
    2ea8:	1a000026 	bne	2f48 <xyzModem_stream_read+0x454>
    2eac:	e59f30cc 	ldr	r3, [pc, #204]	; 2f80 <xyzModem_stream_read+0x48c>
    2eb0:	e5933410 	ldr	r3, [r3, #1040]	; 0x410
    2eb4:	e50b3014 	str	r3, [fp, #-20]	; 0xffffffec
    2eb8:	e51b2024 	ldr	r2, [fp, #-36]	; 0xffffffdc
    2ebc:	e51b3014 	ldr	r3, [fp, #-20]	; 0xffffffec
    2ec0:	e1520003 	cmp	r2, r3
    2ec4:	aa000001 	bge	2ed0 <xyzModem_stream_read+0x3dc>
    2ec8:	e51b3024 	ldr	r3, [fp, #-36]	; 0xffffffdc
    2ecc:	e50b3014 	str	r3, [fp, #-20]	; 0xffffffec
    2ed0:	e59f30a8 	ldr	r3, [pc, #168]	; 2f80 <xyzModem_stream_read+0x48c>
    2ed4:	e5933404 	ldr	r3, [r3, #1028]	; 0x404
    2ed8:	e51b2014 	ldr	r2, [fp, #-20]	; 0xffffffec
    2edc:	e51b0020 	ldr	r0, [fp, #-32]	; 0xffffffe0
    2ee0:	e1a01003 	mov	r1, r3
    2ee4:	eb0028a0 	bl	d16c <_memcpy>
    2ee8:	e51b2024 	ldr	r2, [fp, #-36]	; 0xffffffdc
    2eec:	e51b3014 	ldr	r3, [fp, #-20]	; 0xffffffec
    2ef0:	e0633002 	rsb	r3, r3, r2
    2ef4:	e50b3024 	str	r3, [fp, #-36]	; 0xffffffdc
    2ef8:	e51b2014 	ldr	r2, [fp, #-20]	; 0xffffffec
    2efc:	e51b3020 	ldr	r3, [fp, #-32]	; 0xffffffe0
    2f00:	e0833002 	add	r3, r3, r2
    2f04:	e50b3020 	str	r3, [fp, #-32]	; 0xffffffe0
    2f08:	e51b2018 	ldr	r2, [fp, #-24]	; 0xffffffe8
    2f0c:	e51b3014 	ldr	r3, [fp, #-20]	; 0xffffffec
    2f10:	e0823003 	add	r3, r2, r3
    2f14:	e50b3018 	str	r3, [fp, #-24]	; 0xffffffe8
    2f18:	e59f3060 	ldr	r3, [pc, #96]	; 2f80 <xyzModem_stream_read+0x48c>
    2f1c:	e5932410 	ldr	r2, [r3, #1040]	; 0x410
    2f20:	e51b3014 	ldr	r3, [fp, #-20]	; 0xffffffec
    2f24:	e0632002 	rsb	r2, r3, r2
    2f28:	e59f3050 	ldr	r3, [pc, #80]	; 2f80 <xyzModem_stream_read+0x48c>
    2f2c:	e5832410 	str	r2, [r3, #1040]	; 0x410
    2f30:	e59f3048 	ldr	r3, [pc, #72]	; 2f80 <xyzModem_stream_read+0x48c>
    2f34:	e5932404 	ldr	r2, [r3, #1028]	; 0x404
    2f38:	e51b3014 	ldr	r3, [fp, #-20]	; 0xffffffec
    2f3c:	e0822003 	add	r2, r2, r3
    2f40:	e59f3038 	ldr	r3, [pc, #56]	; 2f80 <xyzModem_stream_read+0x48c>
    2f44:	e5832404 	str	r2, [r3, #1028]	; 0x404
    2f48:	e59f3030 	ldr	r3, [pc, #48]	; 2f80 <xyzModem_stream_read+0x48c>
    2f4c:	e593342c 	ldr	r3, [r3, #1068]	; 0x42c
    2f50:	e3530000 	cmp	r3, #0
    2f54:	1a000002 	bne	2f64 <xyzModem_stream_read+0x470>
    2f58:	e51b3024 	ldr	r3, [fp, #-36]	; 0xffffffdc
    2f5c:	e3530000 	cmp	r3, #0
    2f60:	cafffeef 	bgt	2b24 <xyzModem_stream_read+0x30>
    2f64:	e51b3018 	ldr	r3, [fp, #-24]	; 0xffffffe8
    2f68:	e50b302c 	str	r3, [fp, #-44]	; 0xffffffd4
    2f6c:	e51b302c 	ldr	r3, [fp, #-44]	; 0xffffffd4
    2f70:	e1a00003 	mov	r0, r3
    2f74:	e24bd00c 	sub	sp, fp, #12
    2f78:	e89d6800 	ldm	sp, {fp, sp, lr}
    2f7c:	e12fff1e 	bx	lr
    2f80:	81002640 	.word	0x81002640

00002f84 <xyzModem_stream_close>:
    2f84:	e1a0c00d 	mov	ip, sp
    2f88:	e92dd800 	push	{fp, ip, lr, pc}
    2f8c:	e24cb004 	sub	fp, ip, #4
    2f90:	e24dd010 	sub	sp, sp, #16
    2f94:	e50b0010 	str	r0, [fp, #-16]
    2f98:	e59f3064 	ldr	r3, [pc, #100]	; 3004 <xyzModem_stream_close+0x80>
    2f9c:	e5933428 	ldr	r3, [r3, #1064]	; 0x428
    2fa0:	e3530000 	cmp	r3, #0
    2fa4:	0a000002 	beq	2fb4 <xyzModem_stream_close+0x30>
    2fa8:	e59f3058 	ldr	r3, [pc, #88]	; 3008 <xyzModem_stream_close+0x84>
    2fac:	e50b3014 	str	r3, [fp, #-20]	; 0xffffffec
    2fb0:	ea000001 	b	2fbc <xyzModem_stream_close+0x38>
    2fb4:	e59f3050 	ldr	r3, [pc, #80]	; 300c <xyzModem_stream_close+0x88>
    2fb8:	e50b3014 	str	r3, [fp, #-20]	; 0xffffffec
    2fbc:	e59f3040 	ldr	r3, [pc, #64]	; 3004 <xyzModem_stream_close+0x80>
    2fc0:	e593e41c 	ldr	lr, [r3, #1052]	; 0x41c
    2fc4:	e59f3038 	ldr	r3, [pc, #56]	; 3004 <xyzModem_stream_close+0x80>
    2fc8:	e593c420 	ldr	ip, [r3, #1056]	; 0x420
    2fcc:	e59f3030 	ldr	r3, [pc, #48]	; 3004 <xyzModem_stream_close+0x80>
    2fd0:	e5932424 	ldr	r2, [r3, #1060]	; 0x424
    2fd4:	e59f3028 	ldr	r3, [pc, #40]	; 3004 <xyzModem_stream_close+0x80>
    2fd8:	e5933418 	ldr	r3, [r3, #1048]	; 0x418
    2fdc:	e58d2000 	str	r2, [sp]
    2fe0:	e58d3004 	str	r3, [sp, #4]
    2fe4:	e59f0024 	ldr	r0, [pc, #36]	; 3010 <xyzModem_stream_close+0x8c>
    2fe8:	e51b1014 	ldr	r1, [fp, #-20]	; 0xffffffec
    2fec:	e1a0200e 	mov	r2, lr
    2ff0:	e1a0300c 	mov	r3, ip
    2ff4:	eb002760 	bl	cd7c <diag_printf>
    2ff8:	e24bd00c 	sub	sp, fp, #12
    2ffc:	e89d6800 	ldm	sp, {fp, sp, lr}
    3000:	e12fff1e 	bx	lr
    3004:	81002640 	.word	0x81002640
    3008:	000150d8 	.word	0x000150d8
    300c:	000150dc 	.word	0x000150dc
    3010:	000150e4 	.word	0x000150e4

00003014 <xyzModem_stream_terminate>:
    3014:	e1a0c00d 	mov	ip, sp
    3018:	e92dd800 	push	{fp, ip, lr, pc}
    301c:	e24cb004 	sub	fp, ip, #4
    3020:	e24dd010 	sub	sp, sp, #16
    3024:	e50b0018 	str	r0, [fp, #-24]	; 0xffffffe8
    3028:	e50b101c 	str	r1, [fp, #-28]	; 0xffffffe4
    302c:	e51b3018 	ldr	r3, [fp, #-24]	; 0xffffffe8
    3030:	e3530000 	cmp	r3, #0
    3034:	0a000031 	beq	3100 <xyzModem_stream_terminate+0xec>
    3038:	e59f30f8 	ldr	r3, [pc, #248]	; 3138 <xyzModem_stream_terminate+0x124>
    303c:	e5933414 	ldr	r3, [r3, #1044]	; 0x414
    3040:	e2433001 	sub	r3, r3, #1
    3044:	e3530001 	cmp	r3, #1
    3048:	8a000037 	bhi	312c <xyzModem_stream_terminate+0x118>
    304c:	e59f30e4 	ldr	r3, [pc, #228]	; 3138 <xyzModem_stream_terminate+0x124>
    3050:	e5933000 	ldr	r3, [r3]
    3054:	e1a00003 	mov	r0, r3
    3058:	e3a01018 	mov	r1, #24
    305c:	ebfffd94 	bl	26b4 <__call_COMM_IF_PUTC>
    3060:	e59f30d0 	ldr	r3, [pc, #208]	; 3138 <xyzModem_stream_terminate+0x124>
    3064:	e5933000 	ldr	r3, [r3]
    3068:	e1a00003 	mov	r0, r3
    306c:	e3a01018 	mov	r1, #24
    3070:	ebfffd8f 	bl	26b4 <__call_COMM_IF_PUTC>
    3074:	e59f30bc 	ldr	r3, [pc, #188]	; 3138 <xyzModem_stream_terminate+0x124>
    3078:	e5933000 	ldr	r3, [r3]
    307c:	e1a00003 	mov	r0, r3
    3080:	e3a01018 	mov	r1, #24
    3084:	ebfffd8a 	bl	26b4 <__call_COMM_IF_PUTC>
    3088:	e59f30a8 	ldr	r3, [pc, #168]	; 3138 <xyzModem_stream_terminate+0x124>
    308c:	e5933000 	ldr	r3, [r3]
    3090:	e1a00003 	mov	r0, r3
    3094:	e3a01018 	mov	r1, #24
    3098:	ebfffd85 	bl	26b4 <__call_COMM_IF_PUTC>
    309c:	e59f3094 	ldr	r3, [pc, #148]	; 3138 <xyzModem_stream_terminate+0x124>
    30a0:	e5933000 	ldr	r3, [r3]
    30a4:	e1a00003 	mov	r0, r3
    30a8:	e3a01008 	mov	r1, #8
    30ac:	ebfffd80 	bl	26b4 <__call_COMM_IF_PUTC>
    30b0:	e59f3080 	ldr	r3, [pc, #128]	; 3138 <xyzModem_stream_terminate+0x124>
    30b4:	e5933000 	ldr	r3, [r3]
    30b8:	e1a00003 	mov	r0, r3
    30bc:	e3a01008 	mov	r1, #8
    30c0:	ebfffd7b 	bl	26b4 <__call_COMM_IF_PUTC>
    30c4:	e59f306c 	ldr	r3, [pc, #108]	; 3138 <xyzModem_stream_terminate+0x124>
    30c8:	e5933000 	ldr	r3, [r3]
    30cc:	e1a00003 	mov	r0, r3
    30d0:	e3a01008 	mov	r1, #8
    30d4:	ebfffd76 	bl	26b4 <__call_COMM_IF_PUTC>
    30d8:	e59f3058 	ldr	r3, [pc, #88]	; 3138 <xyzModem_stream_terminate+0x124>
    30dc:	e5933000 	ldr	r3, [r3]
    30e0:	e1a00003 	mov	r0, r3
    30e4:	e3a01008 	mov	r1, #8
    30e8:	ebfffd71 	bl	26b4 <__call_COMM_IF_PUTC>
    30ec:	ebfffc18 	bl	2154 <xyzModem_flush>
    30f0:	e59f2040 	ldr	r2, [pc, #64]	; 3138 <xyzModem_stream_terminate+0x124>
    30f4:	e3a03001 	mov	r3, #1
    30f8:	e582342c 	str	r3, [r2, #1068]	; 0x42c
    30fc:	ea00000a 	b	312c <xyzModem_stream_terminate+0x118>
    3100:	e51b301c 	ldr	r3, [fp, #-28]	; 0xffffffe4
    3104:	e1a0e00f 	mov	lr, pc
    3108:	e12fff13 	bx	r3
    310c:	e1a03000 	mov	r3, r0
    3110:	e50b3010 	str	r3, [fp, #-16]
    3114:	e51b3010 	ldr	r3, [fp, #-16]
    3118:	e3530000 	cmp	r3, #0
    311c:	aafffff7 	bge	3100 <xyzModem_stream_terminate+0xec>
    3120:	e3a00a3d 	mov	r0, #249856	; 0x3d000
    3124:	e2800090 	add	r0, r0, #144	; 0x90
    3128:	ebfffd77 	bl	270c <__call_vv_CYGNUM_CALL_IF_DELAY_US>
    312c:	e24bd00c 	sub	sp, fp, #12
    3130:	e89d6800 	ldm	sp, {fp, sp, lr}
    3134:	e12fff1e 	bx	lr
    3138:	81002640 	.word	0x81002640

0000313c <xyzModem_error>:
    313c:	e1a0c00d 	mov	ip, sp
    3140:	e92dd800 	push	{fp, ip, lr, pc}
    3144:	e24cb004 	sub	fp, ip, #4
    3148:	e24dd008 	sub	sp, sp, #8
    314c:	e50b0010 	str	r0, [fp, #-16]
    3150:	e51b3010 	ldr	r3, [fp, #-16]
    3154:	e2833008 	add	r3, r3, #8
    3158:	e3530007 	cmp	r3, #7
    315c:	979ff103 	ldrls	pc, [pc, r3, lsl #2]
    3160:	ea00001f 	b	31e4 <xyzModem_error+0xa8>
    3164:	000031d8 	.word	0x000031d8
    3168:	000031cc 	.word	0x000031cc
    316c:	000031c0 	.word	0x000031c0
    3170:	000031b4 	.word	0x000031b4
    3174:	000031a8 	.word	0x000031a8
    3178:	0000319c 	.word	0x0000319c
    317c:	00003190 	.word	0x00003190
    3180:	00003184 	.word	0x00003184
    3184:	e59f3074 	ldr	r3, [pc, #116]	; 3200 <xyzModem_error+0xc4>
    3188:	e50b3014 	str	r3, [fp, #-20]	; 0xffffffec
    318c:	ea000016 	b	31ec <xyzModem_error+0xb0>
    3190:	e59f306c 	ldr	r3, [pc, #108]	; 3204 <xyzModem_error+0xc8>
    3194:	e50b3014 	str	r3, [fp, #-20]	; 0xffffffec
    3198:	ea000013 	b	31ec <xyzModem_error+0xb0>
    319c:	e59f3064 	ldr	r3, [pc, #100]	; 3208 <xyzModem_error+0xcc>
    31a0:	e50b3014 	str	r3, [fp, #-20]	; 0xffffffec
    31a4:	ea000010 	b	31ec <xyzModem_error+0xb0>
    31a8:	e59f305c 	ldr	r3, [pc, #92]	; 320c <xyzModem_error+0xd0>
    31ac:	e50b3014 	str	r3, [fp, #-20]	; 0xffffffec
    31b0:	ea00000d 	b	31ec <xyzModem_error+0xb0>
    31b4:	e59f3054 	ldr	r3, [pc, #84]	; 3210 <xyzModem_error+0xd4>
    31b8:	e50b3014 	str	r3, [fp, #-20]	; 0xffffffec
    31bc:	ea00000a 	b	31ec <xyzModem_error+0xb0>
    31c0:	e59f304c 	ldr	r3, [pc, #76]	; 3214 <xyzModem_error+0xd8>
    31c4:	e50b3014 	str	r3, [fp, #-20]	; 0xffffffec
    31c8:	ea000007 	b	31ec <xyzModem_error+0xb0>
    31cc:	e59f3044 	ldr	r3, [pc, #68]	; 3218 <xyzModem_error+0xdc>
    31d0:	e50b3014 	str	r3, [fp, #-20]	; 0xffffffec
    31d4:	ea000004 	b	31ec <xyzModem_error+0xb0>
    31d8:	e59f303c 	ldr	r3, [pc, #60]	; 321c <xyzModem_error+0xe0>
    31dc:	e50b3014 	str	r3, [fp, #-20]	; 0xffffffec
    31e0:	ea000001 	b	31ec <xyzModem_error+0xb0>
    31e4:	e59f3034 	ldr	r3, [pc, #52]	; 3220 <xyzModem_error+0xe4>
    31e8:	e50b3014 	str	r3, [fp, #-20]	; 0xffffffec
    31ec:	e51b3014 	ldr	r3, [fp, #-20]	; 0xffffffec
    31f0:	e1a00003 	mov	r0, r3
    31f4:	e24bd00c 	sub	sp, fp, #12
    31f8:	e89d6800 	ldm	sp, {fp, sp, lr}
    31fc:	e12fff1e 	bx	lr
    3200:	00015128 	.word	0x00015128
    3204:	0001513c 	.word	0x0001513c
    3208:	0001515c 	.word	0x0001515c
    320c:	00015168 	.word	0x00015168
    3210:	00015174 	.word	0x00015174
    3214:	00015180 	.word	0x00015180
    3218:	00015190 	.word	0x00015190
    321c:	000151a4 	.word	0x000151a4
    3220:	000151bc 	.word	0x000151bc

00003224 <do_cksum>:
    3224:	e1a0c00d 	mov	ip, sp
    3228:	e92dd800 	push	{fp, ip, lr, pc}
    322c:	e24cb004 	sub	fp, ip, #4
    3230:	e24dd060 	sub	sp, sp, #96	; 0x60
    3234:	e50b0058 	str	r0, [fp, #-88]	; 0xffffffa8
    3238:	e50b105c 	str	r1, [fp, #-92]	; 0xffffffa4
    323c:	e24b2040 	sub	r2, fp, #64	; 0x40
    3240:	e24b3044 	sub	r3, fp, #68	; 0x44
    3244:	e58d3000 	str	r3, [sp]
    3248:	e24b304c 	sub	r3, fp, #76	; 0x4c
    324c:	e58d3004 	str	r3, [sp, #4]
    3250:	e59f318c 	ldr	r3, [pc, #396]	; 33e4 <do_cksum+0x1c0>
    3254:	e58d3008 	str	r3, [sp, #8]
    3258:	e1a00002 	mov	r0, r2
    325c:	e3a01062 	mov	r1, #98	; 0x62
    3260:	e3a02001 	mov	r2, #1
    3264:	e3a03000 	mov	r3, #0
    3268:	eb00356e 	bl	10828 <init_opts>
    326c:	e24b3040 	sub	r3, fp, #64	; 0x40
    3270:	e2832018 	add	r2, r3, #24
    3274:	e24b3048 	sub	r3, fp, #72	; 0x48
    3278:	e58d3000 	str	r3, [sp]
    327c:	e24b3050 	sub	r3, fp, #80	; 0x50
    3280:	e58d3004 	str	r3, [sp, #4]
    3284:	e59f315c 	ldr	r3, [pc, #348]	; 33e8 <do_cksum+0x1c4>
    3288:	e58d3008 	str	r3, [sp, #8]
    328c:	e1a00002 	mov	r0, r2
    3290:	e3a0106c 	mov	r1, #108	; 0x6c
    3294:	e3a02001 	mov	r2, #1
    3298:	e3a03000 	mov	r3, #0
    329c:	eb003561 	bl	10828 <init_opts>
    32a0:	e24bc040 	sub	ip, fp, #64	; 0x40
    32a4:	e3a03002 	mov	r3, #2
    32a8:	e58d3000 	str	r3, [sp]
    32ac:	e3a03000 	mov	r3, #0
    32b0:	e58d3004 	str	r3, [sp, #4]
    32b4:	e3a03000 	mov	r3, #0
    32b8:	e58d3008 	str	r3, [sp, #8]
    32bc:	e59f3128 	ldr	r3, [pc, #296]	; 33ec <do_cksum+0x1c8>
    32c0:	e58d300c 	str	r3, [sp, #12]
    32c4:	e51b0058 	ldr	r0, [fp, #-88]	; 0xffffffa8
    32c8:	e51b105c 	ldr	r1, [fp, #-92]	; 0xffffffa4
    32cc:	e3a02001 	mov	r2, #1
    32d0:	e1a0300c 	mov	r3, ip
    32d4:	eb003571 	bl	108a0 <scan_opts>
    32d8:	e1a03000 	mov	r3, r0
    32dc:	e3530000 	cmp	r3, #0
    32e0:	0a00003c 	beq	33d8 <do_cksum+0x1b4>
    32e4:	e51b304c 	ldr	r3, [fp, #-76]	; 0xffffffb4
    32e8:	e3530000 	cmp	r3, #0
    32ec:	0a000002 	beq	32fc <do_cksum+0xd8>
    32f0:	e51b3050 	ldr	r3, [fp, #-80]	; 0xffffffb0
    32f4:	e3530000 	cmp	r3, #0
    32f8:	1a000027 	bne	339c <do_cksum+0x178>
    32fc:	e59f30ec 	ldr	r3, [pc, #236]	; 33f0 <do_cksum+0x1cc>
    3300:	e5933000 	ldr	r3, [r3]
    3304:	e1a02003 	mov	r2, r3
    3308:	e59f30e4 	ldr	r3, [pc, #228]	; 33f4 <do_cksum+0x1d0>
    330c:	e5933000 	ldr	r3, [r3]
    3310:	e1520003 	cmp	r2, r3
    3314:	8a00001d 	bhi	3390 <do_cksum+0x16c>
    3318:	e59f30d8 	ldr	r3, [pc, #216]	; 33f8 <do_cksum+0x1d4>
    331c:	e5933000 	ldr	r3, [r3]
    3320:	e1a02003 	mov	r2, r3
    3324:	e59f30d0 	ldr	r3, [pc, #208]	; 33fc <do_cksum+0x1d8>
    3328:	e5933000 	ldr	r3, [r3]
    332c:	e1520003 	cmp	r2, r3
    3330:	9a000016 	bls	3390 <do_cksum+0x16c>
    3334:	e59f30b8 	ldr	r3, [pc, #184]	; 33f4 <do_cksum+0x1d0>
    3338:	e5932000 	ldr	r2, [r3]
    333c:	e59f30b8 	ldr	r3, [pc, #184]	; 33fc <do_cksum+0x1d8>
    3340:	e5933000 	ldr	r3, [r3]
    3344:	e1520003 	cmp	r2, r3
    3348:	2a000010 	bcs	3390 <do_cksum+0x16c>
    334c:	e59f30a0 	ldr	r3, [pc, #160]	; 33f4 <do_cksum+0x1d0>
    3350:	e5933000 	ldr	r3, [r3]
    3354:	e50b3044 	str	r3, [fp, #-68]	; 0xffffffbc
    3358:	e59f309c 	ldr	r3, [pc, #156]	; 33fc <do_cksum+0x1d8>
    335c:	e5932000 	ldr	r2, [r3]
    3360:	e59f308c 	ldr	r3, [pc, #140]	; 33f4 <do_cksum+0x1d0>
    3364:	e5933000 	ldr	r3, [r3]
    3368:	e0633002 	rsb	r3, r3, r2
    336c:	e50b3048 	str	r3, [fp, #-72]	; 0xffffffb8
    3370:	e51b2044 	ldr	r2, [fp, #-68]	; 0xffffffbc
    3374:	e59f3080 	ldr	r3, [pc, #128]	; 33fc <do_cksum+0x1d8>
    3378:	e5933000 	ldr	r3, [r3]
    337c:	e59f007c 	ldr	r0, [pc, #124]	; 3400 <do_cksum+0x1dc>
    3380:	e1a01002 	mov	r1, r2
    3384:	e1a02003 	mov	r2, r3
    3388:	eb00267b 	bl	cd7c <diag_printf>
    338c:	ea000002 	b	339c <do_cksum+0x178>
    3390:	e59f006c 	ldr	r0, [pc, #108]	; 3404 <do_cksum+0x1e0>
    3394:	eb002678 	bl	cd7c <diag_printf>
    3398:	ea00000e 	b	33d8 <do_cksum+0x1b4>
    339c:	e51b3044 	ldr	r3, [fp, #-68]	; 0xffffffbc
    33a0:	e1a02003 	mov	r2, r3
    33a4:	e51b3048 	ldr	r3, [fp, #-72]	; 0xffffffb8
    33a8:	e1a00002 	mov	r0, r2
    33ac:	e1a01003 	mov	r1, r3
    33b0:	eb003a4e 	bl	11cf0 <cyg_posix_crc32>
    33b4:	e1a03000 	mov	r3, r0
    33b8:	e50b3010 	str	r3, [fp, #-16]
    33bc:	e51b2048 	ldr	r2, [fp, #-72]	; 0xffffffb8
    33c0:	e51b3048 	ldr	r3, [fp, #-72]	; 0xffffffb8
    33c4:	e58d3000 	str	r3, [sp]
    33c8:	e59f0038 	ldr	r0, [pc, #56]	; 3408 <do_cksum+0x1e4>
    33cc:	e51b1010 	ldr	r1, [fp, #-16]
    33d0:	e51b3010 	ldr	r3, [fp, #-16]
    33d4:	eb002668 	bl	cd7c <diag_printf>
    33d8:	e24bd00c 	sub	sp, fp, #12
    33dc:	e89d6800 	ldm	sp, {fp, sp, lr}
    33e0:	e12fff1e 	bx	lr
    33e4:	00015244 	.word	0x00015244
    33e8:	00015254 	.word	0x00015254
    33ec:	0001525c 	.word	0x0001525c
    33f0:	81005728 	.word	0x81005728
    33f4:	81005748 	.word	0x81005748
    33f8:	810056dc 	.word	0x810056dc
    33fc:	81005720 	.word	0x81005720
    3400:	00015260 	.word	0x00015260
    3404:	00015284 	.word	0x00015284
    3408:	000152a8 	.word	0x000152a8

0000340c <do_mfill>:
    340c:	e1a0c00d 	mov	ip, sp
    3410:	e92dd800 	push	{fp, ip, lr, pc}
    3414:	e24cb004 	sub	fp, ip, #4
    3418:	e24dd0d8 	sub	sp, sp, #216	; 0xd8
    341c:	e50b00d0 	str	r0, [fp, #-208]	; 0xffffff30
    3420:	e50b10d4 	str	r1, [fp, #-212]	; 0xffffff2c
    3424:	e24b20a8 	sub	r2, fp, #168	; 0xa8
    3428:	e24b30ac 	sub	r3, fp, #172	; 0xac
    342c:	e58d3000 	str	r3, [sp]
    3430:	e24b30b8 	sub	r3, fp, #184	; 0xb8
    3434:	e58d3004 	str	r3, [sp, #4]
    3438:	e59f3280 	ldr	r3, [pc, #640]	; 36c0 <do_mfill+0x2b4>
    343c:	e58d3008 	str	r3, [sp, #8]
    3440:	e1a00002 	mov	r0, r2
    3444:	e3a01062 	mov	r1, #98	; 0x62
    3448:	e3a02001 	mov	r2, #1
    344c:	e3a03000 	mov	r3, #0
    3450:	eb0034f4 	bl	10828 <init_opts>
    3454:	e24b30a8 	sub	r3, fp, #168	; 0xa8
    3458:	e2832018 	add	r2, r3, #24
    345c:	e24b30b4 	sub	r3, fp, #180	; 0xb4
    3460:	e58d3000 	str	r3, [sp]
    3464:	e24b30bc 	sub	r3, fp, #188	; 0xbc
    3468:	e58d3004 	str	r3, [sp, #4]
    346c:	e59f3250 	ldr	r3, [pc, #592]	; 36c4 <do_mfill+0x2b8>
    3470:	e58d3008 	str	r3, [sp, #8]
    3474:	e1a00002 	mov	r0, r2
    3478:	e3a0106c 	mov	r1, #108	; 0x6c
    347c:	e3a02001 	mov	r2, #1
    3480:	e3a03000 	mov	r3, #0
    3484:	eb0034e7 	bl	10828 <init_opts>
    3488:	e24b30a8 	sub	r3, fp, #168	; 0xa8
    348c:	e2832030 	add	r2, r3, #48	; 0x30
    3490:	e24b30b0 	sub	r3, fp, #176	; 0xb0
    3494:	e58d3000 	str	r3, [sp]
    3498:	e24b30c0 	sub	r3, fp, #192	; 0xc0
    349c:	e58d3004 	str	r3, [sp, #4]
    34a0:	e59f3220 	ldr	r3, [pc, #544]	; 36c8 <do_mfill+0x2bc>
    34a4:	e58d3008 	str	r3, [sp, #8]
    34a8:	e1a00002 	mov	r0, r2
    34ac:	e3a01070 	mov	r1, #112	; 0x70
    34b0:	e3a02001 	mov	r2, #1
    34b4:	e3a03000 	mov	r3, #0
    34b8:	eb0034da 	bl	10828 <init_opts>
    34bc:	e24b30a8 	sub	r3, fp, #168	; 0xa8
    34c0:	e2832048 	add	r2, r3, #72	; 0x48
    34c4:	e24b30c4 	sub	r3, fp, #196	; 0xc4
    34c8:	e58d3000 	str	r3, [sp]
    34cc:	e3a03000 	mov	r3, #0
    34d0:	e58d3004 	str	r3, [sp, #4]
    34d4:	e59f31f0 	ldr	r3, [pc, #496]	; 36cc <do_mfill+0x2c0>
    34d8:	e58d3008 	str	r3, [sp, #8]
    34dc:	e1a00002 	mov	r0, r2
    34e0:	e3a01034 	mov	r1, #52	; 0x34
    34e4:	e3a02000 	mov	r2, #0
    34e8:	e3a03002 	mov	r3, #2
    34ec:	eb0034cd 	bl	10828 <init_opts>
    34f0:	e24b30a8 	sub	r3, fp, #168	; 0xa8
    34f4:	e2832060 	add	r2, r3, #96	; 0x60
    34f8:	e24b30c8 	sub	r3, fp, #200	; 0xc8
    34fc:	e58d3000 	str	r3, [sp]
    3500:	e3a03000 	mov	r3, #0
    3504:	e58d3004 	str	r3, [sp, #4]
    3508:	e59f31c0 	ldr	r3, [pc, #448]	; 36d0 <do_mfill+0x2c4>
    350c:	e58d3008 	str	r3, [sp, #8]
    3510:	e1a00002 	mov	r0, r2
    3514:	e3a01032 	mov	r1, #50	; 0x32
    3518:	e3a02000 	mov	r2, #0
    351c:	e3a03002 	mov	r3, #2
    3520:	eb0034c0 	bl	10828 <init_opts>
    3524:	e24b30a8 	sub	r3, fp, #168	; 0xa8
    3528:	e2832078 	add	r2, r3, #120	; 0x78
    352c:	e24b30cc 	sub	r3, fp, #204	; 0xcc
    3530:	e58d3000 	str	r3, [sp]
    3534:	e3a03000 	mov	r3, #0
    3538:	e58d3004 	str	r3, [sp, #4]
    353c:	e59f3190 	ldr	r3, [pc, #400]	; 36d4 <do_mfill+0x2c8>
    3540:	e58d3008 	str	r3, [sp, #8]
    3544:	e1a00002 	mov	r0, r2
    3548:	e3a01031 	mov	r1, #49	; 0x31
    354c:	e3a02000 	mov	r2, #0
    3550:	e3a03002 	mov	r3, #2
    3554:	eb0034b3 	bl	10828 <init_opts>
    3558:	e24bc0a8 	sub	ip, fp, #168	; 0xa8
    355c:	e3a03006 	mov	r3, #6
    3560:	e58d3000 	str	r3, [sp]
    3564:	e3a03000 	mov	r3, #0
    3568:	e58d3004 	str	r3, [sp, #4]
    356c:	e3a03000 	mov	r3, #0
    3570:	e58d3008 	str	r3, [sp, #8]
    3574:	e59f315c 	ldr	r3, [pc, #348]	; 36d8 <do_mfill+0x2cc>
    3578:	e58d300c 	str	r3, [sp, #12]
    357c:	e51b00d0 	ldr	r0, [fp, #-208]	; 0xffffff30
    3580:	e51b10d4 	ldr	r1, [fp, #-212]	; 0xffffff2c
    3584:	e3a02001 	mov	r2, #1
    3588:	e1a0300c 	mov	r3, ip
    358c:	eb0034c3 	bl	108a0 <scan_opts>
    3590:	e1a03000 	mov	r3, r0
    3594:	e3530000 	cmp	r3, #0
    3598:	0a000045 	beq	36b4 <do_mfill+0x2a8>
    359c:	e51b30b8 	ldr	r3, [fp, #-184]	; 0xffffff48
    35a0:	e3530000 	cmp	r3, #0
    35a4:	0a000002 	beq	35b4 <do_mfill+0x1a8>
    35a8:	e51b30bc 	ldr	r3, [fp, #-188]	; 0xffffff44
    35ac:	e3530000 	cmp	r3, #0
    35b0:	1a000002 	bne	35c0 <do_mfill+0x1b4>
    35b4:	e59f0120 	ldr	r0, [pc, #288]	; 36dc <do_mfill+0x2d0>
    35b8:	eb0025ef 	bl	cd7c <diag_printf>
    35bc:	ea00003c 	b	36b4 <do_mfill+0x2a8>
    35c0:	e51b30c0 	ldr	r3, [fp, #-192]	; 0xffffff40
    35c4:	e3530000 	cmp	r3, #0
    35c8:	1a000001 	bne	35d4 <do_mfill+0x1c8>
    35cc:	e3a03000 	mov	r3, #0
    35d0:	e50b30b0 	str	r3, [fp, #-176]	; 0xffffff50
    35d4:	e51b30cc 	ldr	r3, [fp, #-204]	; 0xffffff34
    35d8:	e3530000 	cmp	r3, #0
    35dc:	0a000010 	beq	3624 <do_mfill+0x218>
    35e0:	e51b30ac 	ldr	r3, [fp, #-172]	; 0xffffff54
    35e4:	e50b3018 	str	r3, [fp, #-24]	; 0xffffffe8
    35e8:	ea000006 	b	3608 <do_mfill+0x1fc>
    35ec:	e51b30b0 	ldr	r3, [fp, #-176]	; 0xffffff50
    35f0:	e20330ff 	and	r3, r3, #255	; 0xff
    35f4:	e51b2018 	ldr	r2, [fp, #-24]	; 0xffffffe8
    35f8:	e5c23000 	strb	r3, [r2]
    35fc:	e51b3018 	ldr	r3, [fp, #-24]	; 0xffffffe8
    3600:	e2833001 	add	r3, r3, #1
    3604:	e50b3018 	str	r3, [fp, #-24]	; 0xffffffe8
    3608:	e51b30b4 	ldr	r3, [fp, #-180]	; 0xffffff4c
    360c:	e2433001 	sub	r3, r3, #1
    3610:	e50b30b4 	str	r3, [fp, #-180]	; 0xffffff4c
    3614:	e51b30b4 	ldr	r3, [fp, #-180]	; 0xffffff4c
    3618:	e3530000 	cmp	r3, #0
    361c:	aafffff2 	bge	35ec <do_mfill+0x1e0>
    3620:	ea000023 	b	36b4 <do_mfill+0x2a8>
    3624:	e51b30c8 	ldr	r3, [fp, #-200]	; 0xffffff38
    3628:	e3530000 	cmp	r3, #0
    362c:	0a000011 	beq	3678 <do_mfill+0x26c>
    3630:	e51b30ac 	ldr	r3, [fp, #-172]	; 0xffffff54
    3634:	e50b3014 	str	r3, [fp, #-20]	; 0xffffffec
    3638:	ea000007 	b	365c <do_mfill+0x250>
    363c:	e51b30b0 	ldr	r3, [fp, #-176]	; 0xffffff50
    3640:	e1a03803 	lsl	r3, r3, #16
    3644:	e1a02823 	lsr	r2, r3, #16
    3648:	e51b3014 	ldr	r3, [fp, #-20]	; 0xffffffec
    364c:	e1c320b0 	strh	r2, [r3]
    3650:	e51b3014 	ldr	r3, [fp, #-20]	; 0xffffffec
    3654:	e2833002 	add	r3, r3, #2
    3658:	e50b3014 	str	r3, [fp, #-20]	; 0xffffffec
    365c:	e51b30b4 	ldr	r3, [fp, #-180]	; 0xffffff4c
    3660:	e2433002 	sub	r3, r3, #2
    3664:	e50b30b4 	str	r3, [fp, #-180]	; 0xffffff4c
    3668:	e51b30b4 	ldr	r3, [fp, #-180]	; 0xffffff4c
    366c:	e3530000 	cmp	r3, #0
    3670:	aafffff1 	bge	363c <do_mfill+0x230>
    3674:	ea00000e 	b	36b4 <do_mfill+0x2a8>
    3678:	e51b30ac 	ldr	r3, [fp, #-172]	; 0xffffff54
    367c:	e50b3010 	str	r3, [fp, #-16]
    3680:	ea000005 	b	369c <do_mfill+0x290>
    3684:	e51b20b0 	ldr	r2, [fp, #-176]	; 0xffffff50
    3688:	e51b3010 	ldr	r3, [fp, #-16]
    368c:	e5832000 	str	r2, [r3]
    3690:	e51b3010 	ldr	r3, [fp, #-16]
    3694:	e2833004 	add	r3, r3, #4
    3698:	e50b3010 	str	r3, [fp, #-16]
    369c:	e51b30b4 	ldr	r3, [fp, #-180]	; 0xffffff4c
    36a0:	e2433004 	sub	r3, r3, #4
    36a4:	e50b30b4 	str	r3, [fp, #-180]	; 0xffffff4c
    36a8:	e51b30b4 	ldr	r3, [fp, #-180]	; 0xffffff4c
    36ac:	e3530000 	cmp	r3, #0
    36b0:	aafffff3 	bge	3684 <do_mfill+0x278>
    36b4:	e24bd00c 	sub	sp, fp, #12
    36b8:	e89d6800 	ldm	sp, {fp, sp, lr}
    36bc:	e12fff1e 	bx	lr
    36c0:	00015338 	.word	0x00015338
    36c4:	00015348 	.word	0x00015348
    36c8:	00015350 	.word	0x00015350
    36cc:	00015358 	.word	0x00015358
    36d0:	0001536c 	.word	0x0001536c
    36d4:	00015380 	.word	0x00015380
    36d8:	00015394 	.word	0x00015394
    36dc:	00015398 	.word	0x00015398

000036e0 <do_mcmp>:
    36e0:	e1a0c00d 	mov	ip, sp
    36e4:	e92dd800 	push	{fp, ip, lr, pc}
    36e8:	e24cb004 	sub	fp, ip, #4
    36ec:	e24dd0e8 	sub	sp, sp, #232	; 0xe8
    36f0:	e50b00e0 	str	r0, [fp, #-224]	; 0xffffff20
    36f4:	e50b10e4 	str	r1, [fp, #-228]	; 0xffffff1c
    36f8:	e24b20b4 	sub	r2, fp, #180	; 0xb4
    36fc:	e24b30b8 	sub	r3, fp, #184	; 0xb8
    3700:	e58d3000 	str	r3, [sp]
    3704:	e24b30c4 	sub	r3, fp, #196	; 0xc4
    3708:	e58d3004 	str	r3, [sp, #4]
    370c:	e59f33c4 	ldr	r3, [pc, #964]	; 3ad8 <do_mcmp+0x3f8>
    3710:	e58d3008 	str	r3, [sp, #8]
    3714:	e1a00002 	mov	r0, r2
    3718:	e3a01073 	mov	r1, #115	; 0x73
    371c:	e3a02001 	mov	r2, #1
    3720:	e3a03000 	mov	r3, #0
    3724:	eb00343f 	bl	10828 <init_opts>
    3728:	e24b30b4 	sub	r3, fp, #180	; 0xb4
    372c:	e2832018 	add	r2, r3, #24
    3730:	e24b30c0 	sub	r3, fp, #192	; 0xc0
    3734:	e58d3000 	str	r3, [sp]
    3738:	e24b30cc 	sub	r3, fp, #204	; 0xcc
    373c:	e58d3004 	str	r3, [sp, #4]
    3740:	e59f3394 	ldr	r3, [pc, #916]	; 3adc <do_mcmp+0x3fc>
    3744:	e58d3008 	str	r3, [sp, #8]
    3748:	e1a00002 	mov	r0, r2
    374c:	e3a0106c 	mov	r1, #108	; 0x6c
    3750:	e3a02001 	mov	r2, #1
    3754:	e3a03000 	mov	r3, #0
    3758:	eb003432 	bl	10828 <init_opts>
    375c:	e24b30b4 	sub	r3, fp, #180	; 0xb4
    3760:	e2832030 	add	r2, r3, #48	; 0x30
    3764:	e24b30bc 	sub	r3, fp, #188	; 0xbc
    3768:	e58d3000 	str	r3, [sp]
    376c:	e24b30c8 	sub	r3, fp, #200	; 0xc8
    3770:	e58d3004 	str	r3, [sp, #4]
    3774:	e59f335c 	ldr	r3, [pc, #860]	; 3ad8 <do_mcmp+0x3f8>
    3778:	e58d3008 	str	r3, [sp, #8]
    377c:	e1a00002 	mov	r0, r2
    3780:	e3a01064 	mov	r1, #100	; 0x64
    3784:	e3a02001 	mov	r2, #1
    3788:	e3a03000 	mov	r3, #0
    378c:	eb003425 	bl	10828 <init_opts>
    3790:	e24b30b4 	sub	r3, fp, #180	; 0xb4
    3794:	e2832048 	add	r2, r3, #72	; 0x48
    3798:	e24b30d0 	sub	r3, fp, #208	; 0xd0
    379c:	e58d3000 	str	r3, [sp]
    37a0:	e3a03000 	mov	r3, #0
    37a4:	e58d3004 	str	r3, [sp, #4]
    37a8:	e59f3330 	ldr	r3, [pc, #816]	; 3ae0 <do_mcmp+0x400>
    37ac:	e58d3008 	str	r3, [sp, #8]
    37b0:	e1a00002 	mov	r0, r2
    37b4:	e3a01034 	mov	r1, #52	; 0x34
    37b8:	e3a02000 	mov	r2, #0
    37bc:	e3a03002 	mov	r3, #2
    37c0:	eb003418 	bl	10828 <init_opts>
    37c4:	e24b30b4 	sub	r3, fp, #180	; 0xb4
    37c8:	e2832060 	add	r2, r3, #96	; 0x60
    37cc:	e24b30d4 	sub	r3, fp, #212	; 0xd4
    37d0:	e58d3000 	str	r3, [sp]
    37d4:	e3a03000 	mov	r3, #0
    37d8:	e58d3004 	str	r3, [sp, #4]
    37dc:	e59f3300 	ldr	r3, [pc, #768]	; 3ae4 <do_mcmp+0x404>
    37e0:	e58d3008 	str	r3, [sp, #8]
    37e4:	e1a00002 	mov	r0, r2
    37e8:	e3a01032 	mov	r1, #50	; 0x32
    37ec:	e3a02000 	mov	r2, #0
    37f0:	e3a03002 	mov	r3, #2
    37f4:	eb00340b 	bl	10828 <init_opts>
    37f8:	e24b30b4 	sub	r3, fp, #180	; 0xb4
    37fc:	e2832078 	add	r2, r3, #120	; 0x78
    3800:	e24b30d8 	sub	r3, fp, #216	; 0xd8
    3804:	e58d3000 	str	r3, [sp]
    3808:	e3a03000 	mov	r3, #0
    380c:	e58d3004 	str	r3, [sp, #4]
    3810:	e59f32d0 	ldr	r3, [pc, #720]	; 3ae8 <do_mcmp+0x408>
    3814:	e58d3008 	str	r3, [sp, #8]
    3818:	e1a00002 	mov	r0, r2
    381c:	e3a01031 	mov	r1, #49	; 0x31
    3820:	e3a02000 	mov	r2, #0
    3824:	e3a03002 	mov	r3, #2
    3828:	eb0033fe 	bl	10828 <init_opts>
    382c:	e24bc0b4 	sub	ip, fp, #180	; 0xb4
    3830:	e3a03006 	mov	r3, #6
    3834:	e58d3000 	str	r3, [sp]
    3838:	e3a03000 	mov	r3, #0
    383c:	e58d3004 	str	r3, [sp, #4]
    3840:	e3a03000 	mov	r3, #0
    3844:	e58d3008 	str	r3, [sp, #8]
    3848:	e59f329c 	ldr	r3, [pc, #668]	; 3aec <do_mcmp+0x40c>
    384c:	e58d300c 	str	r3, [sp, #12]
    3850:	e51b00e0 	ldr	r0, [fp, #-224]	; 0xffffff20
    3854:	e51b10e4 	ldr	r1, [fp, #-228]	; 0xffffff1c
    3858:	e3a02001 	mov	r2, #1
    385c:	e1a0300c 	mov	r3, ip
    3860:	eb00340e 	bl	108a0 <scan_opts>
    3864:	e1a03000 	mov	r3, r0
    3868:	e3530000 	cmp	r3, #0
    386c:	0a000096 	beq	3acc <do_mcmp+0x3ec>
    3870:	e51b30c4 	ldr	r3, [fp, #-196]	; 0xffffff3c
    3874:	e3530000 	cmp	r3, #0
    3878:	0a000005 	beq	3894 <do_mcmp+0x1b4>
    387c:	e51b30c8 	ldr	r3, [fp, #-200]	; 0xffffff38
    3880:	e3530000 	cmp	r3, #0
    3884:	0a000002 	beq	3894 <do_mcmp+0x1b4>
    3888:	e51b30cc 	ldr	r3, [fp, #-204]	; 0xffffff34
    388c:	e3530000 	cmp	r3, #0
    3890:	1a000002 	bne	38a0 <do_mcmp+0x1c0>
    3894:	e59f0254 	ldr	r0, [pc, #596]	; 3af0 <do_mcmp+0x410>
    3898:	eb002537 	bl	cd7c <diag_printf>
    389c:	ea00008a 	b	3acc <do_mcmp+0x3ec>
    38a0:	e51b30d8 	ldr	r3, [fp, #-216]	; 0xffffff28
    38a4:	e3530000 	cmp	r3, #0
    38a8:	0a00002c 	beq	3960 <do_mcmp+0x280>
    38ac:	e51b30b8 	ldr	r3, [fp, #-184]	; 0xffffff48
    38b0:	e50b3024 	str	r3, [fp, #-36]	; 0xffffffdc
    38b4:	e51b30bc 	ldr	r3, [fp, #-188]	; 0xffffff44
    38b8:	e50b3020 	str	r3, [fp, #-32]	; 0xffffffe0
    38bc:	ea000020 	b	3944 <do_mcmp+0x264>
    38c0:	e51b3024 	ldr	r3, [fp, #-36]	; 0xffffffdc
    38c4:	e5d32000 	ldrb	r2, [r3]
    38c8:	e51b3020 	ldr	r3, [fp, #-32]	; 0xffffffe0
    38cc:	e5d33000 	ldrb	r3, [r3]
    38d0:	e1520003 	cmp	r2, r3
    38d4:	03a03000 	moveq	r3, #0
    38d8:	13a03001 	movne	r3, #1
    38dc:	e20320ff 	and	r2, r3, #255	; 0xff
    38e0:	e51b3024 	ldr	r3, [fp, #-36]	; 0xffffffdc
    38e4:	e2833001 	add	r3, r3, #1
    38e8:	e50b3024 	str	r3, [fp, #-36]	; 0xffffffdc
    38ec:	e51b3020 	ldr	r3, [fp, #-32]	; 0xffffffe0
    38f0:	e2833001 	add	r3, r3, #1
    38f4:	e50b3020 	str	r3, [fp, #-32]	; 0xffffffe0
    38f8:	e3520000 	cmp	r2, #0
    38fc:	0a000010 	beq	3944 <do_mcmp+0x264>
    3900:	e51b3024 	ldr	r3, [fp, #-36]	; 0xffffffdc
    3904:	e2433001 	sub	r3, r3, #1
    3908:	e50b3024 	str	r3, [fp, #-36]	; 0xffffffdc
    390c:	e51b3020 	ldr	r3, [fp, #-32]	; 0xffffffe0
    3910:	e2433001 	sub	r3, r3, #1
    3914:	e50b3020 	str	r3, [fp, #-32]	; 0xffffffe0
    3918:	e51b3024 	ldr	r3, [fp, #-36]	; 0xffffffdc
    391c:	e5d33000 	ldrb	r3, [r3]
    3920:	e1a02003 	mov	r2, r3
    3924:	e51b3020 	ldr	r3, [fp, #-32]	; 0xffffffe0
    3928:	e5d33000 	ldrb	r3, [r3]
    392c:	e58d3000 	str	r3, [sp]
    3930:	e59f01bc 	ldr	r0, [pc, #444]	; 3af4 <do_mcmp+0x414>
    3934:	e51b1024 	ldr	r1, [fp, #-36]	; 0xffffffdc
    3938:	e51b3020 	ldr	r3, [fp, #-32]	; 0xffffffe0
    393c:	eb00250e 	bl	cd7c <diag_printf>
    3940:	ea000061 	b	3acc <do_mcmp+0x3ec>
    3944:	e51b30c0 	ldr	r3, [fp, #-192]	; 0xffffff40
    3948:	e2433001 	sub	r3, r3, #1
    394c:	e50b30c0 	str	r3, [fp, #-192]	; 0xffffff40
    3950:	e51b30c0 	ldr	r3, [fp, #-192]	; 0xffffff40
    3954:	e3530000 	cmp	r3, #0
    3958:	aaffffd8 	bge	38c0 <do_mcmp+0x1e0>
    395c:	ea00005a 	b	3acc <do_mcmp+0x3ec>
    3960:	e51b30d4 	ldr	r3, [fp, #-212]	; 0xffffff2c
    3964:	e3530000 	cmp	r3, #0
    3968:	0a00002c 	beq	3a20 <do_mcmp+0x340>
    396c:	e51b30b8 	ldr	r3, [fp, #-184]	; 0xffffff48
    3970:	e50b301c 	str	r3, [fp, #-28]	; 0xffffffe4
    3974:	e51b30bc 	ldr	r3, [fp, #-188]	; 0xffffff44
    3978:	e50b3018 	str	r3, [fp, #-24]	; 0xffffffe8
    397c:	ea000020 	b	3a04 <do_mcmp+0x324>
    3980:	e51b301c 	ldr	r3, [fp, #-28]	; 0xffffffe4
    3984:	e1d320b0 	ldrh	r2, [r3]
    3988:	e51b3018 	ldr	r3, [fp, #-24]	; 0xffffffe8
    398c:	e1d330b0 	ldrh	r3, [r3]
    3990:	e1520003 	cmp	r2, r3
    3994:	03a03000 	moveq	r3, #0
    3998:	13a03001 	movne	r3, #1
    399c:	e20320ff 	and	r2, r3, #255	; 0xff
    39a0:	e51b301c 	ldr	r3, [fp, #-28]	; 0xffffffe4
    39a4:	e2833002 	add	r3, r3, #2
    39a8:	e50b301c 	str	r3, [fp, #-28]	; 0xffffffe4
    39ac:	e51b3018 	ldr	r3, [fp, #-24]	; 0xffffffe8
    39b0:	e2833002 	add	r3, r3, #2
    39b4:	e50b3018 	str	r3, [fp, #-24]	; 0xffffffe8
    39b8:	e3520000 	cmp	r2, #0
    39bc:	0a000010 	beq	3a04 <do_mcmp+0x324>
    39c0:	e51b301c 	ldr	r3, [fp, #-28]	; 0xffffffe4
    39c4:	e2433002 	sub	r3, r3, #2
    39c8:	e50b301c 	str	r3, [fp, #-28]	; 0xffffffe4
    39cc:	e51b3018 	ldr	r3, [fp, #-24]	; 0xffffffe8
    39d0:	e2433002 	sub	r3, r3, #2
    39d4:	e50b3018 	str	r3, [fp, #-24]	; 0xffffffe8
    39d8:	e51b301c 	ldr	r3, [fp, #-28]	; 0xffffffe4
    39dc:	e1d330b0 	ldrh	r3, [r3]
    39e0:	e1a02003 	mov	r2, r3
    39e4:	e51b3018 	ldr	r3, [fp, #-24]	; 0xffffffe8
    39e8:	e1d330b0 	ldrh	r3, [r3]
    39ec:	e58d3000 	str	r3, [sp]
    39f0:	e59f0100 	ldr	r0, [pc, #256]	; 3af8 <do_mcmp+0x418>
    39f4:	e51b101c 	ldr	r1, [fp, #-28]	; 0xffffffe4
    39f8:	e51b3018 	ldr	r3, [fp, #-24]	; 0xffffffe8
    39fc:	eb0024de 	bl	cd7c <diag_printf>
    3a00:	ea000031 	b	3acc <do_mcmp+0x3ec>
    3a04:	e51b30c0 	ldr	r3, [fp, #-192]	; 0xffffff40
    3a08:	e2433002 	sub	r3, r3, #2
    3a0c:	e50b30c0 	str	r3, [fp, #-192]	; 0xffffff40
    3a10:	e51b30c0 	ldr	r3, [fp, #-192]	; 0xffffff40
    3a14:	e3530000 	cmp	r3, #0
    3a18:	aaffffd8 	bge	3980 <do_mcmp+0x2a0>
    3a1c:	ea00002a 	b	3acc <do_mcmp+0x3ec>
    3a20:	e51b30b8 	ldr	r3, [fp, #-184]	; 0xffffff48
    3a24:	e50b3014 	str	r3, [fp, #-20]	; 0xffffffec
    3a28:	e51b30bc 	ldr	r3, [fp, #-188]	; 0xffffff44
    3a2c:	e50b3010 	str	r3, [fp, #-16]
    3a30:	ea00001f 	b	3ab4 <do_mcmp+0x3d4>
    3a34:	e51b3014 	ldr	r3, [fp, #-20]	; 0xffffffec
    3a38:	e5932000 	ldr	r2, [r3]
    3a3c:	e51b3010 	ldr	r3, [fp, #-16]
    3a40:	e5933000 	ldr	r3, [r3]
    3a44:	e1520003 	cmp	r2, r3
    3a48:	03a03000 	moveq	r3, #0
    3a4c:	13a03001 	movne	r3, #1
    3a50:	e20320ff 	and	r2, r3, #255	; 0xff
    3a54:	e51b3014 	ldr	r3, [fp, #-20]	; 0xffffffec
    3a58:	e2833004 	add	r3, r3, #4
    3a5c:	e50b3014 	str	r3, [fp, #-20]	; 0xffffffec
    3a60:	e51b3010 	ldr	r3, [fp, #-16]
    3a64:	e2833004 	add	r3, r3, #4
    3a68:	e50b3010 	str	r3, [fp, #-16]
    3a6c:	e3520000 	cmp	r2, #0
    3a70:	0a00000f 	beq	3ab4 <do_mcmp+0x3d4>
    3a74:	e51b3014 	ldr	r3, [fp, #-20]	; 0xffffffec
    3a78:	e2433004 	sub	r3, r3, #4
    3a7c:	e50b3014 	str	r3, [fp, #-20]	; 0xffffffec
    3a80:	e51b3010 	ldr	r3, [fp, #-16]
    3a84:	e2433004 	sub	r3, r3, #4
    3a88:	e50b3010 	str	r3, [fp, #-16]
    3a8c:	e51b3014 	ldr	r3, [fp, #-20]	; 0xffffffec
    3a90:	e5932000 	ldr	r2, [r3]
    3a94:	e51b3010 	ldr	r3, [fp, #-16]
    3a98:	e5933000 	ldr	r3, [r3]
    3a9c:	e58d3000 	str	r3, [sp]
    3aa0:	e59f0054 	ldr	r0, [pc, #84]	; 3afc <do_mcmp+0x41c>
    3aa4:	e51b1014 	ldr	r1, [fp, #-20]	; 0xffffffec
    3aa8:	e51b3010 	ldr	r3, [fp, #-16]
    3aac:	eb0024b2 	bl	cd7c <diag_printf>
    3ab0:	ea000005 	b	3acc <do_mcmp+0x3ec>
    3ab4:	e51b30c0 	ldr	r3, [fp, #-192]	; 0xffffff40
    3ab8:	e2433004 	sub	r3, r3, #4
    3abc:	e50b30c0 	str	r3, [fp, #-192]	; 0xffffff40
    3ac0:	e51b30c0 	ldr	r3, [fp, #-192]	; 0xffffff40
    3ac4:	e3530000 	cmp	r3, #0
    3ac8:	aaffffd9 	bge	3a34 <do_mcmp+0x354>
    3acc:	e24bd00c 	sub	sp, fp, #12
    3ad0:	e89d6800 	ldm	sp, {fp, sp, lr}
    3ad4:	e12fff1e 	bx	lr
    3ad8:	00015434 	.word	0x00015434
    3adc:	00015444 	.word	0x00015444
    3ae0:	0001544c 	.word	0x0001544c
    3ae4:	00015460 	.word	0x00015460
    3ae8:	00015474 	.word	0x00015474
    3aec:	00015488 	.word	0x00015488
    3af0:	0001548c 	.word	0x0001548c
    3af4:	000154c4 	.word	0x000154c4
    3af8:	000154f0 	.word	0x000154f0
    3afc:	0001551c 	.word	0x0001551c

00003b00 <do_mcopy>:
    3b00:	e1a0c00d 	mov	ip, sp
    3b04:	e92dd800 	push	{fp, ip, lr, pc}
    3b08:	e24cb004 	sub	fp, ip, #4
    3b0c:	e24dd0d8 	sub	sp, sp, #216	; 0xd8
    3b10:	e50b00d0 	str	r0, [fp, #-208]	; 0xffffff30
    3b14:	e50b10d4 	str	r1, [fp, #-212]	; 0xffffff2c
    3b18:	e3a03001 	mov	r3, #1
    3b1c:	e50b3010 	str	r3, [fp, #-16]
    3b20:	e24b20a4 	sub	r2, fp, #164	; 0xa4
    3b24:	e24b30a8 	sub	r3, fp, #168	; 0xa8
    3b28:	e58d3000 	str	r3, [sp]
    3b2c:	e24b30b4 	sub	r3, fp, #180	; 0xb4
    3b30:	e58d3004 	str	r3, [sp, #4]
    3b34:	e59f3384 	ldr	r3, [pc, #900]	; 3ec0 <do_mcopy+0x3c0>
    3b38:	e58d3008 	str	r3, [sp, #8]
    3b3c:	e1a00002 	mov	r0, r2
    3b40:	e3a01073 	mov	r1, #115	; 0x73
    3b44:	e3a02001 	mov	r2, #1
    3b48:	e3a03000 	mov	r3, #0
    3b4c:	eb003335 	bl	10828 <init_opts>
    3b50:	e24b30a4 	sub	r3, fp, #164	; 0xa4
    3b54:	e2832018 	add	r2, r3, #24
    3b58:	e24b30b0 	sub	r3, fp, #176	; 0xb0
    3b5c:	e58d3000 	str	r3, [sp]
    3b60:	e24b30bc 	sub	r3, fp, #188	; 0xbc
    3b64:	e58d3004 	str	r3, [sp, #4]
    3b68:	e59f3354 	ldr	r3, [pc, #852]	; 3ec4 <do_mcopy+0x3c4>
    3b6c:	e58d3008 	str	r3, [sp, #8]
    3b70:	e1a00002 	mov	r0, r2
    3b74:	e3a0106c 	mov	r1, #108	; 0x6c
    3b78:	e3a02001 	mov	r2, #1
    3b7c:	e3a03000 	mov	r3, #0
    3b80:	eb003328 	bl	10828 <init_opts>
    3b84:	e24b30a4 	sub	r3, fp, #164	; 0xa4
    3b88:	e2832030 	add	r2, r3, #48	; 0x30
    3b8c:	e24b30ac 	sub	r3, fp, #172	; 0xac
    3b90:	e58d3000 	str	r3, [sp]
    3b94:	e24b30b8 	sub	r3, fp, #184	; 0xb8
    3b98:	e58d3004 	str	r3, [sp, #4]
    3b9c:	e59f331c 	ldr	r3, [pc, #796]	; 3ec0 <do_mcopy+0x3c0>
    3ba0:	e58d3008 	str	r3, [sp, #8]
    3ba4:	e1a00002 	mov	r0, r2
    3ba8:	e3a01064 	mov	r1, #100	; 0x64
    3bac:	e3a02001 	mov	r2, #1
    3bb0:	e3a03000 	mov	r3, #0
    3bb4:	eb00331b 	bl	10828 <init_opts>
    3bb8:	e24b30a4 	sub	r3, fp, #164	; 0xa4
    3bbc:	e2832048 	add	r2, r3, #72	; 0x48
    3bc0:	e24b30c0 	sub	r3, fp, #192	; 0xc0
    3bc4:	e58d3000 	str	r3, [sp]
    3bc8:	e3a03000 	mov	r3, #0
    3bcc:	e58d3004 	str	r3, [sp, #4]
    3bd0:	e59f32f0 	ldr	r3, [pc, #752]	; 3ec8 <do_mcopy+0x3c8>
    3bd4:	e58d3008 	str	r3, [sp, #8]
    3bd8:	e1a00002 	mov	r0, r2
    3bdc:	e3a01034 	mov	r1, #52	; 0x34
    3be0:	e3a02000 	mov	r2, #0
    3be4:	e3a03002 	mov	r3, #2
    3be8:	eb00330e 	bl	10828 <init_opts>
    3bec:	e24b30a4 	sub	r3, fp, #164	; 0xa4
    3bf0:	e2832060 	add	r2, r3, #96	; 0x60
    3bf4:	e24b30c4 	sub	r3, fp, #196	; 0xc4
    3bf8:	e58d3000 	str	r3, [sp]
    3bfc:	e3a03000 	mov	r3, #0
    3c00:	e58d3004 	str	r3, [sp, #4]
    3c04:	e59f32c0 	ldr	r3, [pc, #704]	; 3ecc <do_mcopy+0x3cc>
    3c08:	e58d3008 	str	r3, [sp, #8]
    3c0c:	e1a00002 	mov	r0, r2
    3c10:	e3a01032 	mov	r1, #50	; 0x32
    3c14:	e3a02000 	mov	r2, #0
    3c18:	e3a03002 	mov	r3, #2
    3c1c:	eb003301 	bl	10828 <init_opts>
    3c20:	e24b30a4 	sub	r3, fp, #164	; 0xa4
    3c24:	e2832078 	add	r2, r3, #120	; 0x78
    3c28:	e24b30c8 	sub	r3, fp, #200	; 0xc8
    3c2c:	e58d3000 	str	r3, [sp]
    3c30:	e3a03000 	mov	r3, #0
    3c34:	e58d3004 	str	r3, [sp, #4]
    3c38:	e59f3290 	ldr	r3, [pc, #656]	; 3ed0 <do_mcopy+0x3d0>
    3c3c:	e58d3008 	str	r3, [sp, #8]
    3c40:	e1a00002 	mov	r0, r2
    3c44:	e3a01031 	mov	r1, #49	; 0x31
    3c48:	e3a02000 	mov	r2, #0
    3c4c:	e3a03002 	mov	r3, #2
    3c50:	eb0032f4 	bl	10828 <init_opts>
    3c54:	e24bc0a4 	sub	ip, fp, #164	; 0xa4
    3c58:	e3a03006 	mov	r3, #6
    3c5c:	e58d3000 	str	r3, [sp]
    3c60:	e3a03000 	mov	r3, #0
    3c64:	e58d3004 	str	r3, [sp, #4]
    3c68:	e3a03000 	mov	r3, #0
    3c6c:	e58d3008 	str	r3, [sp, #8]
    3c70:	e59f325c 	ldr	r3, [pc, #604]	; 3ed4 <do_mcopy+0x3d4>
    3c74:	e58d300c 	str	r3, [sp, #12]
    3c78:	e51b00d0 	ldr	r0, [fp, #-208]	; 0xffffff30
    3c7c:	e51b10d4 	ldr	r1, [fp, #-212]	; 0xffffff2c
    3c80:	e3a02001 	mov	r2, #1
    3c84:	e1a0300c 	mov	r3, ip
    3c88:	eb003304 	bl	108a0 <scan_opts>
    3c8c:	e1a03000 	mov	r3, r0
    3c90:	e3530000 	cmp	r3, #0
    3c94:	0a000086 	beq	3eb4 <do_mcopy+0x3b4>
    3c98:	e51b30b4 	ldr	r3, [fp, #-180]	; 0xffffff4c
    3c9c:	e3530000 	cmp	r3, #0
    3ca0:	0a00000c 	beq	3cd8 <do_mcopy+0x1d8>
    3ca4:	e51b30b8 	ldr	r3, [fp, #-184]	; 0xffffff48
    3ca8:	e3530000 	cmp	r3, #0
    3cac:	0a000009 	beq	3cd8 <do_mcopy+0x1d8>
    3cb0:	e51b30bc 	ldr	r3, [fp, #-188]	; 0xffffff44
    3cb4:	e3530000 	cmp	r3, #0
    3cb8:	0a000006 	beq	3cd8 <do_mcopy+0x1d8>
    3cbc:	e51b20c0 	ldr	r2, [fp, #-192]	; 0xffffff40
    3cc0:	e51b30c4 	ldr	r3, [fp, #-196]	; 0xffffff3c
    3cc4:	e0822003 	add	r2, r2, r3
    3cc8:	e51b30c8 	ldr	r3, [fp, #-200]	; 0xffffff38
    3ccc:	e0823003 	add	r3, r2, r3
    3cd0:	e3530001 	cmp	r3, #1
    3cd4:	da000002 	ble	3ce4 <do_mcopy+0x1e4>
    3cd8:	e59f01f8 	ldr	r0, [pc, #504]	; 3ed8 <do_mcopy+0x3d8>
    3cdc:	eb002426 	bl	cd7c <diag_printf>
    3ce0:	ea000073 	b	3eb4 <do_mcopy+0x3b4>
    3ce4:	e51b30c4 	ldr	r3, [fp, #-196]	; 0xffffff3c
    3ce8:	e3530000 	cmp	r3, #0
    3cec:	0a000006 	beq	3d0c <do_mcopy+0x20c>
    3cf0:	e51b30b0 	ldr	r3, [fp, #-176]	; 0xffffff50
    3cf4:	e2833001 	add	r3, r3, #1
    3cf8:	e3c33001 	bic	r3, r3, #1
    3cfc:	e50b30b0 	str	r3, [fp, #-176]	; 0xffffff50
    3d00:	e3a03002 	mov	r3, #2
    3d04:	e50b3010 	str	r3, [fp, #-16]
    3d08:	ea00000b 	b	3d3c <do_mcopy+0x23c>
    3d0c:	e51b30c0 	ldr	r3, [fp, #-192]	; 0xffffff40
    3d10:	e3530000 	cmp	r3, #0
    3d14:	1a000002 	bne	3d24 <do_mcopy+0x224>
    3d18:	e51b30c8 	ldr	r3, [fp, #-200]	; 0xffffff38
    3d1c:	e3530000 	cmp	r3, #0
    3d20:	1a000005 	bne	3d3c <do_mcopy+0x23c>
    3d24:	e51b30b0 	ldr	r3, [fp, #-176]	; 0xffffff50
    3d28:	e2833003 	add	r3, r3, #3
    3d2c:	e3c33003 	bic	r3, r3, #3
    3d30:	e50b30b0 	str	r3, [fp, #-176]	; 0xffffff50
    3d34:	e3a03004 	mov	r3, #4
    3d38:	e50b3010 	str	r3, [fp, #-16]
    3d3c:	e51b20a8 	ldr	r2, [fp, #-168]	; 0xffffff58
    3d40:	e51b30b0 	ldr	r3, [fp, #-176]	; 0xffffff50
    3d44:	e0823003 	add	r3, r2, r3
    3d48:	e50b3014 	str	r3, [fp, #-20]	; 0xffffffec
    3d4c:	e51b20ac 	ldr	r2, [fp, #-172]	; 0xffffff54
    3d50:	e51b30a8 	ldr	r3, [fp, #-168]	; 0xffffff58
    3d54:	e1520003 	cmp	r2, r3
    3d58:	9a000018 	bls	3dc0 <do_mcopy+0x2c0>
    3d5c:	e51b20a8 	ldr	r2, [fp, #-168]	; 0xffffff58
    3d60:	e51b30b0 	ldr	r3, [fp, #-176]	; 0xffffff50
    3d64:	e0822003 	add	r2, r2, r3
    3d68:	e51b30ac 	ldr	r3, [fp, #-172]	; 0xffffff54
    3d6c:	e1520003 	cmp	r2, r3
    3d70:	9a000012 	bls	3dc0 <do_mcopy+0x2c0>
    3d74:	e51b20a8 	ldr	r2, [fp, #-168]	; 0xffffff58
    3d78:	e51b3010 	ldr	r3, [fp, #-16]
    3d7c:	e0633002 	rsb	r3, r3, r2
    3d80:	e50b3014 	str	r3, [fp, #-20]	; 0xffffffec
    3d84:	e51b20b0 	ldr	r2, [fp, #-176]	; 0xffffff50
    3d88:	e51b3010 	ldr	r3, [fp, #-16]
    3d8c:	e0632002 	rsb	r2, r3, r2
    3d90:	e51b30a8 	ldr	r3, [fp, #-168]	; 0xffffff58
    3d94:	e0823003 	add	r3, r2, r3
    3d98:	e50b30a8 	str	r3, [fp, #-168]	; 0xffffff58
    3d9c:	e51b20b0 	ldr	r2, [fp, #-176]	; 0xffffff50
    3da0:	e51b3010 	ldr	r3, [fp, #-16]
    3da4:	e0632002 	rsb	r2, r3, r2
    3da8:	e51b30ac 	ldr	r3, [fp, #-172]	; 0xffffff54
    3dac:	e0823003 	add	r3, r2, r3
    3db0:	e50b30ac 	str	r3, [fp, #-172]	; 0xffffff54
    3db4:	e51b3010 	ldr	r3, [fp, #-16]
    3db8:	e2633000 	rsb	r3, r3, #0
    3dbc:	e50b3010 	str	r3, [fp, #-16]
    3dc0:	e51b30c8 	ldr	r3, [fp, #-200]	; 0xffffff38
    3dc4:	e3530000 	cmp	r3, #0
    3dc8:	0a000012 	beq	3e18 <do_mcopy+0x318>
    3dcc:	ea00000c 	b	3e04 <do_mcopy+0x304>
    3dd0:	e51b30ac 	ldr	r3, [fp, #-172]	; 0xffffff54
    3dd4:	e1a02003 	mov	r2, r3
    3dd8:	e51b30a8 	ldr	r3, [fp, #-168]	; 0xffffff58
    3ddc:	e5d33000 	ldrb	r3, [r3]
    3de0:	e5c23000 	strb	r3, [r2]
    3de4:	e51b20a8 	ldr	r2, [fp, #-168]	; 0xffffff58
    3de8:	e51b3010 	ldr	r3, [fp, #-16]
    3dec:	e0823003 	add	r3, r2, r3
    3df0:	e50b30a8 	str	r3, [fp, #-168]	; 0xffffff58
    3df4:	e51b20ac 	ldr	r2, [fp, #-172]	; 0xffffff54
    3df8:	e51b3010 	ldr	r3, [fp, #-16]
    3dfc:	e0823003 	add	r3, r2, r3
    3e00:	e50b30ac 	str	r3, [fp, #-172]	; 0xffffff54
    3e04:	e51b20a8 	ldr	r2, [fp, #-168]	; 0xffffff58
    3e08:	e51b3014 	ldr	r3, [fp, #-20]	; 0xffffffec
    3e0c:	e1520003 	cmp	r2, r3
    3e10:	1affffee 	bne	3dd0 <do_mcopy+0x2d0>
    3e14:	ea000026 	b	3eb4 <do_mcopy+0x3b4>
    3e18:	e51b30c4 	ldr	r3, [fp, #-196]	; 0xffffff3c
    3e1c:	e3530000 	cmp	r3, #0
    3e20:	0a00001f 	beq	3ea4 <do_mcopy+0x3a4>
    3e24:	ea00000c 	b	3e5c <do_mcopy+0x35c>
    3e28:	e51b30ac 	ldr	r3, [fp, #-172]	; 0xffffff54
    3e2c:	e1a02003 	mov	r2, r3
    3e30:	e51b30a8 	ldr	r3, [fp, #-168]	; 0xffffff58
    3e34:	e1d330b0 	ldrh	r3, [r3]
    3e38:	e1c230b0 	strh	r3, [r2]
    3e3c:	e51b20a8 	ldr	r2, [fp, #-168]	; 0xffffff58
    3e40:	e51b3010 	ldr	r3, [fp, #-16]
    3e44:	e0823003 	add	r3, r2, r3
    3e48:	e50b30a8 	str	r3, [fp, #-168]	; 0xffffff58
    3e4c:	e51b20ac 	ldr	r2, [fp, #-172]	; 0xffffff54
    3e50:	e51b3010 	ldr	r3, [fp, #-16]
    3e54:	e0823003 	add	r3, r2, r3
    3e58:	e50b30ac 	str	r3, [fp, #-172]	; 0xffffff54
    3e5c:	e51b20a8 	ldr	r2, [fp, #-168]	; 0xffffff58
    3e60:	e51b3014 	ldr	r3, [fp, #-20]	; 0xffffffec
    3e64:	e1520003 	cmp	r2, r3
    3e68:	1affffee 	bne	3e28 <do_mcopy+0x328>
    3e6c:	ea000010 	b	3eb4 <do_mcopy+0x3b4>
    3e70:	e51b30ac 	ldr	r3, [fp, #-172]	; 0xffffff54
    3e74:	e1a02003 	mov	r2, r3
    3e78:	e51b30a8 	ldr	r3, [fp, #-168]	; 0xffffff58
    3e7c:	e5933000 	ldr	r3, [r3]
    3e80:	e5823000 	str	r3, [r2]
    3e84:	e51b20a8 	ldr	r2, [fp, #-168]	; 0xffffff58
    3e88:	e51b3010 	ldr	r3, [fp, #-16]
    3e8c:	e0823003 	add	r3, r2, r3
    3e90:	e50b30a8 	str	r3, [fp, #-168]	; 0xffffff58
    3e94:	e51b20ac 	ldr	r2, [fp, #-172]	; 0xffffff54
    3e98:	e51b3010 	ldr	r3, [fp, #-16]
    3e9c:	e0823003 	add	r3, r2, r3
    3ea0:	e50b30ac 	str	r3, [fp, #-172]	; 0xffffff54
    3ea4:	e51b20a8 	ldr	r2, [fp, #-168]	; 0xffffff58
    3ea8:	e51b3014 	ldr	r3, [fp, #-20]	; 0xffffffec
    3eac:	e1520003 	cmp	r2, r3
    3eb0:	1affffee 	bne	3e70 <do_mcopy+0x370>
    3eb4:	e24bd00c 	sub	sp, fp, #12
    3eb8:	e89d6800 	ldm	sp, {fp, sp, lr}
    3ebc:	e12fff1e 	bx	lr
    3ec0:	00015548 	.word	0x00015548
    3ec4:	00015558 	.word	0x00015558
    3ec8:	00015560 	.word	0x00015560
    3ecc:	00015574 	.word	0x00015574
    3ed0:	00015588 	.word	0x00015588
    3ed4:	00015598 	.word	0x00015598
    3ed8:	0001559c 	.word	0x0001559c

00003edc <do_dump>:
    3edc:	e1a0c00d 	mov	ip, sp
    3ee0:	e92dd800 	push	{fp, ip, lr, pc}
    3ee4:	e24cb004 	sub	fp, ip, #4
    3ee8:	e24dd0e8 	sub	sp, sp, #232	; 0xe8
    3eec:	e50b00d8 	str	r0, [fp, #-216]	; 0xffffff28
    3ef0:	e50b10dc 	str	r1, [fp, #-220]	; 0xffffff24
    3ef4:	e24b20b0 	sub	r2, fp, #176	; 0xb0
    3ef8:	e24b30b4 	sub	r3, fp, #180	; 0xb4
    3efc:	e58d3000 	str	r3, [sp]
    3f00:	e24b30bc 	sub	r3, fp, #188	; 0xbc
    3f04:	e58d3004 	str	r3, [sp, #4]
    3f08:	e59f33f4 	ldr	r3, [pc, #1012]	; 4304 <do_dump+0x428>
    3f0c:	e58d3008 	str	r3, [sp, #8]
    3f10:	e1a00002 	mov	r0, r2
    3f14:	e3a01062 	mov	r1, #98	; 0x62
    3f18:	e3a02001 	mov	r2, #1
    3f1c:	e3a03000 	mov	r3, #0
    3f20:	eb003240 	bl	10828 <init_opts>
    3f24:	e24b30b0 	sub	r3, fp, #176	; 0xb0
    3f28:	e2832018 	add	r2, r3, #24
    3f2c:	e24b30b8 	sub	r3, fp, #184	; 0xb8
    3f30:	e58d3000 	str	r3, [sp]
    3f34:	e24b30c0 	sub	r3, fp, #192	; 0xc0
    3f38:	e58d3004 	str	r3, [sp, #4]
    3f3c:	e59f33c4 	ldr	r3, [pc, #964]	; 4308 <do_dump+0x42c>
    3f40:	e58d3008 	str	r3, [sp, #8]
    3f44:	e1a00002 	mov	r0, r2
    3f48:	e3a0106c 	mov	r1, #108	; 0x6c
    3f4c:	e3a02001 	mov	r2, #1
    3f50:	e3a03000 	mov	r3, #0
    3f54:	eb003233 	bl	10828 <init_opts>
    3f58:	e24b30b0 	sub	r3, fp, #176	; 0xb0
    3f5c:	e2832030 	add	r2, r3, #48	; 0x30
    3f60:	e24b30c4 	sub	r3, fp, #196	; 0xc4
    3f64:	e58d3000 	str	r3, [sp]
    3f68:	e3a03000 	mov	r3, #0
    3f6c:	e58d3004 	str	r3, [sp, #4]
    3f70:	e59f3394 	ldr	r3, [pc, #916]	; 430c <do_dump+0x430>
    3f74:	e58d3008 	str	r3, [sp, #8]
    3f78:	e1a00002 	mov	r0, r2
    3f7c:	e3a01073 	mov	r1, #115	; 0x73
    3f80:	e3a02000 	mov	r2, #0
    3f84:	e3a03002 	mov	r3, #2
    3f88:	eb003226 	bl	10828 <init_opts>
    3f8c:	e24b30b0 	sub	r3, fp, #176	; 0xb0
    3f90:	e2832048 	add	r2, r3, #72	; 0x48
    3f94:	e24b30c8 	sub	r3, fp, #200	; 0xc8
    3f98:	e58d3000 	str	r3, [sp]
    3f9c:	e3a03000 	mov	r3, #0
    3fa0:	e58d3004 	str	r3, [sp, #4]
    3fa4:	e59f3364 	ldr	r3, [pc, #868]	; 4310 <do_dump+0x434>
    3fa8:	e58d3008 	str	r3, [sp, #8]
    3fac:	e1a00002 	mov	r0, r2
    3fb0:	e3a01034 	mov	r1, #52	; 0x34
    3fb4:	e3a02000 	mov	r2, #0
    3fb8:	e3a03002 	mov	r3, #2
    3fbc:	eb003219 	bl	10828 <init_opts>
    3fc0:	e24b30b0 	sub	r3, fp, #176	; 0xb0
    3fc4:	e2832060 	add	r2, r3, #96	; 0x60
    3fc8:	e24b30cc 	sub	r3, fp, #204	; 0xcc
    3fcc:	e58d3000 	str	r3, [sp]
    3fd0:	e3a03000 	mov	r3, #0
    3fd4:	e58d3004 	str	r3, [sp, #4]
    3fd8:	e59f3334 	ldr	r3, [pc, #820]	; 4314 <do_dump+0x438>
    3fdc:	e58d3008 	str	r3, [sp, #8]
    3fe0:	e1a00002 	mov	r0, r2
    3fe4:	e3a01032 	mov	r1, #50	; 0x32
    3fe8:	e3a02000 	mov	r2, #0
    3fec:	e3a03002 	mov	r3, #2
    3ff0:	eb00320c 	bl	10828 <init_opts>
    3ff4:	e24b30b0 	sub	r3, fp, #176	; 0xb0
    3ff8:	e2832078 	add	r2, r3, #120	; 0x78
    3ffc:	e24b30d0 	sub	r3, fp, #208	; 0xd0
    4000:	e58d3000 	str	r3, [sp]
    4004:	e3a03000 	mov	r3, #0
    4008:	e58d3004 	str	r3, [sp, #4]
    400c:	e59f3304 	ldr	r3, [pc, #772]	; 4318 <do_dump+0x43c>
    4010:	e58d3008 	str	r3, [sp, #8]
    4014:	e1a00002 	mov	r0, r2
    4018:	e3a01031 	mov	r1, #49	; 0x31
    401c:	e3a02000 	mov	r2, #0
    4020:	e3a03002 	mov	r3, #2
    4024:	eb0031ff 	bl	10828 <init_opts>
    4028:	e24bc0b0 	sub	ip, fp, #176	; 0xb0
    402c:	e3a03006 	mov	r3, #6
    4030:	e58d3000 	str	r3, [sp]
    4034:	e3a03000 	mov	r3, #0
    4038:	e58d3004 	str	r3, [sp, #4]
    403c:	e3a03000 	mov	r3, #0
    4040:	e58d3008 	str	r3, [sp, #8]
    4044:	e59f32d0 	ldr	r3, [pc, #720]	; 431c <do_dump+0x440>
    4048:	e58d300c 	str	r3, [sp, #12]
    404c:	e51b00d8 	ldr	r0, [fp, #-216]	; 0xffffff28
    4050:	e51b10dc 	ldr	r1, [fp, #-220]	; 0xffffff24
    4054:	e3a02001 	mov	r2, #1
    4058:	e1a0300c 	mov	r3, ip
    405c:	eb00320f 	bl	108a0 <scan_opts>
    4060:	e1a03000 	mov	r3, r0
    4064:	e3530000 	cmp	r3, #0
    4068:	0a0000a2 	beq	42f8 <do_dump+0x41c>
    406c:	e51b30bc 	ldr	r3, [fp, #-188]	; 0xffffff44
    4070:	e3530000 	cmp	r3, #0
    4074:	1a000011 	bne	40c0 <do_dump+0x1e4>
    4078:	e59f32a0 	ldr	r3, [pc, #672]	; 4320 <do_dump+0x444>
    407c:	e5933000 	ldr	r3, [r3]
    4080:	e3530000 	cmp	r3, #0
    4084:	1a000002 	bne	4094 <do_dump+0x1b8>
    4088:	e59f0294 	ldr	r0, [pc, #660]	; 4324 <do_dump+0x448>
    408c:	eb00233a 	bl	cd7c <diag_printf>
    4090:	ea000098 	b	42f8 <do_dump+0x41c>
    4094:	e59f3284 	ldr	r3, [pc, #644]	; 4320 <do_dump+0x444>
    4098:	e5933000 	ldr	r3, [r3]
    409c:	e50b30b4 	str	r3, [fp, #-180]	; 0xffffff4c
    40a0:	e51b30c0 	ldr	r3, [fp, #-192]	; 0xffffff40
    40a4:	e3530000 	cmp	r3, #0
    40a8:	1a000004 	bne	40c0 <do_dump+0x1e4>
    40ac:	e59f3274 	ldr	r3, [pc, #628]	; 4328 <do_dump+0x44c>
    40b0:	e5933000 	ldr	r3, [r3]
    40b4:	e50b30b8 	str	r3, [fp, #-184]	; 0xffffff48
    40b8:	e3a03001 	mov	r3, #1
    40bc:	e50b30c0 	str	r3, [fp, #-192]	; 0xffffff40
    40c0:	e51b30c8 	ldr	r3, [fp, #-200]	; 0xffffff38
    40c4:	e3530000 	cmp	r3, #0
    40c8:	0a000003 	beq	40dc <do_dump+0x200>
    40cc:	e59f3258 	ldr	r3, [pc, #600]	; 432c <do_dump+0x450>
    40d0:	e3a02004 	mov	r2, #4
    40d4:	e5c32000 	strb	r2, [r3]
    40d8:	ea00000c 	b	4110 <do_dump+0x234>
    40dc:	e51b30cc 	ldr	r3, [fp, #-204]	; 0xffffff34
    40e0:	e3530000 	cmp	r3, #0
    40e4:	0a000003 	beq	40f8 <do_dump+0x21c>
    40e8:	e59f323c 	ldr	r3, [pc, #572]	; 432c <do_dump+0x450>
    40ec:	e3a02002 	mov	r2, #2
    40f0:	e5c32000 	strb	r2, [r3]
    40f4:	ea000005 	b	4110 <do_dump+0x234>
    40f8:	e51b30d0 	ldr	r3, [fp, #-208]	; 0xffffff30
    40fc:	e3530000 	cmp	r3, #0
    4100:	0a000002 	beq	4110 <do_dump+0x234>
    4104:	e59f3220 	ldr	r3, [pc, #544]	; 432c <do_dump+0x450>
    4108:	e3a02001 	mov	r2, #1
    410c:	e5c32000 	strb	r2, [r3]
    4110:	e51b30c0 	ldr	r3, [fp, #-192]	; 0xffffff40
    4114:	e3530000 	cmp	r3, #0
    4118:	1a000001 	bne	4124 <do_dump+0x248>
    411c:	e3a03020 	mov	r3, #32
    4120:	e50b30b8 	str	r3, [fp, #-184]	; 0xffffff48
    4124:	e51b30c4 	ldr	r3, [fp, #-196]	; 0xffffff3c
    4128:	e3530000 	cmp	r3, #0
    412c:	0a00004c 	beq	4264 <do_dump+0x388>
    4130:	e3a03000 	mov	r3, #0
    4134:	e50b3018 	str	r3, [fp, #-24]	; 0xffffffe8
    4138:	ea000044 	b	4250 <do_dump+0x374>
    413c:	e51b30b8 	ldr	r3, [fp, #-184]	; 0xffffff48
    4140:	e3530010 	cmp	r3, #16
    4144:	23a03010 	movcs	r3, #16
    4148:	e50b301c 	str	r3, [fp, #-28]	; 0xffffffe4
    414c:	e51b301c 	ldr	r3, [fp, #-28]	; 0xffffffe4
    4150:	e2833005 	add	r3, r3, #5
    4154:	e50b3014 	str	r3, [fp, #-20]	; 0xffffffec
    4158:	e51b301c 	ldr	r3, [fp, #-28]	; 0xffffffe4
    415c:	e2831005 	add	r1, r3, #5
    4160:	e51b2018 	ldr	r2, [fp, #-24]	; 0xffffffe8
    4164:	e51b30b4 	ldr	r3, [fp, #-180]	; 0xffffff4c
    4168:	e0823003 	add	r3, r2, r3
    416c:	e59f01bc 	ldr	r0, [pc, #444]	; 4330 <do_dump+0x454>
    4170:	e1a02003 	mov	r2, r3
    4174:	eb002300 	bl	cd7c <diag_printf>
    4178:	e3a03000 	mov	r3, #0
    417c:	e50b3020 	str	r3, [fp, #-32]	; 0xffffffe0
    4180:	ea00000c 	b	41b8 <do_dump+0x2dc>
    4184:	e51b20b4 	ldr	r2, [fp, #-180]	; 0xffffff4c
    4188:	e51b3018 	ldr	r3, [fp, #-24]	; 0xffffffe8
    418c:	e0822003 	add	r2, r2, r3
    4190:	e51b3020 	ldr	r3, [fp, #-32]	; 0xffffffe0
    4194:	e1a03183 	lsl	r3, r3, #3
    4198:	e1a03332 	lsr	r3, r2, r3
    419c:	e20320ff 	and	r2, r3, #255	; 0xff
    41a0:	e51b3014 	ldr	r3, [fp, #-20]	; 0xffffffec
    41a4:	e0823003 	add	r3, r2, r3
    41a8:	e50b3014 	str	r3, [fp, #-20]	; 0xffffffec
    41ac:	e51b3020 	ldr	r3, [fp, #-32]	; 0xffffffe0
    41b0:	e2833001 	add	r3, r3, #1
    41b4:	e50b3020 	str	r3, [fp, #-32]	; 0xffffffe0
    41b8:	e51b3020 	ldr	r3, [fp, #-32]	; 0xffffffe0
    41bc:	e3530003 	cmp	r3, #3
    41c0:	daffffef 	ble	4184 <do_dump+0x2a8>
    41c4:	e3a03000 	mov	r3, #0
    41c8:	e50b3020 	str	r3, [fp, #-32]	; 0xffffffe0
    41cc:	ea000011 	b	4218 <do_dump+0x33c>
    41d0:	e51b20b4 	ldr	r2, [fp, #-180]	; 0xffffff4c
    41d4:	e51b3018 	ldr	r3, [fp, #-24]	; 0xffffffe8
    41d8:	e0822003 	add	r2, r2, r3
    41dc:	e51b3020 	ldr	r3, [fp, #-32]	; 0xffffffe0
    41e0:	e0823003 	add	r3, r2, r3
    41e4:	e5d33000 	ldrb	r3, [r3]
    41e8:	e54b300d 	strb	r3, [fp, #-13]
    41ec:	e55b300d 	ldrb	r3, [fp, #-13]
    41f0:	e59f013c 	ldr	r0, [pc, #316]	; 4334 <do_dump+0x458>
    41f4:	e1a01003 	mov	r1, r3
    41f8:	eb0022df 	bl	cd7c <diag_printf>
    41fc:	e55b200d 	ldrb	r2, [fp, #-13]
    4200:	e51b3014 	ldr	r3, [fp, #-20]	; 0xffffffec
    4204:	e0833002 	add	r3, r3, r2
    4208:	e50b3014 	str	r3, [fp, #-20]	; 0xffffffec
    420c:	e51b3020 	ldr	r3, [fp, #-32]	; 0xffffffe0
    4210:	e2833001 	add	r3, r3, #1
    4214:	e50b3020 	str	r3, [fp, #-32]	; 0xffffffe0
    4218:	e51b2020 	ldr	r2, [fp, #-32]	; 0xffffffe0
    421c:	e51b301c 	ldr	r3, [fp, #-28]	; 0xffffffe4
    4220:	e1520003 	cmp	r2, r3
    4224:	baffffe9 	blt	41d0 <do_dump+0x2f4>
    4228:	e51b3014 	ldr	r3, [fp, #-20]	; 0xffffffec
    422c:	e1e03003 	mvn	r3, r3
    4230:	e20330ff 	and	r3, r3, #255	; 0xff
    4234:	e59f00fc 	ldr	r0, [pc, #252]	; 4338 <do_dump+0x45c>
    4238:	e1a01003 	mov	r1, r3
    423c:	eb0022ce 	bl	cd7c <diag_printf>
    4240:	e51b2018 	ldr	r2, [fp, #-24]	; 0xffffffe8
    4244:	e51b301c 	ldr	r3, [fp, #-28]	; 0xffffffe4
    4248:	e0823003 	add	r3, r2, r3
    424c:	e50b3018 	str	r3, [fp, #-24]	; 0xffffffe8
    4250:	e51b2018 	ldr	r2, [fp, #-24]	; 0xffffffe8
    4254:	e51b30b8 	ldr	r3, [fp, #-184]	; 0xffffff48
    4258:	e1520003 	cmp	r2, r3
    425c:	3affffb6 	bcc	413c <do_dump+0x260>
    4260:	ea00001c 	b	42d8 <do_dump+0x3fc>
    4264:	e59f30c0 	ldr	r3, [pc, #192]	; 432c <do_dump+0x450>
    4268:	e5d33000 	ldrb	r3, [r3]
    426c:	e50b30e0 	str	r3, [fp, #-224]	; 0xffffff20
    4270:	e51b30e0 	ldr	r3, [fp, #-224]	; 0xffffff20
    4274:	e3530002 	cmp	r3, #2
    4278:	0a00000b 	beq	42ac <do_dump+0x3d0>
    427c:	e51b30e0 	ldr	r3, [fp, #-224]	; 0xffffff20
    4280:	e3530004 	cmp	r3, #4
    4284:	0a00000e 	beq	42c4 <do_dump+0x3e8>
    4288:	e51b30e0 	ldr	r3, [fp, #-224]	; 0xffffff20
    428c:	e3530001 	cmp	r3, #1
    4290:	1a000010 	bne	42d8 <do_dump+0x3fc>
    4294:	e51b30b4 	ldr	r3, [fp, #-180]	; 0xffffff4c
    4298:	e51b20b8 	ldr	r2, [fp, #-184]	; 0xffffff48
    429c:	e1a00003 	mov	r0, r3
    42a0:	e1a01002 	mov	r1, r2
    42a4:	eb001e2b 	bl	bb58 <diag_dump_buf>
    42a8:	ea00000a 	b	42d8 <do_dump+0x3fc>
    42ac:	e51b30b4 	ldr	r3, [fp, #-180]	; 0xffffff4c
    42b0:	e51b20b8 	ldr	r2, [fp, #-184]	; 0xffffff48
    42b4:	e1a00003 	mov	r0, r3
    42b8:	e1a01002 	mov	r1, r2
    42bc:	eb002317 	bl	cf20 <diag_dump_buf_16bit>
    42c0:	ea000004 	b	42d8 <do_dump+0x3fc>
    42c4:	e51b30b4 	ldr	r3, [fp, #-180]	; 0xffffff4c
    42c8:	e51b20b8 	ldr	r2, [fp, #-184]	; 0xffffff48
    42cc:	e1a00003 	mov	r0, r3
    42d0:	e1a01002 	mov	r1, r2
    42d4:	eb00236c 	bl	d08c <diag_dump_buf_32bit>
    42d8:	e51b20b4 	ldr	r2, [fp, #-180]	; 0xffffff4c
    42dc:	e51b30b8 	ldr	r3, [fp, #-184]	; 0xffffff48
    42e0:	e0822003 	add	r2, r2, r3
    42e4:	e59f3034 	ldr	r3, [pc, #52]	; 4320 <do_dump+0x444>
    42e8:	e5832000 	str	r2, [r3]
    42ec:	e51b20b8 	ldr	r2, [fp, #-184]	; 0xffffff48
    42f0:	e59f3030 	ldr	r3, [pc, #48]	; 4328 <do_dump+0x44c>
    42f4:	e5832000 	str	r2, [r3]
    42f8:	e24bd00c 	sub	sp, fp, #12
    42fc:	e89d6800 	ldm	sp, {fp, sp, lr}
    4300:	e12fff1e 	bx	lr
    4304:	0001569c 	.word	0x0001569c
    4308:	000156ac 	.word	0x000156ac
    430c:	000156b4 	.word	0x000156b4
    4310:	000156d8 	.word	0x000156d8
    4314:	000156ec 	.word	0x000156ec
    4318:	00015700 	.word	0x00015700
    431c:	00015714 	.word	0x00015714
    4320:	81002a80 	.word	0x81002a80
    4324:	00015718 	.word	0x00015718
    4328:	81002a7c 	.word	0x81002a7c
    432c:	81000298 	.word	0x81000298
    4330:	00015730 	.word	0x00015730
    4334:	0001573c 	.word	0x0001573c
    4338:	00015744 	.word	0x00015744

0000433c <do_x>:
    433c:	e1a0c00d 	mov	ip, sp
    4340:	e92dd800 	push	{fp, ip, lr, pc}
    4344:	e24cb004 	sub	fp, ip, #4
    4348:	e24dd008 	sub	sp, sp, #8
    434c:	e50b0010 	str	r0, [fp, #-16]
    4350:	e50b1014 	str	r1, [fp, #-20]	; 0xffffffec
    4354:	e51b0010 	ldr	r0, [fp, #-16]
    4358:	e51b1014 	ldr	r1, [fp, #-20]	; 0xffffffec
    435c:	ebfffede 	bl	3edc <do_dump>
    4360:	e24bd00c 	sub	sp, fp, #12
    4364:	e89d6800 	ldm	sp, {fp, sp, lr}
    4368:	e12fff1e 	bx	lr

0000436c <do_caches>:
    436c:	e1a0c00d 	mov	ip, sp
    4370:	e92dd810 	push	{r4, fp, ip, lr, pc}
    4374:	e24cb004 	sub	fp, ip, #4
    4378:	e24dd024 	sub	sp, sp, #36	; 0x24
    437c:	e50b0028 	str	r0, [fp, #-40]	; 0xffffffd8
    4380:	e50b102c 	str	r1, [fp, #-44]	; 0xffffffd4
    4384:	e3a03000 	mov	r3, #0
    4388:	e50b301c 	str	r3, [fp, #-28]	; 0xffffffe4
    438c:	e3a03000 	mov	r3, #0
    4390:	e50b3018 	str	r3, [fp, #-24]	; 0xffffffe8
    4394:	e51b3028 	ldr	r3, [fp, #-40]	; 0xffffffd8
    4398:	e3530002 	cmp	r3, #2
    439c:	1a000030 	bne	4464 <do_caches+0xf8>
    43a0:	e51b302c 	ldr	r3, [fp, #-44]	; 0xffffffd4
    43a4:	e2833004 	add	r3, r3, #4
    43a8:	e5933000 	ldr	r3, [r3]
    43ac:	e1a00003 	mov	r0, r3
    43b0:	e59f1118 	ldr	r1, [pc, #280]	; 44d0 <do_caches+0x164>
    43b4:	eb0028a2 	bl	e644 <strcasecmp>
    43b8:	e1a03000 	mov	r3, r0
    43bc:	e3530000 	cmp	r3, #0
    43c0:	1a00000b 	bne	43f4 <do_caches+0x88>
    43c4:	e10f3000 	mrs	r3, CPSR
    43c8:	e10f4000 	mrs	r4, CPSR
    43cc:	e38440c0 	orr	r4, r4, #192	; 0xc0
    43d0:	e129f004 	msr	CPSR_fc, r4
    43d4:	e50b3020 	str	r3, [fp, #-32]	; 0xffffffe0
    43d8:	e51b2020 	ldr	r2, [fp, #-32]	; 0xffffffe0
    43dc:	e10f3000 	mrs	r3, CPSR
    43e0:	e20240c0 	and	r4, r2, #192	; 0xc0
    43e4:	e3c330c0 	bic	r3, r3, #192	; 0xc0
    43e8:	e1833004 	orr	r3, r3, r4
    43ec:	e129f003 	msr	CPSR_fc, r3
    43f0:	ea000033 	b	44c4 <do_caches+0x158>
    43f4:	e51b302c 	ldr	r3, [fp, #-44]	; 0xffffffd4
    43f8:	e2833004 	add	r3, r3, #4
    43fc:	e5933000 	ldr	r3, [r3]
    4400:	e1a00003 	mov	r0, r3
    4404:	e59f10c8 	ldr	r1, [pc, #200]	; 44d4 <do_caches+0x168>
    4408:	eb00288d 	bl	e644 <strcasecmp>
    440c:	e1a03000 	mov	r3, r0
    4410:	e3530000 	cmp	r3, #0
    4414:	1a00000b 	bne	4448 <do_caches+0xdc>
    4418:	e10f3000 	mrs	r3, CPSR
    441c:	e10f4000 	mrs	r4, CPSR
    4420:	e38440c0 	orr	r4, r4, #192	; 0xc0
    4424:	e129f004 	msr	CPSR_fc, r4
    4428:	e50b3020 	str	r3, [fp, #-32]	; 0xffffffe0
    442c:	e51b2020 	ldr	r2, [fp, #-32]	; 0xffffffe0
    4430:	e10f3000 	mrs	r3, CPSR
    4434:	e20240c0 	and	r4, r2, #192	; 0xc0
    4438:	e3c330c0 	bic	r3, r3, #192	; 0xc0
    443c:	e1833004 	orr	r3, r3, r4
    4440:	e129f003 	msr	CPSR_fc, r3
    4444:	ea00001e 	b	44c4 <do_caches+0x158>
    4448:	e51b302c 	ldr	r3, [fp, #-44]	; 0xffffffd4
    444c:	e2833004 	add	r3, r3, #4
    4450:	e5933000 	ldr	r3, [r3]
    4454:	e59f007c 	ldr	r0, [pc, #124]	; 44d8 <do_caches+0x16c>
    4458:	e1a01003 	mov	r1, r3
    445c:	eb002246 	bl	cd7c <diag_printf>
    4460:	ea000017 	b	44c4 <do_caches+0x158>
    4464:	e3a03000 	mov	r3, #0
    4468:	e50b301c 	str	r3, [fp, #-28]	; 0xffffffe4
    446c:	e3a03000 	mov	r3, #0
    4470:	e50b3018 	str	r3, [fp, #-24]	; 0xffffffe8
    4474:	e51b301c 	ldr	r3, [fp, #-28]	; 0xffffffe4
    4478:	e3530000 	cmp	r3, #0
    447c:	0a000002 	beq	448c <do_caches+0x120>
    4480:	e59f3054 	ldr	r3, [pc, #84]	; 44dc <do_caches+0x170>
    4484:	e50b3034 	str	r3, [fp, #-52]	; 0xffffffcc
    4488:	ea000001 	b	4494 <do_caches+0x128>
    448c:	e59f304c 	ldr	r3, [pc, #76]	; 44e0 <do_caches+0x174>
    4490:	e50b3034 	str	r3, [fp, #-52]	; 0xffffffcc
    4494:	e51b3018 	ldr	r3, [fp, #-24]	; 0xffffffe8
    4498:	e3530000 	cmp	r3, #0
    449c:	0a000002 	beq	44ac <do_caches+0x140>
    44a0:	e59f3034 	ldr	r3, [pc, #52]	; 44dc <do_caches+0x170>
    44a4:	e50b3030 	str	r3, [fp, #-48]	; 0xffffffd0
    44a8:	ea000001 	b	44b4 <do_caches+0x148>
    44ac:	e59f302c 	ldr	r3, [pc, #44]	; 44e0 <do_caches+0x174>
    44b0:	e50b3030 	str	r3, [fp, #-48]	; 0xffffffd0
    44b4:	e59f0028 	ldr	r0, [pc, #40]	; 44e4 <do_caches+0x178>
    44b8:	e51b1034 	ldr	r1, [fp, #-52]	; 0xffffffcc
    44bc:	e51b2030 	ldr	r2, [fp, #-48]	; 0xffffffd0
    44c0:	eb00222d 	bl	cd7c <diag_printf>
    44c4:	e24bd010 	sub	sp, fp, #16
    44c8:	e89d6810 	ldm	sp, {r4, fp, sp, lr}
    44cc:	e12fff1e 	bx	lr
    44d0:	00015778 	.word	0x00015778
    44d4:	0001577c 	.word	0x0001577c
    44d8:	00015780 	.word	0x00015780
    44dc:	00015798 	.word	0x00015798
    44e0:	0001579c 	.word	0x0001579c
    44e4:	000157a0 	.word	0x000157a0

000044e8 <do_iopoke>:
    44e8:	e1a0c00d 	mov	ip, sp
    44ec:	e92dd800 	push	{fp, ip, lr, pc}
    44f0:	e24cb004 	sub	fp, ip, #4
    44f4:	e24dd0b8 	sub	sp, sp, #184	; 0xb8
    44f8:	e50b00a8 	str	r0, [fp, #-168]	; 0xffffff58
    44fc:	e50b10ac 	str	r1, [fp, #-172]	; 0xffffff54
    4500:	e3a03000 	mov	r3, #0
    4504:	e50b3098 	str	r3, [fp, #-152]	; 0xffffff68
    4508:	e3a03000 	mov	r3, #0
    450c:	e50b309c 	str	r3, [fp, #-156]	; 0xffffff64
    4510:	e3a03000 	mov	r3, #0
    4514:	e50b30a0 	str	r3, [fp, #-160]	; 0xffffff60
    4518:	e3a03001 	mov	r3, #1
    451c:	e50b3010 	str	r3, [fp, #-16]
    4520:	e24b2088 	sub	r2, fp, #136	; 0x88
    4524:	e24b308c 	sub	r3, fp, #140	; 0x8c
    4528:	e58d3000 	str	r3, [sp]
    452c:	e24b3090 	sub	r3, fp, #144	; 0x90
    4530:	e58d3004 	str	r3, [sp, #4]
    4534:	e59f321c 	ldr	r3, [pc, #540]	; 4758 <do_iopoke+0x270>
    4538:	e58d3008 	str	r3, [sp, #8]
    453c:	e1a00002 	mov	r0, r2
    4540:	e3a01062 	mov	r1, #98	; 0x62
    4544:	e3a02001 	mov	r2, #1
    4548:	e3a03000 	mov	r3, #0
    454c:	eb0030b5 	bl	10828 <init_opts>
    4550:	e24b3088 	sub	r3, fp, #136	; 0x88
    4554:	e2832018 	add	r2, r3, #24
    4558:	e24b30a4 	sub	r3, fp, #164	; 0xa4
    455c:	e58d3000 	str	r3, [sp]
    4560:	e24b3094 	sub	r3, fp, #148	; 0x94
    4564:	e58d3004 	str	r3, [sp, #4]
    4568:	e59f31ec 	ldr	r3, [pc, #492]	; 475c <do_iopoke+0x274>
    456c:	e58d3008 	str	r3, [sp, #8]
    4570:	e1a00002 	mov	r0, r2
    4574:	e3a01076 	mov	r1, #118	; 0x76
    4578:	e3a02001 	mov	r2, #1
    457c:	e3a03000 	mov	r3, #0
    4580:	eb0030a8 	bl	10828 <init_opts>
    4584:	e24b3088 	sub	r3, fp, #136	; 0x88
    4588:	e2832030 	add	r2, r3, #48	; 0x30
    458c:	e24b3098 	sub	r3, fp, #152	; 0x98
    4590:	e58d3000 	str	r3, [sp]
    4594:	e3a03000 	mov	r3, #0
    4598:	e58d3004 	str	r3, [sp, #4]
    459c:	e59f31bc 	ldr	r3, [pc, #444]	; 4760 <do_iopoke+0x278>
    45a0:	e58d3008 	str	r3, [sp, #8]
    45a4:	e1a00002 	mov	r0, r2
    45a8:	e3a01034 	mov	r1, #52	; 0x34
    45ac:	e3a02000 	mov	r2, #0
    45b0:	e3a03002 	mov	r3, #2
    45b4:	eb00309b 	bl	10828 <init_opts>
    45b8:	e24b3088 	sub	r3, fp, #136	; 0x88
    45bc:	e2832048 	add	r2, r3, #72	; 0x48
    45c0:	e24b309c 	sub	r3, fp, #156	; 0x9c
    45c4:	e58d3000 	str	r3, [sp]
    45c8:	e3a03000 	mov	r3, #0
    45cc:	e58d3004 	str	r3, [sp, #4]
    45d0:	e59f318c 	ldr	r3, [pc, #396]	; 4764 <do_iopoke+0x27c>
    45d4:	e58d3008 	str	r3, [sp, #8]
    45d8:	e1a00002 	mov	r0, r2
    45dc:	e3a01032 	mov	r1, #50	; 0x32
    45e0:	e3a02000 	mov	r2, #0
    45e4:	e3a03002 	mov	r3, #2
    45e8:	eb00308e 	bl	10828 <init_opts>
    45ec:	e24b3088 	sub	r3, fp, #136	; 0x88
    45f0:	e2832060 	add	r2, r3, #96	; 0x60
    45f4:	e24b30a0 	sub	r3, fp, #160	; 0xa0
    45f8:	e58d3000 	str	r3, [sp]
    45fc:	e3a03000 	mov	r3, #0
    4600:	e58d3004 	str	r3, [sp, #4]
    4604:	e59f315c 	ldr	r3, [pc, #348]	; 4768 <do_iopoke+0x280>
    4608:	e58d3008 	str	r3, [sp, #8]
    460c:	e1a00002 	mov	r0, r2
    4610:	e3a01031 	mov	r1, #49	; 0x31
    4614:	e3a02000 	mov	r2, #0
    4618:	e3a03002 	mov	r3, #2
    461c:	eb003081 	bl	10828 <init_opts>
    4620:	e24bc088 	sub	ip, fp, #136	; 0x88
    4624:	e3a03005 	mov	r3, #5
    4628:	e58d3000 	str	r3, [sp]
    462c:	e3a03000 	mov	r3, #0
    4630:	e58d3004 	str	r3, [sp, #4]
    4634:	e3a03000 	mov	r3, #0
    4638:	e58d3008 	str	r3, [sp, #8]
    463c:	e59f3128 	ldr	r3, [pc, #296]	; 476c <do_iopoke+0x284>
    4640:	e58d300c 	str	r3, [sp, #12]
    4644:	e51b00a8 	ldr	r0, [fp, #-168]	; 0xffffff58
    4648:	e51b10ac 	ldr	r1, [fp, #-172]	; 0xffffff54
    464c:	e3a02001 	mov	r2, #1
    4650:	e1a0300c 	mov	r3, ip
    4654:	eb003091 	bl	108a0 <scan_opts>
    4658:	e1a03000 	mov	r3, r0
    465c:	e3530000 	cmp	r3, #0
    4660:	0a000039 	beq	474c <do_iopoke+0x264>
    4664:	e51b3090 	ldr	r3, [fp, #-144]	; 0xffffff70
    4668:	e3530000 	cmp	r3, #0
    466c:	1a000002 	bne	467c <do_iopoke+0x194>
    4670:	e59f00f8 	ldr	r0, [pc, #248]	; 4770 <do_iopoke+0x288>
    4674:	eb0021c0 	bl	cd7c <diag_printf>
    4678:	ea000033 	b	474c <do_iopoke+0x264>
    467c:	e51b3094 	ldr	r3, [fp, #-148]	; 0xffffff6c
    4680:	e3530000 	cmp	r3, #0
    4684:	1a000002 	bne	4694 <do_iopoke+0x1ac>
    4688:	e59f00e4 	ldr	r0, [pc, #228]	; 4774 <do_iopoke+0x28c>
    468c:	eb0021ba 	bl	cd7c <diag_printf>
    4690:	ea00002d 	b	474c <do_iopoke+0x264>
    4694:	e51b3098 	ldr	r3, [fp, #-152]	; 0xffffff68
    4698:	e3530000 	cmp	r3, #0
    469c:	0a000002 	beq	46ac <do_iopoke+0x1c4>
    46a0:	e3a03004 	mov	r3, #4
    46a4:	e50b3010 	str	r3, [fp, #-16]
    46a8:	ea00000a 	b	46d8 <do_iopoke+0x1f0>
    46ac:	e51b309c 	ldr	r3, [fp, #-156]	; 0xffffff64
    46b0:	e3530000 	cmp	r3, #0
    46b4:	0a000002 	beq	46c4 <do_iopoke+0x1dc>
    46b8:	e3a03002 	mov	r3, #2
    46bc:	e50b3010 	str	r3, [fp, #-16]
    46c0:	ea000004 	b	46d8 <do_iopoke+0x1f0>
    46c4:	e51b30a0 	ldr	r3, [fp, #-160]	; 0xffffff60
    46c8:	e3530000 	cmp	r3, #0
    46cc:	0a000001 	beq	46d8 <do_iopoke+0x1f0>
    46d0:	e3a03001 	mov	r3, #1
    46d4:	e50b3010 	str	r3, [fp, #-16]
    46d8:	e51b3010 	ldr	r3, [fp, #-16]
    46dc:	e50b30b0 	str	r3, [fp, #-176]	; 0xffffff50
    46e0:	e51b30b0 	ldr	r3, [fp, #-176]	; 0xffffff50
    46e4:	e3530002 	cmp	r3, #2
    46e8:	0a00000b 	beq	471c <do_iopoke+0x234>
    46ec:	e51b30b0 	ldr	r3, [fp, #-176]	; 0xffffff50
    46f0:	e3530004 	cmp	r3, #4
    46f4:	0a000003 	beq	4708 <do_iopoke+0x220>
    46f8:	e51b30b0 	ldr	r3, [fp, #-176]	; 0xffffff50
    46fc:	e3530001 	cmp	r3, #1
    4700:	0a00000c 	beq	4738 <do_iopoke+0x250>
    4704:	ea000010 	b	474c <do_iopoke+0x264>
    4708:	e51b308c 	ldr	r3, [fp, #-140]	; 0xffffff74
    470c:	e1a02003 	mov	r2, r3
    4710:	e51b30a4 	ldr	r3, [fp, #-164]	; 0xffffff5c
    4714:	e5823000 	str	r3, [r2]
    4718:	ea00000b 	b	474c <do_iopoke+0x264>
    471c:	e51b308c 	ldr	r3, [fp, #-140]	; 0xffffff74
    4720:	e1a02003 	mov	r2, r3
    4724:	e51b30a4 	ldr	r3, [fp, #-164]	; 0xffffff5c
    4728:	e1a03803 	lsl	r3, r3, #16
    472c:	e1a03823 	lsr	r3, r3, #16
    4730:	e1c230b0 	strh	r3, [r2]
    4734:	ea000004 	b	474c <do_iopoke+0x264>
    4738:	e51b308c 	ldr	r3, [fp, #-140]	; 0xffffff74
    473c:	e1a02003 	mov	r2, r3
    4740:	e51b30a4 	ldr	r3, [fp, #-164]	; 0xffffff5c
    4744:	e20330ff 	and	r3, r3, #255	; 0xff
    4748:	e5c23000 	strb	r3, [r2]
    474c:	e24bd00c 	sub	sp, fp, #12
    4750:	e89d6800 	ldm	sp, {fp, sp, lr}
    4754:	e12fff1e 	bx	lr
    4758:	00015840 	.word	0x00015840
    475c:	00015850 	.word	0x00015850
    4760:	00015858 	.word	0x00015858
    4764:	0001586c 	.word	0x0001586c
    4768:	00015880 	.word	0x00015880
    476c:	00015894 	.word	0x00015894
    4770:	00015898 	.word	0x00015898
    4774:	000158b4 	.word	0x000158b4

00004778 <do_iopeek>:
    4778:	e1a0c00d 	mov	ip, sp
    477c:	e92dd800 	push	{fp, ip, lr, pc}
    4780:	e24cb004 	sub	fp, ip, #4
    4784:	e24dd0a0 	sub	sp, sp, #160	; 0xa0
    4788:	e50b0090 	str	r0, [fp, #-144]	; 0xffffff70
    478c:	e50b1094 	str	r1, [fp, #-148]	; 0xffffff6c
    4790:	e3a03000 	mov	r3, #0
    4794:	e50b3080 	str	r3, [fp, #-128]	; 0xffffff80
    4798:	e3a03000 	mov	r3, #0
    479c:	e50b3084 	str	r3, [fp, #-132]	; 0xffffff7c
    47a0:	e3a03000 	mov	r3, #0
    47a4:	e50b3088 	str	r3, [fp, #-136]	; 0xffffff78
    47a8:	e3a03001 	mov	r3, #1
    47ac:	e50b3014 	str	r3, [fp, #-20]	; 0xffffffec
    47b0:	e24b2074 	sub	r2, fp, #116	; 0x74
    47b4:	e24b3078 	sub	r3, fp, #120	; 0x78
    47b8:	e58d3000 	str	r3, [sp]
    47bc:	e24b307c 	sub	r3, fp, #124	; 0x7c
    47c0:	e58d3004 	str	r3, [sp, #4]
    47c4:	e59f3200 	ldr	r3, [pc, #512]	; 49cc <do_iopeek+0x254>
    47c8:	e58d3008 	str	r3, [sp, #8]
    47cc:	e1a00002 	mov	r0, r2
    47d0:	e3a01062 	mov	r1, #98	; 0x62
    47d4:	e3a02001 	mov	r2, #1
    47d8:	e3a03000 	mov	r3, #0
    47dc:	eb003011 	bl	10828 <init_opts>
    47e0:	e24b3074 	sub	r3, fp, #116	; 0x74
    47e4:	e2832018 	add	r2, r3, #24
    47e8:	e24b3080 	sub	r3, fp, #128	; 0x80
    47ec:	e58d3000 	str	r3, [sp]
    47f0:	e3a03000 	mov	r3, #0
    47f4:	e58d3004 	str	r3, [sp, #4]
    47f8:	e59f31d0 	ldr	r3, [pc, #464]	; 49d0 <do_iopeek+0x258>
    47fc:	e58d3008 	str	r3, [sp, #8]
    4800:	e1a00002 	mov	r0, r2
    4804:	e3a01034 	mov	r1, #52	; 0x34
    4808:	e3a02000 	mov	r2, #0
    480c:	e3a03002 	mov	r3, #2
    4810:	eb003004 	bl	10828 <init_opts>
    4814:	e24b3074 	sub	r3, fp, #116	; 0x74
    4818:	e2832030 	add	r2, r3, #48	; 0x30
    481c:	e24b3084 	sub	r3, fp, #132	; 0x84
    4820:	e58d3000 	str	r3, [sp]
    4824:	e3a03000 	mov	r3, #0
    4828:	e58d3004 	str	r3, [sp, #4]
    482c:	e59f31a0 	ldr	r3, [pc, #416]	; 49d4 <do_iopeek+0x25c>
    4830:	e58d3008 	str	r3, [sp, #8]
    4834:	e1a00002 	mov	r0, r2
    4838:	e3a01032 	mov	r1, #50	; 0x32
    483c:	e3a02000 	mov	r2, #0
    4840:	e3a03002 	mov	r3, #2
    4844:	eb002ff7 	bl	10828 <init_opts>
    4848:	e24b3074 	sub	r3, fp, #116	; 0x74
    484c:	e2832048 	add	r2, r3, #72	; 0x48
    4850:	e24b3088 	sub	r3, fp, #136	; 0x88
    4854:	e58d3000 	str	r3, [sp]
    4858:	e3a03000 	mov	r3, #0
    485c:	e58d3004 	str	r3, [sp, #4]
    4860:	e59f3170 	ldr	r3, [pc, #368]	; 49d8 <do_iopeek+0x260>
    4864:	e58d3008 	str	r3, [sp, #8]
    4868:	e1a00002 	mov	r0, r2
    486c:	e3a01031 	mov	r1, #49	; 0x31
    4870:	e3a02000 	mov	r2, #0
    4874:	e3a03002 	mov	r3, #2
    4878:	eb002fea 	bl	10828 <init_opts>
    487c:	e24bc074 	sub	ip, fp, #116	; 0x74
    4880:	e3a03004 	mov	r3, #4
    4884:	e58d3000 	str	r3, [sp]
    4888:	e3a03000 	mov	r3, #0
    488c:	e58d3004 	str	r3, [sp, #4]
    4890:	e3a03000 	mov	r3, #0
    4894:	e58d3008 	str	r3, [sp, #8]
    4898:	e59f313c 	ldr	r3, [pc, #316]	; 49dc <do_iopeek+0x264>
    489c:	e58d300c 	str	r3, [sp, #12]
    48a0:	e51b0090 	ldr	r0, [fp, #-144]	; 0xffffff70
    48a4:	e51b1094 	ldr	r1, [fp, #-148]	; 0xffffff6c
    48a8:	e3a02001 	mov	r2, #1
    48ac:	e1a0300c 	mov	r3, ip
    48b0:	eb002ffa 	bl	108a0 <scan_opts>
    48b4:	e1a03000 	mov	r3, r0
    48b8:	e3530000 	cmp	r3, #0
    48bc:	0a00003f 	beq	49c0 <do_iopeek+0x248>
    48c0:	e51b307c 	ldr	r3, [fp, #-124]	; 0xffffff84
    48c4:	e3530000 	cmp	r3, #0
    48c8:	1a000002 	bne	48d8 <do_iopeek+0x160>
    48cc:	e59f010c 	ldr	r0, [pc, #268]	; 49e0 <do_iopeek+0x268>
    48d0:	eb002129 	bl	cd7c <diag_printf>
    48d4:	ea000039 	b	49c0 <do_iopeek+0x248>
    48d8:	e51b3080 	ldr	r3, [fp, #-128]	; 0xffffff80
    48dc:	e3530000 	cmp	r3, #0
    48e0:	0a000002 	beq	48f0 <do_iopeek+0x178>
    48e4:	e3a03004 	mov	r3, #4
    48e8:	e50b3014 	str	r3, [fp, #-20]	; 0xffffffec
    48ec:	ea00000a 	b	491c <do_iopeek+0x1a4>
    48f0:	e51b3084 	ldr	r3, [fp, #-132]	; 0xffffff7c
    48f4:	e3530000 	cmp	r3, #0
    48f8:	0a000002 	beq	4908 <do_iopeek+0x190>
    48fc:	e3a03002 	mov	r3, #2
    4900:	e50b3014 	str	r3, [fp, #-20]	; 0xffffffec
    4904:	ea000004 	b	491c <do_iopeek+0x1a4>
    4908:	e51b3088 	ldr	r3, [fp, #-136]	; 0xffffff78
    490c:	e3530000 	cmp	r3, #0
    4910:	0a000001 	beq	491c <do_iopeek+0x1a4>
    4914:	e3a03001 	mov	r3, #1
    4918:	e50b3014 	str	r3, [fp, #-20]	; 0xffffffec
    491c:	e51b3014 	ldr	r3, [fp, #-20]	; 0xffffffec
    4920:	e50b3098 	str	r3, [fp, #-152]	; 0xffffff68
    4924:	e51b3098 	ldr	r3, [fp, #-152]	; 0xffffff68
    4928:	e3530002 	cmp	r3, #2
    492c:	0a00000f 	beq	4970 <do_iopeek+0x1f8>
    4930:	e51b3098 	ldr	r3, [fp, #-152]	; 0xffffff68
    4934:	e3530004 	cmp	r3, #4
    4938:	0a000003 	beq	494c <do_iopeek+0x1d4>
    493c:	e51b3098 	ldr	r3, [fp, #-152]	; 0xffffff68
    4940:	e3530001 	cmp	r3, #1
    4944:	0a000014 	beq	499c <do_iopeek+0x224>
    4948:	ea00001c 	b	49c0 <do_iopeek+0x248>
    494c:	e51b3078 	ldr	r3, [fp, #-120]	; 0xffffff88
    4950:	e5933000 	ldr	r3, [r3]
    4954:	e50b3010 	str	r3, [fp, #-16]
    4958:	e51b3078 	ldr	r3, [fp, #-120]	; 0xffffff88
    495c:	e59f0080 	ldr	r0, [pc, #128]	; 49e4 <do_iopeek+0x26c>
    4960:	e1a01003 	mov	r1, r3
    4964:	e51b2010 	ldr	r2, [fp, #-16]
    4968:	eb002103 	bl	cd7c <diag_printf>
    496c:	ea000013 	b	49c0 <do_iopeek+0x248>
    4970:	e51b3078 	ldr	r3, [fp, #-120]	; 0xffffff88
    4974:	e1d330b0 	ldrh	r3, [r3]
    4978:	e1a03803 	lsl	r3, r3, #16
    497c:	e1a03823 	lsr	r3, r3, #16
    4980:	e50b3010 	str	r3, [fp, #-16]
    4984:	e51b3078 	ldr	r3, [fp, #-120]	; 0xffffff88
    4988:	e59f0058 	ldr	r0, [pc, #88]	; 49e8 <do_iopeek+0x270>
    498c:	e1a01003 	mov	r1, r3
    4990:	e51b2010 	ldr	r2, [fp, #-16]
    4994:	eb0020f8 	bl	cd7c <diag_printf>
    4998:	ea000008 	b	49c0 <do_iopeek+0x248>
    499c:	e51b3078 	ldr	r3, [fp, #-120]	; 0xffffff88
    49a0:	e5d33000 	ldrb	r3, [r3]
    49a4:	e20330ff 	and	r3, r3, #255	; 0xff
    49a8:	e50b3010 	str	r3, [fp, #-16]
    49ac:	e51b3078 	ldr	r3, [fp, #-120]	; 0xffffff88
    49b0:	e59f0034 	ldr	r0, [pc, #52]	; 49ec <do_iopeek+0x274>
    49b4:	e1a01003 	mov	r1, r3
    49b8:	e51b2010 	ldr	r2, [fp, #-16]
    49bc:	eb0020ee 	bl	cd7c <diag_printf>
    49c0:	e24bd00c 	sub	sp, fp, #12
    49c4:	e89d6800 	ldm	sp, {fp, sp, lr}
    49c8:	e12fff1e 	bx	lr
    49cc:	00015840 	.word	0x00015840
    49d0:	00015858 	.word	0x00015858
    49d4:	0001586c 	.word	0x0001586c
    49d8:	00015880 	.word	0x00015880
    49dc:	00015894 	.word	0x00015894
    49e0:	000158cc 	.word	0x000158cc
    49e4:	000158e8 	.word	0x000158e8
    49e8:	000158fc 	.word	0x000158fc
    49ec:	00015910 	.word	0x00015910

000049f0 <disk_parse_filename>:
    49f0:	e1a0c00d 	mov	ip, sp
    49f4:	e92dd800 	push	{fp, ip, lr, pc}
    49f8:	e24cb004 	sub	fp, ip, #4
    49fc:	e24dd020 	sub	sp, sp, #32
    4a00:	e50b0020 	str	r0, [fp, #-32]	; 0xffffffe0
    4a04:	e50b1024 	str	r1, [fp, #-36]	; 0xffffffdc
    4a08:	e50b2028 	str	r2, [fp, #-40]	; 0xffffffd8
    4a0c:	e3a03000 	mov	r3, #0
    4a10:	e50b3010 	str	r3, [fp, #-16]
    4a14:	e51b3010 	ldr	r3, [fp, #-16]
    4a18:	e50b3014 	str	r3, [fp, #-20]	; 0xffffffec
    4a1c:	e51b3014 	ldr	r3, [fp, #-20]	; 0xffffffec
    4a20:	e50b3018 	str	r3, [fp, #-24]	; 0xffffffe8
    4a24:	e51b3020 	ldr	r3, [fp, #-32]	; 0xffffffe0
    4a28:	e5d33000 	ldrb	r3, [r3]
    4a2c:	e3530068 	cmp	r3, #104	; 0x68
    4a30:	1a000036 	bne	4b10 <disk_parse_filename+0x120>
    4a34:	e51b3020 	ldr	r3, [fp, #-32]	; 0xffffffe0
    4a38:	e2833001 	add	r3, r3, #1
    4a3c:	e5d33000 	ldrb	r3, [r3]
    4a40:	e3530064 	cmp	r3, #100	; 0x64
    4a44:	1a000031 	bne	4b10 <disk_parse_filename+0x120>
    4a48:	e3a03001 	mov	r3, #1
    4a4c:	e50b3018 	str	r3, [fp, #-24]	; 0xffffffe8
    4a50:	e51b3020 	ldr	r3, [fp, #-32]	; 0xffffffe0
    4a54:	e2833002 	add	r3, r3, #2
    4a58:	e5d33000 	ldrb	r3, [r3]
    4a5c:	e3530060 	cmp	r3, #96	; 0x60
    4a60:	9a000004 	bls	4a78 <disk_parse_filename+0x88>
    4a64:	e51b3020 	ldr	r3, [fp, #-32]	; 0xffffffe0
    4a68:	e2833002 	add	r3, r3, #2
    4a6c:	e5d33000 	ldrb	r3, [r3]
    4a70:	e353007a 	cmp	r3, #122	; 0x7a
    4a74:	9a000002 	bls	4a84 <disk_parse_filename+0x94>
    4a78:	e3a03000 	mov	r3, #0
    4a7c:	e50b302c 	str	r3, [fp, #-44]	; 0xffffffd4
    4a80:	ea00006a 	b	4c30 <disk_parse_filename+0x240>
    4a84:	e51b3020 	ldr	r3, [fp, #-32]	; 0xffffffe0
    4a88:	e2833002 	add	r3, r3, #2
    4a8c:	e5d33000 	ldrb	r3, [r3]
    4a90:	e2433061 	sub	r3, r3, #97	; 0x61
    4a94:	e50b3014 	str	r3, [fp, #-20]	; 0xffffffec
    4a98:	e51b3020 	ldr	r3, [fp, #-32]	; 0xffffffe0
    4a9c:	e2833003 	add	r3, r3, #3
    4aa0:	e5d33000 	ldrb	r3, [r3]
    4aa4:	e3530030 	cmp	r3, #48	; 0x30
    4aa8:	9a000004 	bls	4ac0 <disk_parse_filename+0xd0>
    4aac:	e51b3020 	ldr	r3, [fp, #-32]	; 0xffffffe0
    4ab0:	e2833003 	add	r3, r3, #3
    4ab4:	e5d33000 	ldrb	r3, [r3]
    4ab8:	e3530038 	cmp	r3, #56	; 0x38
    4abc:	9a000002 	bls	4acc <disk_parse_filename+0xdc>
    4ac0:	e3a03000 	mov	r3, #0
    4ac4:	e50b302c 	str	r3, [fp, #-44]	; 0xffffffd4
    4ac8:	ea000058 	b	4c30 <disk_parse_filename+0x240>
    4acc:	e51b3020 	ldr	r3, [fp, #-32]	; 0xffffffe0
    4ad0:	e2833003 	add	r3, r3, #3
    4ad4:	e5d33000 	ldrb	r3, [r3]
    4ad8:	e2433031 	sub	r3, r3, #49	; 0x31
    4adc:	e50b3010 	str	r3, [fp, #-16]
    4ae0:	e51b3020 	ldr	r3, [fp, #-32]	; 0xffffffe0
    4ae4:	e2833004 	add	r3, r3, #4
    4ae8:	e5d33000 	ldrb	r3, [r3]
    4aec:	e353003a 	cmp	r3, #58	; 0x3a
    4af0:	0a000002 	beq	4b00 <disk_parse_filename+0x110>
    4af4:	e3a03000 	mov	r3, #0
    4af8:	e50b302c 	str	r3, [fp, #-44]	; 0xffffffd4
    4afc:	ea00004b 	b	4c30 <disk_parse_filename+0x240>
    4b00:	e51b3020 	ldr	r3, [fp, #-32]	; 0xffffffe0
    4b04:	e2832005 	add	r2, r3, #5
    4b08:	e51b3028 	ldr	r3, [fp, #-40]	; 0xffffffd8
    4b0c:	e5832000 	str	r2, [r3]
    4b10:	e51b3018 	ldr	r3, [fp, #-24]	; 0xffffffe8
    4b14:	e3530000 	cmp	r3, #0
    4b18:	0a000042 	beq	4c28 <disk_parse_filename+0x238>
    4b1c:	e3a03000 	mov	r3, #0
    4b20:	e50b301c 	str	r3, [fp, #-28]	; 0xffffffe4
    4b24:	ea00003c 	b	4c1c <disk_parse_filename+0x22c>
    4b28:	e51b101c 	ldr	r1, [fp, #-28]	; 0xffffffe4
    4b2c:	e59f0110 	ldr	r0, [pc, #272]	; 4c44 <disk_parse_filename+0x254>
    4b30:	e1a03001 	mov	r3, r1
    4b34:	e1a02103 	lsl	r2, r3, #2
    4b38:	e1a03102 	lsl	r3, r2, #2
    4b3c:	e0623003 	rsb	r3, r2, r3
    4b40:	e0613003 	rsb	r3, r1, r3
    4b44:	e1a03083 	lsl	r3, r3, #1
    4b48:	e2833001 	add	r3, r3, #1
    4b4c:	e3a02004 	mov	r2, #4
    4b50:	e1a03183 	lsl	r3, r3, #3
    4b54:	e0803003 	add	r3, r0, r3
    4b58:	e0833002 	add	r3, r3, r2
    4b5c:	e1d330b0 	ldrh	r3, [r3]
    4b60:	e1a03803 	lsl	r3, r3, #16
    4b64:	e1a02843 	asr	r2, r3, #16
    4b68:	e51b3018 	ldr	r3, [fp, #-24]	; 0xffffffe8
    4b6c:	e1520003 	cmp	r2, r3
    4b70:	1a000026 	bne	4c10 <disk_parse_filename+0x220>
    4b74:	e51b101c 	ldr	r1, [fp, #-28]	; 0xffffffe4
    4b78:	e59f00c4 	ldr	r0, [pc, #196]	; 4c44 <disk_parse_filename+0x254>
    4b7c:	e1a03001 	mov	r3, r1
    4b80:	e1a02103 	lsl	r2, r3, #2
    4b84:	e1a03102 	lsl	r3, r2, #2
    4b88:	e0623003 	rsb	r3, r2, r3
    4b8c:	e0613003 	rsb	r3, r1, r3
    4b90:	e1a03083 	lsl	r3, r3, #1
    4b94:	e2833001 	add	r3, r3, #1
    4b98:	e3a02006 	mov	r2, #6
    4b9c:	e1a03183 	lsl	r3, r3, #3
    4ba0:	e0803003 	add	r3, r0, r3
    4ba4:	e0833002 	add	r3, r3, r2
    4ba8:	e1d330b0 	ldrh	r3, [r3]
    4bac:	e1a03803 	lsl	r3, r3, #16
    4bb0:	e1a02843 	asr	r2, r3, #16
    4bb4:	e51b3014 	ldr	r3, [fp, #-20]	; 0xffffffec
    4bb8:	e1520003 	cmp	r2, r3
    4bbc:	1a000013 	bne	4c10 <disk_parse_filename+0x220>
    4bc0:	e51b101c 	ldr	r1, [fp, #-28]	; 0xffffffe4
    4bc4:	e1a03001 	mov	r3, r1
    4bc8:	e1a02103 	lsl	r2, r3, #2
    4bcc:	e1a03102 	lsl	r3, r2, #2
    4bd0:	e0623003 	rsb	r3, r2, r3
    4bd4:	e0613003 	rsb	r3, r1, r3
    4bd8:	e2833001 	add	r3, r3, #1
    4bdc:	e1a02203 	lsl	r2, r3, #4
    4be0:	e59f305c 	ldr	r3, [pc, #92]	; 4c44 <disk_parse_filename+0x254>
    4be4:	e0821003 	add	r1, r2, r3
    4be8:	e51b3010 	ldr	r3, [fp, #-16]
    4bec:	e1a02103 	lsl	r2, r3, #2
    4bf0:	e1a03102 	lsl	r3, r2, #2
    4bf4:	e0823003 	add	r3, r2, r3
    4bf8:	e0812003 	add	r2, r1, r3
    4bfc:	e51b3024 	ldr	r3, [fp, #-36]	; 0xffffffdc
    4c00:	e5832000 	str	r2, [r3]
    4c04:	e3a03001 	mov	r3, #1
    4c08:	e50b302c 	str	r3, [fp, #-44]	; 0xffffffd4
    4c0c:	ea000007 	b	4c30 <disk_parse_filename+0x240>
    4c10:	e51b301c 	ldr	r3, [fp, #-28]	; 0xffffffe4
    4c14:	e2833001 	add	r3, r3, #1
    4c18:	e50b301c 	str	r3, [fp, #-28]	; 0xffffffe4
    4c1c:	e51b301c 	ldr	r3, [fp, #-28]	; 0xffffffe4
    4c20:	e3530003 	cmp	r3, #3
    4c24:	daffffbf 	ble	4b28 <disk_parse_filename+0x138>
    4c28:	e3a03000 	mov	r3, #0
    4c2c:	e50b302c 	str	r3, [fp, #-44]	; 0xffffffd4
    4c30:	e51b302c 	ldr	r3, [fp, #-44]	; 0xffffffd4
    4c34:	e1a00003 	mov	r0, r3
    4c38:	e24bd00c 	sub	sp, fp, #12
    4c3c:	e89d6800 	ldm	sp, {fp, sp, lr}
    4c40:	e12fff1e 	bx	lr
    4c44:	81002a88 	.word	0x81002a88

00004c48 <systype_name>:
    4c48:	e1a0c00d 	mov	ip, sp
    4c4c:	e92dd800 	push	{fp, ip, lr, pc}
    4c50:	e24cb004 	sub	fp, ip, #4
    4c54:	e24dd010 	sub	sp, sp, #16
    4c58:	e50b0018 	str	r0, [fp, #-24]	; 0xffffffe8
    4c5c:	e3a03000 	mov	r3, #0
    4c60:	e50b3010 	str	r3, [fp, #-16]
    4c64:	ea000011 	b	4cb0 <systype_name+0x68>
    4c68:	e51b2010 	ldr	r2, [fp, #-16]
    4c6c:	e59f3064 	ldr	r3, [pc, #100]	; 4cd8 <systype_name+0x90>
    4c70:	e7932182 	ldr	r2, [r3, r2, lsl #3]
    4c74:	e51b3018 	ldr	r3, [fp, #-24]	; 0xffffffe8
    4c78:	e1520003 	cmp	r2, r3
    4c7c:	1a000008 	bne	4ca4 <systype_name+0x5c>
    4c80:	e51b3010 	ldr	r3, [fp, #-16]
    4c84:	e59f204c 	ldr	r2, [pc, #76]	; 4cd8 <systype_name+0x90>
    4c88:	e3a01004 	mov	r1, #4
    4c8c:	e1a03183 	lsl	r3, r3, #3
    4c90:	e0823003 	add	r3, r2, r3
    4c94:	e0833001 	add	r3, r3, r1
    4c98:	e5933000 	ldr	r3, [r3]
    4c9c:	e50b301c 	str	r3, [fp, #-28]	; 0xffffffe4
    4ca0:	ea000007 	b	4cc4 <systype_name+0x7c>
    4ca4:	e51b3010 	ldr	r3, [fp, #-16]
    4ca8:	e2833001 	add	r3, r3, #1
    4cac:	e50b3010 	str	r3, [fp, #-16]
    4cb0:	e51b3010 	ldr	r3, [fp, #-16]
    4cb4:	e3530005 	cmp	r3, #5
    4cb8:	9affffea 	bls	4c68 <systype_name+0x20>
    4cbc:	e59f3018 	ldr	r3, [pc, #24]	; 4cdc <systype_name+0x94>
    4cc0:	e50b301c 	str	r3, [fp, #-28]	; 0xffffffe4
    4cc4:	e51b301c 	ldr	r3, [fp, #-28]	; 0xffffffe4
    4cc8:	e1a00003 	mov	r0, r3
    4ccc:	e24bd00c 	sub	sp, fp, #12
    4cd0:	e89d6800 	ldm	sp, {fp, sp, lr}
    4cd4:	e12fff1e 	bx	lr
    4cd8:	00015a90 	.word	0x00015a90
    4cdc:	00015988 	.word	0x00015988

00004ce0 <do_disks>:
    4ce0:	e1a0c00d 	mov	ip, sp
    4ce4:	e92dd800 	push	{fp, ip, lr, pc}
    4ce8:	e24cb004 	sub	fp, ip, #4
    4cec:	e24dd030 	sub	sp, sp, #48	; 0x30
    4cf0:	e50b0030 	str	r0, [fp, #-48]	; 0xffffffd0
    4cf4:	e50b1034 	str	r1, [fp, #-52]	; 0xffffffcc
    4cf8:	e3a03000 	mov	r3, #0
    4cfc:	e50b301c 	str	r3, [fp, #-28]	; 0xffffffe4
    4d00:	e59f3140 	ldr	r3, [pc, #320]	; 4e48 <do_disks+0x168>
    4d04:	e50b3014 	str	r3, [fp, #-20]	; 0xffffffec
    4d08:	ea000046 	b	4e28 <do_disks+0x148>
    4d0c:	e51b3014 	ldr	r3, [fp, #-20]	; 0xffffffec
    4d10:	e1d330bc 	ldrh	r3, [r3, #12]
    4d14:	e1a03803 	lsl	r3, r3, #16
    4d18:	e1a03843 	asr	r3, r3, #16
    4d1c:	e50b3038 	str	r3, [fp, #-56]	; 0xffffffc8
    4d20:	e51b3038 	ldr	r3, [fp, #-56]	; 0xffffffc8
    4d24:	e3530001 	cmp	r3, #1
    4d28:	0a000003 	beq	4d3c <do_disks+0x5c>
    4d2c:	e51b3038 	ldr	r3, [fp, #-56]	; 0xffffffc8
    4d30:	e3530002 	cmp	r3, #2
    4d34:	0a000029 	beq	4de0 <do_disks+0x100>
    4d38:	ea000034 	b	4e10 <do_disks+0x130>
    4d3c:	e3a03000 	mov	r3, #0
    4d40:	e50b3018 	str	r3, [fp, #-24]	; 0xffffffe8
    4d44:	e51b3014 	ldr	r3, [fp, #-20]	; 0xffffffec
    4d48:	e2833010 	add	r3, r3, #16
    4d4c:	e50b3010 	str	r3, [fp, #-16]
    4d50:	ea00001e 	b	4dd0 <do_disks+0xf0>
    4d54:	e51b3010 	ldr	r3, [fp, #-16]
    4d58:	e5d33010 	ldrb	r3, [r3, #16]
    4d5c:	e3530000 	cmp	r3, #0
    4d60:	0a000014 	beq	4db8 <do_disks+0xd8>
    4d64:	e51b3014 	ldr	r3, [fp, #-20]	; 0xffffffec
    4d68:	e1d330be 	ldrh	r3, [r3, #14]
    4d6c:	e1a03803 	lsl	r3, r3, #16
    4d70:	e1a03843 	asr	r3, r3, #16
    4d74:	e2832061 	add	r2, r3, #97	; 0x61
    4d78:	e51b3018 	ldr	r3, [fp, #-24]	; 0xffffffe8
    4d7c:	e283c001 	add	ip, r3, #1
    4d80:	e24b302c 	sub	r3, fp, #44	; 0x2c
    4d84:	e1a00003 	mov	r0, r3
    4d88:	e59f10bc 	ldr	r1, [pc, #188]	; 4e4c <do_disks+0x16c>
    4d8c:	e1a0300c 	mov	r3, ip
    4d90:	eb0020cb 	bl	d0c4 <diag_sprintf>
    4d94:	e51b3010 	ldr	r3, [fp, #-16]
    4d98:	e5d33010 	ldrb	r3, [r3, #16]
    4d9c:	e1a00003 	mov	r0, r3
    4da0:	ebffffa8 	bl	4c48 <systype_name>
    4da4:	e1a02000 	mov	r2, r0
    4da8:	e24b302c 	sub	r3, fp, #44	; 0x2c
    4dac:	e59f009c 	ldr	r0, [pc, #156]	; 4e50 <do_disks+0x170>
    4db0:	e1a01003 	mov	r1, r3
    4db4:	eb001ff0 	bl	cd7c <diag_printf>
    4db8:	e51b3018 	ldr	r3, [fp, #-24]	; 0xffffffe8
    4dbc:	e2833001 	add	r3, r3, #1
    4dc0:	e50b3018 	str	r3, [fp, #-24]	; 0xffffffe8
    4dc4:	e51b3010 	ldr	r3, [fp, #-16]
    4dc8:	e2833014 	add	r3, r3, #20
    4dcc:	e50b3010 	str	r3, [fp, #-16]
    4dd0:	e51b3018 	ldr	r3, [fp, #-24]	; 0xffffffe8
    4dd4:	e3530007 	cmp	r3, #7
    4dd8:	daffffdd 	ble	4d54 <do_disks+0x74>
    4ddc:	ea00000b 	b	4e10 <do_disks+0x130>
    4de0:	e51b3014 	ldr	r3, [fp, #-20]	; 0xffffffec
    4de4:	e1d330be 	ldrh	r3, [r3, #14]
    4de8:	e1a03803 	lsl	r3, r3, #16
    4dec:	e1a02843 	asr	r2, r3, #16
    4df0:	e24b302c 	sub	r3, fp, #44	; 0x2c
    4df4:	e1a00003 	mov	r0, r3
    4df8:	e59f1054 	ldr	r1, [pc, #84]	; 4e54 <do_disks+0x174>
    4dfc:	eb0020b0 	bl	d0c4 <diag_sprintf>
    4e00:	e24b302c 	sub	r3, fp, #44	; 0x2c
    4e04:	e59f004c 	ldr	r0, [pc, #76]	; 4e58 <do_disks+0x178>
    4e08:	e1a01003 	mov	r1, r3
    4e0c:	eb001fda 	bl	cd7c <diag_printf>
    4e10:	e51b301c 	ldr	r3, [fp, #-28]	; 0xffffffe4
    4e14:	e2833001 	add	r3, r3, #1
    4e18:	e50b301c 	str	r3, [fp, #-28]	; 0xffffffe4
    4e1c:	e51b3014 	ldr	r3, [fp, #-20]	; 0xffffffec
    4e20:	e28330b0 	add	r3, r3, #176	; 0xb0
    4e24:	e50b3014 	str	r3, [fp, #-20]	; 0xffffffec
    4e28:	e59f302c 	ldr	r3, [pc, #44]	; 4e5c <do_disks+0x17c>
    4e2c:	e5932000 	ldr	r2, [r3]
    4e30:	e51b301c 	ldr	r3, [fp, #-28]	; 0xffffffe4
    4e34:	e1530002 	cmp	r3, r2
    4e38:	baffffb3 	blt	4d0c <do_disks+0x2c>
    4e3c:	e24bd00c 	sub	sp, fp, #12
    4e40:	e89d6800 	ldm	sp, {fp, sp, lr}
    4e44:	e12fff1e 	bx	lr
    4e48:	81002a88 	.word	0x81002a88
    4e4c:	00015990 	.word	0x00015990
    4e50:	00015998 	.word	0x00015998
    4e54:	000159a4 	.word	0x000159a4
    4e58:	000159ac 	.word	0x000159ac
    4e5c:	81002a84 	.word	0x81002a84

00004e60 <disk_stream_open>:
    4e60:	e1a0c00d 	mov	ip, sp
    4e64:	e92dd800 	push	{fp, ip, lr, pc}
    4e68:	e24cb004 	sub	fp, ip, #4
    4e6c:	e24dd018 	sub	sp, sp, #24
    4e70:	e50b0018 	str	r0, [fp, #-24]	; 0xffffffe8
    4e74:	e50b101c 	str	r1, [fp, #-28]	; 0xffffffe4
    4e78:	e51b3018 	ldr	r3, [fp, #-24]	; 0xffffffe8
    4e7c:	e5933000 	ldr	r3, [r3]
    4e80:	e50b3010 	str	r3, [fp, #-16]
    4e84:	e24b3014 	sub	r3, fp, #20
    4e88:	e51b0010 	ldr	r0, [fp, #-16]
    4e8c:	e59f111c 	ldr	r1, [pc, #284]	; 4fb0 <disk_stream_open+0x150>
    4e90:	e1a02003 	mov	r2, r3
    4e94:	ebfffed5 	bl	49f0 <disk_parse_filename>
    4e98:	e1a03000 	mov	r3, r0
    4e9c:	e3530000 	cmp	r3, #0
    4ea0:	1a000005 	bne	4ebc <disk_stream_open+0x5c>
    4ea4:	e51b201c 	ldr	r2, [fp, #-28]	; 0xffffffe4
    4ea8:	e3e03000 	mvn	r3, #0
    4eac:	e5823000 	str	r3, [r2]
    4eb0:	e3e03000 	mvn	r3, #0
    4eb4:	e50b3020 	str	r3, [fp, #-32]	; 0xffffffe0
    4eb8:	ea000037 	b	4f9c <disk_stream_open+0x13c>
    4ebc:	e59f30ec 	ldr	r3, [pc, #236]	; 4fb0 <disk_stream_open+0x150>
    4ec0:	e5933000 	ldr	r3, [r3]
    4ec4:	e5933000 	ldr	r3, [r3]
    4ec8:	e1d330bc 	ldrh	r3, [r3, #12]
    4ecc:	e1a03803 	lsl	r3, r3, #16
    4ed0:	e1a03843 	asr	r3, r3, #16
    4ed4:	e3530002 	cmp	r3, #2
    4ed8:	0a00000a 	beq	4f08 <disk_stream_open+0xa8>
    4edc:	e59f30cc 	ldr	r3, [pc, #204]	; 4fb0 <disk_stream_open+0x150>
    4ee0:	e5933000 	ldr	r3, [r3]
    4ee4:	e5d33010 	ldrb	r3, [r3, #16]
    4ee8:	e3530000 	cmp	r3, #0
    4eec:	1a000005 	bne	4f08 <disk_stream_open+0xa8>
    4ef0:	e51b201c 	ldr	r2, [fp, #-28]	; 0xffffffe4
    4ef4:	e3e03001 	mvn	r3, #1
    4ef8:	e5823000 	str	r3, [r2]
    4efc:	e3e03000 	mvn	r3, #0
    4f00:	e50b3020 	str	r3, [fp, #-32]	; 0xffffffe0
    4f04:	ea000024 	b	4f9c <disk_stream_open+0x13c>
    4f08:	e59f30a0 	ldr	r3, [pc, #160]	; 4fb0 <disk_stream_open+0x150>
    4f0c:	e5933000 	ldr	r3, [r3]
    4f10:	e5933004 	ldr	r3, [r3, #4]
    4f14:	e3530000 	cmp	r3, #0
    4f18:	1a000005 	bne	4f34 <disk_stream_open+0xd4>
    4f1c:	e51b201c 	ldr	r2, [fp, #-28]	; 0xffffffe4
    4f20:	e3e03001 	mvn	r3, #1
    4f24:	e5823000 	str	r3, [r2]
    4f28:	e3e03000 	mvn	r3, #0
    4f2c:	e50b3020 	str	r3, [fp, #-32]	; 0xffffffe0
    4f30:	ea000019 	b	4f9c <disk_stream_open+0x13c>
    4f34:	e59f3074 	ldr	r3, [pc, #116]	; 4fb0 <disk_stream_open+0x150>
    4f38:	e5933000 	ldr	r3, [r3]
    4f3c:	e5933004 	ldr	r3, [r3, #4]
    4f40:	e593c000 	ldr	ip, [r3]
    4f44:	e59f3064 	ldr	r3, [pc, #100]	; 4fb0 <disk_stream_open+0x150>
    4f48:	e5933000 	ldr	r3, [r3]
    4f4c:	e51b2014 	ldr	r2, [fp, #-20]	; 0xffffffec
    4f50:	e1a00003 	mov	r0, r3
    4f54:	e1a01002 	mov	r1, r2
    4f58:	e1a0e00f 	mov	lr, pc
    4f5c:	e12fff1c 	bx	ip
    4f60:	e1a02000 	mov	r2, r0
    4f64:	e59f3048 	ldr	r3, [pc, #72]	; 4fb4 <disk_stream_open+0x154>
    4f68:	e5832000 	str	r2, [r3]
    4f6c:	e59f3040 	ldr	r3, [pc, #64]	; 4fb4 <disk_stream_open+0x154>
    4f70:	e5933000 	ldr	r3, [r3]
    4f74:	e3530000 	cmp	r3, #0
    4f78:	1a000005 	bne	4f94 <disk_stream_open+0x134>
    4f7c:	e51b201c 	ldr	r2, [fp, #-28]	; 0xffffffe4
    4f80:	e3e03002 	mvn	r3, #2
    4f84:	e5823000 	str	r3, [r2]
    4f88:	e3e03000 	mvn	r3, #0
    4f8c:	e50b3020 	str	r3, [fp, #-32]	; 0xffffffe0
    4f90:	ea000001 	b	4f9c <disk_stream_open+0x13c>
    4f94:	e3a03000 	mov	r3, #0
    4f98:	e50b3020 	str	r3, [fp, #-32]	; 0xffffffe0
    4f9c:	e51b3020 	ldr	r3, [fp, #-32]	; 0xffffffe0
    4fa0:	e1a00003 	mov	r0, r3
    4fa4:	e24bd00c 	sub	sp, fp, #12
    4fa8:	e89d6800 	ldm	sp, {fp, sp, lr}
    4fac:	e12fff1e 	bx	lr
    4fb0:	81002d4c 	.word	0x81002d4c
    4fb4:	81002d48 	.word	0x81002d48

00004fb8 <disk_stream_read>:
    4fb8:	e1a0c00d 	mov	ip, sp
    4fbc:	e92dd800 	push	{fp, ip, lr, pc}
    4fc0:	e24cb004 	sub	fp, ip, #4
    4fc4:	e24dd018 	sub	sp, sp, #24
    4fc8:	e50b0018 	str	r0, [fp, #-24]	; 0xffffffe8
    4fcc:	e50b101c 	str	r1, [fp, #-28]	; 0xffffffe4
    4fd0:	e50b2020 	str	r2, [fp, #-32]	; 0xffffffe0
    4fd4:	e59f306c 	ldr	r3, [pc, #108]	; 5048 <disk_stream_read+0x90>
    4fd8:	e5933000 	ldr	r3, [r3]
    4fdc:	e5933004 	ldr	r3, [r3, #4]
    4fe0:	e593c004 	ldr	ip, [r3, #4]
    4fe4:	e59f3060 	ldr	r3, [pc, #96]	; 504c <disk_stream_read+0x94>
    4fe8:	e5933000 	ldr	r3, [r3]
    4fec:	e51b201c 	ldr	r2, [fp, #-28]	; 0xffffffe4
    4ff0:	e1a00003 	mov	r0, r3
    4ff4:	e51b1018 	ldr	r1, [fp, #-24]	; 0xffffffe8
    4ff8:	e1a0e00f 	mov	lr, pc
    4ffc:	e12fff1c 	bx	ip
    5000:	e1a03000 	mov	r3, r0
    5004:	e50b3010 	str	r3, [fp, #-16]
    5008:	e51b3010 	ldr	r3, [fp, #-16]
    500c:	e3530000 	cmp	r3, #0
    5010:	aa000005 	bge	502c <disk_stream_read+0x74>
    5014:	e51b2020 	ldr	r2, [fp, #-32]	; 0xffffffe0
    5018:	e3e03003 	mvn	r3, #3
    501c:	e5823000 	str	r3, [r2]
    5020:	e3e03000 	mvn	r3, #0
    5024:	e50b3024 	str	r3, [fp, #-36]	; 0xffffffdc
    5028:	ea000001 	b	5034 <disk_stream_read+0x7c>
    502c:	e51b3010 	ldr	r3, [fp, #-16]
    5030:	e50b3024 	str	r3, [fp, #-36]	; 0xffffffdc
    5034:	e51b3024 	ldr	r3, [fp, #-36]	; 0xffffffdc
    5038:	e1a00003 	mov	r0, r3
    503c:	e24bd00c 	sub	sp, fp, #12
    5040:	e89d6800 	ldm	sp, {fp, sp, lr}
    5044:	e12fff1e 	bx	lr
    5048:	81002d4c 	.word	0x81002d4c
    504c:	81002d48 	.word	0x81002d48

00005050 <disk_stream_close>:
    5050:	e1a0c00d 	mov	ip, sp
    5054:	e92dd800 	push	{fp, ip, lr, pc}
    5058:	e24cb004 	sub	fp, ip, #4
    505c:	e24dd008 	sub	sp, sp, #8
    5060:	e50b0010 	str	r0, [fp, #-16]
    5064:	e59f2010 	ldr	r2, [pc, #16]	; 507c <disk_stream_close+0x2c>
    5068:	e3a03000 	mov	r3, #0
    506c:	e5823000 	str	r3, [r2]
    5070:	e24bd00c 	sub	sp, fp, #12
    5074:	e89d6800 	ldm	sp, {fp, sp, lr}
    5078:	e12fff1e 	bx	lr
    507c:	81002d48 	.word	0x81002d48

00005080 <disk_error>:
    5080:	e1a0c00d 	mov	ip, sp
    5084:	e92dd800 	push	{fp, ip, lr, pc}
    5088:	e24cb004 	sub	fp, ip, #4
    508c:	e24dd008 	sub	sp, sp, #8
    5090:	e50b0010 	str	r0, [fp, #-16]
    5094:	e51b3010 	ldr	r3, [fp, #-16]
    5098:	e2833004 	add	r3, r3, #4
    509c:	e3530003 	cmp	r3, #3
    50a0:	979ff103 	ldrls	pc, [pc, r3, lsl #2]
    50a4:	ea00000f 	b	50e8 <disk_error+0x68>
    50a8:	000050dc 	.word	0x000050dc
    50ac:	000050d0 	.word	0x000050d0
    50b0:	000050c4 	.word	0x000050c4
    50b4:	000050b8 	.word	0x000050b8
    50b8:	e59f3044 	ldr	r3, [pc, #68]	; 5104 <disk_error+0x84>
    50bc:	e50b3014 	str	r3, [fp, #-20]	; 0xffffffec
    50c0:	ea00000a 	b	50f0 <disk_error+0x70>
    50c4:	e59f303c 	ldr	r3, [pc, #60]	; 5108 <disk_error+0x88>
    50c8:	e50b3014 	str	r3, [fp, #-20]	; 0xffffffec
    50cc:	ea000007 	b	50f0 <disk_error+0x70>
    50d0:	e59f3034 	ldr	r3, [pc, #52]	; 510c <disk_error+0x8c>
    50d4:	e50b3014 	str	r3, [fp, #-20]	; 0xffffffec
    50d8:	ea000004 	b	50f0 <disk_error+0x70>
    50dc:	e59f302c 	ldr	r3, [pc, #44]	; 5110 <disk_error+0x90>
    50e0:	e50b3014 	str	r3, [fp, #-20]	; 0xffffffec
    50e4:	ea000001 	b	50f0 <disk_error+0x70>
    50e8:	e59f3024 	ldr	r3, [pc, #36]	; 5114 <disk_error+0x94>
    50ec:	e50b3014 	str	r3, [fp, #-20]	; 0xffffffec
    50f0:	e51b3014 	ldr	r3, [fp, #-20]	; 0xffffffec
    50f4:	e1a00003 	mov	r0, r3
    50f8:	e24bd00c 	sub	sp, fp, #12
    50fc:	e89d6800 	ldm	sp, {fp, sp, lr}
    5100:	e12fff1e 	bx	lr
    5104:	000159bc 	.word	0x000159bc
    5108:	000159cc 	.word	0x000159cc
    510c:	000159e4 	.word	0x000159e4
    5110:	000159f4 	.word	0x000159f4
    5114:	00015a04 	.word	0x00015a04

00005118 <__take_over_debug_traps>:
    5118:	e1a0c00d 	mov	ip, sp
    511c:	e92dd800 	push	{fp, ip, lr, pc}
    5120:	e24cb004 	sub	fp, ip, #4
    5124:	e59f3064 	ldr	r3, [pc, #100]	; 5190 <__take_over_debug_traps+0x78>
    5128:	e5933000 	ldr	r3, [r3]
    512c:	e283300c 	add	r3, r3, #12
    5130:	e5932000 	ldr	r2, [r3]
    5134:	e59f3058 	ldr	r3, [pc, #88]	; 5194 <__take_over_debug_traps+0x7c>
    5138:	e583200c 	str	r2, [r3, #12]
    513c:	e59f304c 	ldr	r3, [pc, #76]	; 5190 <__take_over_debug_traps+0x78>
    5140:	e5933000 	ldr	r3, [r3]
    5144:	e283200c 	add	r2, r3, #12
    5148:	e59f3048 	ldr	r3, [pc, #72]	; 5198 <__take_over_debug_traps+0x80>
    514c:	e593300c 	ldr	r3, [r3, #12]
    5150:	e5823000 	str	r3, [r2]
    5154:	e59f3034 	ldr	r3, [pc, #52]	; 5190 <__take_over_debug_traps+0x78>
    5158:	e5933000 	ldr	r3, [r3]
    515c:	e2833010 	add	r3, r3, #16
    5160:	e5932000 	ldr	r2, [r3]
    5164:	e59f3028 	ldr	r3, [pc, #40]	; 5194 <__take_over_debug_traps+0x7c>
    5168:	e5832010 	str	r2, [r3, #16]
    516c:	e59f301c 	ldr	r3, [pc, #28]	; 5190 <__take_over_debug_traps+0x78>
    5170:	e5933000 	ldr	r3, [r3]
    5174:	e2832010 	add	r2, r3, #16
    5178:	e59f3018 	ldr	r3, [pc, #24]	; 5198 <__take_over_debug_traps+0x80>
    517c:	e5933010 	ldr	r3, [r3, #16]
    5180:	e5823000 	str	r3, [r2]
    5184:	e24bd00c 	sub	sp, fp, #12
    5188:	e89d6800 	ldm	sp, {fp, sp, lr}
    518c:	e12fff1e 	bx	lr
    5190:	810002b0 	.word	0x810002b0
    5194:	81002d50 	.word	0x81002d50
    5198:	00000020 	.word	0x00000020

0000519c <__restore_debug_traps>:
    519c:	e1a0c00d 	mov	ip, sp
    51a0:	e92dd800 	push	{fp, ip, lr, pc}
    51a4:	e24cb004 	sub	fp, ip, #4
    51a8:	e59f3034 	ldr	r3, [pc, #52]	; 51e4 <__restore_debug_traps+0x48>
    51ac:	e5933000 	ldr	r3, [r3]
    51b0:	e283200c 	add	r2, r3, #12
    51b4:	e59f302c 	ldr	r3, [pc, #44]	; 51e8 <__restore_debug_traps+0x4c>
    51b8:	e593300c 	ldr	r3, [r3, #12]
    51bc:	e5823000 	str	r3, [r2]
    51c0:	e59f301c 	ldr	r3, [pc, #28]	; 51e4 <__restore_debug_traps+0x48>
    51c4:	e5933000 	ldr	r3, [r3]
    51c8:	e2832010 	add	r2, r3, #16
    51cc:	e59f3014 	ldr	r3, [pc, #20]	; 51e8 <__restore_debug_traps+0x4c>
    51d0:	e5933010 	ldr	r3, [r3, #16]
    51d4:	e5823000 	str	r3, [r2]
    51d8:	e24bd00c 	sub	sp, fp, #12
    51dc:	e89d6800 	ldm	sp, {fp, sp, lr}
    51e0:	e12fff1e 	bx	lr
    51e4:	810002b0 	.word	0x810002b0
    51e8:	81002d50 	.word	0x81002d50

000051ec <exception_handler>:
    51ec:	e1a0c00d 	mov	ip, sp
    51f0:	e92dd800 	push	{fp, ip, lr, pc}
    51f4:	e24cb004 	sub	fp, ip, #4
    51f8:	e24dd008 	sub	sp, sp, #8
    51fc:	e50b0010 	str	r0, [fp, #-16]
    5200:	e59f309c 	ldr	r3, [pc, #156]	; 52a4 <exception_handler+0xb8>
    5204:	e5933000 	ldr	r3, [r3]
    5208:	e3530000 	cmp	r3, #0
    520c:	0a000009 	beq	5238 <exception_handler+0x4c>
    5210:	e51b3010 	ldr	r3, [fp, #-16]
    5214:	e5933044 	ldr	r3, [r3, #68]	; 0x44
    5218:	e3530004 	cmp	r3, #4
    521c:	1a000005 	bne	5238 <exception_handler+0x4c>
    5220:	e59f307c 	ldr	r3, [pc, #124]	; 52a4 <exception_handler+0xb8>
    5224:	e5933000 	ldr	r3, [r3]
    5228:	e1a02003 	mov	r2, r3
    522c:	e51b3010 	ldr	r3, [fp, #-16]
    5230:	e583203c 	str	r2, [r3, #60]	; 0x3c
    5234:	ea000017 	b	5298 <exception_handler+0xac>
    5238:	e59f3068 	ldr	r3, [pc, #104]	; 52a8 <exception_handler+0xbc>
    523c:	e5933000 	ldr	r3, [r3]
    5240:	e2832001 	add	r2, r3, #1
    5244:	e59f305c 	ldr	r3, [pc, #92]	; 52a8 <exception_handler+0xbc>
    5248:	e5832000 	str	r2, [r3]
    524c:	e59f3054 	ldr	r3, [pc, #84]	; 52a8 <exception_handler+0xbc>
    5250:	e5933000 	ldr	r3, [r3]
    5254:	e3530001 	cmp	r3, #1
    5258:	1a000000 	bne	5260 <exception_handler+0x74>
    525c:	ebffffad 	bl	5118 <__take_over_debug_traps>
    5260:	e59f2044 	ldr	r2, [pc, #68]	; 52ac <exception_handler+0xc0>
    5264:	e51b3010 	ldr	r3, [fp, #-16]
    5268:	e5823000 	str	r3, [r2]
    526c:	eb000629 	bl	6b18 <__handle_exception>
    5270:	e59f3030 	ldr	r3, [pc, #48]	; 52a8 <exception_handler+0xbc>
    5274:	e5933000 	ldr	r3, [r3]
    5278:	e2432001 	sub	r2, r3, #1
    527c:	e59f3024 	ldr	r3, [pc, #36]	; 52a8 <exception_handler+0xbc>
    5280:	e5832000 	str	r2, [r3]
    5284:	e59f301c 	ldr	r3, [pc, #28]	; 52a8 <exception_handler+0xbc>
    5288:	e5933000 	ldr	r3, [r3]
    528c:	e3530000 	cmp	r3, #0
    5290:	1a000000 	bne	5298 <exception_handler+0xac>
    5294:	ebffffc0 	bl	519c <__restore_debug_traps>
    5298:	e24bd00c 	sub	sp, fp, #12
    529c:	e89d6800 	ldm	sp, {fp, sp, lr}
    52a0:	e12fff1e 	bx	lr
    52a4:	810031c0 	.word	0x810031c0
    52a8:	81002d70 	.word	0x81002d70
    52ac:	8100561c 	.word	0x8100561c

000052b0 <hal_spurious_IRQ>:
    52b0:	e1a0c00d 	mov	ip, sp
    52b4:	e92dd800 	push	{fp, ip, lr, pc}
    52b8:	e24cb004 	sub	fp, ip, #4
    52bc:	e24dd008 	sub	sp, sp, #8
    52c0:	e50b0010 	str	r0, [fp, #-16]
    52c4:	e51b0010 	ldr	r0, [fp, #-16]
    52c8:	ebffffc7 	bl	51ec <exception_handler>
    52cc:	e24bd00c 	sub	sp, fp, #12
    52d0:	e89d6800 	ldm	sp, {fp, sp, lr}
    52d4:	e12fff1e 	bx	lr

000052d8 <cyg_hal_invoke_constructors>:
    52d8:	e1a0c00d 	mov	ip, sp
    52dc:	e92dd800 	push	{fp, ip, lr, pc}
    52e0:	e24cb004 	sub	fp, ip, #4
    52e4:	e24dd008 	sub	sp, sp, #8
    52e8:	e59f303c 	ldr	r3, [pc, #60]	; 532c <cyg_hal_invoke_constructors+0x54>
    52ec:	e50b3010 	str	r3, [fp, #-16]
    52f0:	ea000006 	b	5310 <cyg_hal_invoke_constructors+0x38>
    52f4:	e51b3010 	ldr	r3, [fp, #-16]
    52f8:	e5933000 	ldr	r3, [r3]
    52fc:	e1a0e00f 	mov	lr, pc
    5300:	e12fff13 	bx	r3
    5304:	e51b3010 	ldr	r3, [fp, #-16]
    5308:	e2833004 	add	r3, r3, #4
    530c:	e50b3010 	str	r3, [fp, #-16]
    5310:	e51b2010 	ldr	r2, [fp, #-16]
    5314:	e59f3014 	ldr	r3, [pc, #20]	; 5330 <cyg_hal_invoke_constructors+0x58>
    5318:	e1520003 	cmp	r2, r3
    531c:	1afffff4 	bne	52f4 <cyg_hal_invoke_constructors+0x1c>
    5320:	e24bd00c 	sub	sp, fp, #12
    5324:	e89d6800 	ldm	sp, {fp, sp, lr}
    5328:	e12fff1e 	bx	lr
    532c:	81000534 	.word	0x81000534
    5330:	81000538 	.word	0x81000538

00005334 <hal_arch_default_isr>:
    5334:	e1a0c00d 	mov	ip, sp
    5338:	e92dd800 	push	{fp, ip, lr, pc}
    533c:	e24cb004 	sub	fp, ip, #4
    5340:	e24dd008 	sub	sp, sp, #8
    5344:	e50b0010 	str	r0, [fp, #-16]
    5348:	e50b1014 	str	r1, [fp, #-20]	; 0xffffffec
    534c:	e3a03000 	mov	r3, #0
    5350:	e1a00003 	mov	r0, r3
    5354:	e24bd00c 	sub	sp, fp, #12
    5358:	e89d6800 	ldm	sp, {fp, sp, lr}
    535c:	e12fff1e 	bx	lr

00005360 <breakpoint>:
    5360:	e1a0c00d 	mov	ip, sp
    5364:	e92dd800 	push	{fp, ip, lr, pc}
    5368:	e24cb004 	sub	fp, ip, #4

0000536c <_breakinst>:
    536c:	e7ffdefe 	.word	0xe7ffdefe
    5370:	e24bd00c 	sub	sp, fp, #12
    5374:	e89d6800 	ldm	sp, {fp, sp, lr}
    5378:	e12fff1e 	bx	lr

0000537c <hal_delay_us>:
    537c:	e1a0c00d 	mov	ip, sp
    5380:	e92dd870 	push	{r4, r5, r6, fp, ip, lr, pc}
    5384:	e24cb004 	sub	fp, ip, #4
    5388:	e24dd024 	sub	sp, sp, #36	; 0x24
    538c:	e50b0030 	str	r0, [fp, #-48]	; 0xffffffd0
    5390:	e3a0320e 	mov	r3, #-536870912	; 0xe0000000
    5394:	e2833902 	add	r3, r3, #32768	; 0x8000
    5398:	e50b302c 	str	r3, [fp, #-44]	; 0xffffffd4
    539c:	e3a037e5 	mov	r3, #60030976	; 0x3940000
    53a0:	e2433c79 	sub	r3, r3, #30976	; 0x7900
    53a4:	e3a04000 	mov	r4, #0
    53a8:	e50b3024 	str	r3, [fp, #-36]	; 0xffffffdc
    53ac:	e50b4020 	str	r4, [fp, #-32]	; 0xffffffe0
    53b0:	e51b3030 	ldr	r3, [fp, #-48]	; 0xffffffd0
    53b4:	e1a04fc3 	asr	r4, r3, #31
    53b8:	e51b2024 	ldr	r2, [fp, #-36]	; 0xffffffdc
    53bc:	e0010294 	mul	r1, r4, r2
    53c0:	e51b2020 	ldr	r2, [fp, #-32]	; 0xffffffe0
    53c4:	e0020293 	mul	r2, r3, r2
    53c8:	e0811002 	add	r1, r1, r2
    53cc:	e51b2024 	ldr	r2, [fp, #-36]	; 0xffffffdc
    53d0:	e0865392 	umull	r5, r6, r2, r3
    53d4:	e1a03005 	mov	r3, r5
    53d8:	e1a04006 	mov	r4, r6
    53dc:	e0811004 	add	r1, r1, r4
    53e0:	e1a04001 	mov	r4, r1
    53e4:	e1a00003 	mov	r0, r3
    53e8:	e1a01004 	mov	r1, r4
    53ec:	e3a0293d 	mov	r2, #999424	; 0xf4000
    53f0:	e2822d09 	add	r2, r2, #576	; 0x240
    53f4:	e3a03000 	mov	r3, #0
    53f8:	eb003b23 	bl	1408c <__aeabi_uldivmod>
    53fc:	e1a03000 	mov	r3, r0
    5400:	e1a04001 	mov	r4, r1
    5404:	e50b3024 	str	r3, [fp, #-36]	; 0xffffffdc
    5408:	e50b4020 	str	r4, [fp, #-32]	; 0xffffffe0
    540c:	e51b302c 	ldr	r3, [fp, #-44]	; 0xffffffd4
    5410:	e2833004 	add	r3, r3, #4
    5414:	e1a02003 	mov	r2, r3
    5418:	e3a03002 	mov	r3, #2
    541c:	e5823000 	str	r3, [r2]
    5420:	e51b302c 	ldr	r3, [fp, #-44]	; 0xffffffd4
    5424:	e2833018 	add	r3, r3, #24
    5428:	e1a02003 	mov	r2, r3
    542c:	e51b3024 	ldr	r3, [fp, #-36]	; 0xffffffdc
    5430:	e5823000 	str	r3, [r2]
    5434:	e51b302c 	ldr	r3, [fp, #-44]	; 0xffffffd4
    5438:	e2833014 	add	r3, r3, #20
    543c:	e1a02003 	mov	r2, r3
    5440:	e3a03006 	mov	r3, #6
    5444:	e5823000 	str	r3, [r2]
    5448:	e51b302c 	ldr	r3, [fp, #-44]	; 0xffffffd4
    544c:	e283300c 	add	r3, r3, #12
    5450:	e1a02003 	mov	r2, r3
    5454:	e3a03000 	mov	r3, #0
    5458:	e5823000 	str	r3, [r2]
    545c:	e51b302c 	ldr	r3, [fp, #-44]	; 0xffffffd4
    5460:	e2833004 	add	r3, r3, #4
    5464:	e1a02003 	mov	r2, r3
    5468:	e3a03001 	mov	r3, #1
    546c:	e5823000 	str	r3, [r2]
    5470:	e51b302c 	ldr	r3, [fp, #-44]	; 0xffffffd4
    5474:	e2833008 	add	r3, r3, #8
    5478:	e5933000 	ldr	r3, [r3]
    547c:	e50b3028 	str	r3, [fp, #-40]	; 0xffffffd8
    5480:	e51b3028 	ldr	r3, [fp, #-40]	; 0xffffffd8
    5484:	e1a01003 	mov	r1, r3
    5488:	e3a02000 	mov	r2, #0
    548c:	e50b103c 	str	r1, [fp, #-60]	; 0xffffffc4
    5490:	e50b2038 	str	r2, [fp, #-56]	; 0xffffffc8
    5494:	e51b3020 	ldr	r3, [fp, #-32]	; 0xffffffe0
    5498:	e51b2038 	ldr	r2, [fp, #-56]	; 0xffffffc8
    549c:	e1530002 	cmp	r3, r2
    54a0:	8afffff2 	bhi	5470 <hal_delay_us+0xf4>
    54a4:	e51b3020 	ldr	r3, [fp, #-32]	; 0xffffffe0
    54a8:	e51b5038 	ldr	r5, [fp, #-56]	; 0xffffffc8
    54ac:	e1530005 	cmp	r3, r5
    54b0:	1a000006 	bne	54d0 <hal_delay_us+0x154>
    54b4:	e51b3024 	ldr	r3, [fp, #-36]	; 0xffffffdc
    54b8:	e51b603c 	ldr	r6, [fp, #-60]	; 0xffffffc4
    54bc:	e1530006 	cmp	r3, r6
    54c0:	8affffea 	bhi	5470 <hal_delay_us+0xf4>
    54c4:	e51b3024 	ldr	r3, [fp, #-36]	; 0xffffffdc
    54c8:	e51b103c 	ldr	r1, [fp, #-60]	; 0xffffffc4
    54cc:	e1530001 	cmp	r3, r1
    54d0:	e24bd018 	sub	sp, fp, #24
    54d4:	e89d6870 	ldm	sp, {r4, r5, r6, fp, sp, lr}
    54d8:	e12fff1e 	bx	lr

000054dc <lpc_set_vpbdiv>:
    54dc:	e1a0c00d 	mov	ip, sp
    54e0:	e92dd800 	push	{fp, ip, lr, pc}
    54e4:	e24cb004 	sub	fp, ip, #4
    54e8:	e24dd008 	sub	sp, sp, #8
    54ec:	e50b0010 	str	r0, [fp, #-16]
    54f0:	e50b1014 	str	r1, [fp, #-20]	; 0xffffffec
    54f4:	e3a0220e 	mov	r2, #-536870912	; 0xe0000000
    54f8:	e282297f 	add	r2, r2, #2080768	; 0x1fc000
    54fc:	e2822c01 	add	r2, r2, #256	; 0x100
    5500:	e51b3014 	ldr	r3, [fp, #-20]	; 0xffffffec
    5504:	e2033003 	and	r3, r3, #3
    5508:	e1a01203 	lsl	r1, r3, #4
    550c:	e51b3010 	ldr	r3, [fp, #-16]
    5510:	e2033003 	and	r3, r3, #3
    5514:	e1813003 	orr	r3, r1, r3
    5518:	e5823000 	str	r3, [r2]
    551c:	e24bd00c 	sub	sp, fp, #12
    5520:	e89d6800 	ldm	sp, {fp, sp, lr}
    5524:	e12fff1e 	bx	lr

00005528 <hal_hardware_init>:
    5528:	e1a0c00d 	mov	ip, sp
    552c:	e92dd800 	push	{fp, ip, lr, pc}
    5530:	e24cb004 	sub	fp, ip, #4
    5534:	e3a00001 	mov	r0, #1
    5538:	e3a01001 	mov	r1, #1
    553c:	ebffffe6 	bl	54dc <lpc_set_vpbdiv>
    5540:	e3e03d3f 	mvn	r3, #4032	; 0xfc0
    5544:	e243300b 	sub	r3, r3, #11
    5548:	e3e02000 	mvn	r2, #0
    554c:	e5832000 	str	r2, [r3]
    5550:	eb001732 	bl	b220 <hal_if_init>
    5554:	e24bd00c 	sub	sp, fp, #12
    5558:	e89d6800 	ldm	sp, {fp, sp, lr}
    555c:	e12fff1e 	bx	lr

00005560 <hal_IRQ_handler>:
    5560:	e1a0c00d 	mov	ip, sp
    5564:	e92dd800 	push	{fp, ip, lr, pc}
    5568:	e24cb004 	sub	fp, ip, #4
    556c:	e24dd008 	sub	sp, sp, #8
    5570:	e3a03000 	mov	r3, #0
    5574:	e2433efd 	sub	r3, r3, #4048	; 0xfd0
    5578:	e5933000 	ldr	r3, [r3]
    557c:	e50b3014 	str	r3, [fp, #-20]	; 0xffffffec
    5580:	e51b3014 	ldr	r3, [fp, #-20]	; 0xffffffec
    5584:	e3730001 	cmn	r3, #1
    5588:	1a000015 	bne	55e4 <hal_IRQ_handler+0x84>
    558c:	e3a03102 	mov	r3, #-2147483648	; 0x80000000
    5590:	e1a039c3 	asr	r3, r3, #19
    5594:	e5933000 	ldr	r3, [r3]
    5598:	e50b3010 	str	r3, [fp, #-16]
    559c:	e3a03000 	mov	r3, #0
    55a0:	e50b3014 	str	r3, [fp, #-20]	; 0xffffffec
    55a4:	ea000005 	b	55c0 <hal_IRQ_handler+0x60>
    55a8:	e51b3010 	ldr	r3, [fp, #-16]
    55ac:	e1a030a3 	lsr	r3, r3, #1
    55b0:	e50b3010 	str	r3, [fp, #-16]
    55b4:	e51b3014 	ldr	r3, [fp, #-20]	; 0xffffffec
    55b8:	e2833001 	add	r3, r3, #1
    55bc:	e50b3014 	str	r3, [fp, #-20]	; 0xffffffec
    55c0:	e51b3010 	ldr	r3, [fp, #-16]
    55c4:	e2033001 	and	r3, r3, #1
    55c8:	e3530000 	cmp	r3, #0
    55cc:	0afffff5 	beq	55a8 <hal_IRQ_handler+0x48>
    55d0:	e51b3014 	ldr	r3, [fp, #-20]	; 0xffffffec
    55d4:	e353001f 	cmp	r3, #31
    55d8:	9a000001 	bls	55e4 <hal_IRQ_handler+0x84>
    55dc:	e3e03000 	mvn	r3, #0
    55e0:	e50b3014 	str	r3, [fp, #-20]	; 0xffffffec
    55e4:	e51b3014 	ldr	r3, [fp, #-20]	; 0xffffffec
    55e8:	e1a00003 	mov	r0, r3
    55ec:	e24bd00c 	sub	sp, fp, #12
    55f0:	e89d6800 	ldm	sp, {fp, sp, lr}
    55f4:	e12fff1e 	bx	lr

000055f8 <hal_interrupt_mask>:
    55f8:	e1a0c00d 	mov	ip, sp
    55fc:	e92dd800 	push	{fp, ip, lr, pc}
    5600:	e24cb004 	sub	fp, ip, #4
    5604:	e24dd008 	sub	sp, sp, #8
    5608:	e50b0010 	str	r0, [fp, #-16]
    560c:	e3e02efe 	mvn	r2, #4064	; 0xfe0
    5610:	e242200b 	sub	r2, r2, #11
    5614:	e3a01001 	mov	r1, #1
    5618:	e51b3010 	ldr	r3, [fp, #-16]
    561c:	e1a03311 	lsl	r3, r1, r3
    5620:	e5823000 	str	r3, [r2]
    5624:	e24bd00c 	sub	sp, fp, #12
    5628:	e89d6800 	ldm	sp, {fp, sp, lr}
    562c:	e12fff1e 	bx	lr

00005630 <hal_interrupt_unmask>:
    5630:	e1a0c00d 	mov	ip, sp
    5634:	e92dd800 	push	{fp, ip, lr, pc}
    5638:	e24cb004 	sub	fp, ip, #4
    563c:	e24dd008 	sub	sp, sp, #8
    5640:	e50b0010 	str	r0, [fp, #-16]
    5644:	e3a02000 	mov	r2, #0
    5648:	e2422eff 	sub	r2, r2, #4080	; 0xff0
    564c:	e3a01001 	mov	r1, #1
    5650:	e51b3010 	ldr	r3, [fp, #-16]
    5654:	e1a03311 	lsl	r3, r1, r3
    5658:	e5823000 	str	r3, [r2]
    565c:	e24bd00c 	sub	sp, fp, #12
    5660:	e89d6800 	ldm	sp, {fp, sp, lr}
    5664:	e12fff1e 	bx	lr

00005668 <hal_interrupt_acknowledge>:
    5668:	e1a0c00d 	mov	ip, sp
    566c:	e92dd800 	push	{fp, ip, lr, pc}
    5670:	e24cb004 	sub	fp, ip, #4
    5674:	e24dd008 	sub	sp, sp, #8
    5678:	e50b0010 	str	r0, [fp, #-16]
    567c:	e51b3010 	ldr	r3, [fp, #-16]
    5680:	e353000d 	cmp	r3, #13
    5684:	da00000c 	ble	56bc <hal_interrupt_acknowledge+0x54>
    5688:	e51b3010 	ldr	r3, [fp, #-16]
    568c:	e3530011 	cmp	r3, #17
    5690:	ca000009 	bgt	56bc <hal_interrupt_acknowledge+0x54>
    5694:	e51b3010 	ldr	r3, [fp, #-16]
    5698:	e243200e 	sub	r2, r3, #14
    569c:	e3a03001 	mov	r3, #1
    56a0:	e1a03213 	lsl	r3, r3, r2
    56a4:	e50b3010 	str	r3, [fp, #-16]
    56a8:	e3a0320e 	mov	r3, #-536870912	; 0xe0000000
    56ac:	e283397f 	add	r3, r3, #2080768	; 0x1fc000
    56b0:	e2833d05 	add	r3, r3, #320	; 0x140
    56b4:	e51b2010 	ldr	r2, [fp, #-16]
    56b8:	e5832000 	str	r2, [r3]
    56bc:	e3a03000 	mov	r3, #0
    56c0:	e2433efd 	sub	r3, r3, #4048	; 0xfd0
    56c4:	e3a02000 	mov	r2, #0
    56c8:	e5832000 	str	r2, [r3]
    56cc:	e24bd00c 	sub	sp, fp, #12
    56d0:	e89d6800 	ldm	sp, {fp, sp, lr}
    56d4:	e12fff1e 	bx	lr

000056d8 <hal_lpc_watchdog_reset>:
    56d8:	e1a0c00d 	mov	ip, sp
    56dc:	e92dd800 	push	{fp, ip, lr, pc}
    56e0:	e24cb004 	sub	fp, ip, #4
    56e4:	e3a0224e 	mov	r2, #-536870908	; 0xe0000004
    56e8:	e3a030ff 	mov	r3, #255	; 0xff
    56ec:	e5823000 	str	r3, [r2]
    56f0:	e3a0220e 	mov	r2, #-536870912	; 0xe0000000
    56f4:	e3a03003 	mov	r3, #3
    56f8:	e5823000 	str	r3, [r2]
    56fc:	e3a0228e 	mov	r2, #-536870904	; 0xe0000008
    5700:	e3a030aa 	mov	r3, #170	; 0xaa
    5704:	e5823000 	str	r3, [r2]
    5708:	e3a0228e 	mov	r2, #-536870904	; 0xe0000008
    570c:	e3a03055 	mov	r3, #85	; 0x55
    5710:	e5823000 	str	r3, [r2]
    5714:	eafffffe 	b	5714 <hal_lpc_watchdog_reset+0x3c>

00005718 <hal_lpc2xxx_set_leds>:
    5718:	e1a0c00d 	mov	ip, sp
    571c:	e92dd800 	push	{fp, ip, lr, pc}
    5720:	e24cb004 	sub	fp, ip, #4
    5724:	e24dd008 	sub	sp, sp, #8
    5728:	e50b0010 	str	r0, [fp, #-16]
    572c:	e3a0320e 	mov	r3, #-536870912	; 0xe0000000
    5730:	e283390a 	add	r3, r3, #163840	; 0x28000
    5734:	e2833014 	add	r3, r3, #20
    5738:	e3a02702 	mov	r2, #524288	; 0x80000
    573c:	e5832000 	str	r2, [r3]
    5740:	e51b3010 	ldr	r3, [fp, #-16]
    5744:	e2033001 	and	r3, r3, #1
    5748:	e20330ff 	and	r3, r3, #255	; 0xff
    574c:	e3530000 	cmp	r3, #0
    5750:	0a000004 	beq	5768 <hal_lpc2xxx_set_leds+0x50>
    5754:	e3a0320e 	mov	r3, #-536870912	; 0xe0000000
    5758:	e283390a 	add	r3, r3, #163840	; 0x28000
    575c:	e283301c 	add	r3, r3, #28
    5760:	e3a02702 	mov	r2, #524288	; 0x80000
    5764:	e5832000 	str	r2, [r3]
    5768:	e24bd00c 	sub	sp, fp, #12
    576c:	e89d6800 	ldm	sp, {fp, sp, lr}
    5770:	e12fff1e 	bx	lr

00005774 <cyg_hal_plf_comms_init>:
    5774:	e1a0c00d 	mov	ip, sp
    5778:	e92dd800 	push	{fp, ip, lr, pc}
    577c:	e24cb004 	sub	fp, ip, #4
    5780:	e59f302c 	ldr	r3, [pc, #44]	; 57b4 <cyg_hal_plf_comms_init+0x40>
    5784:	e5933000 	ldr	r3, [r3]
    5788:	e3530000 	cmp	r3, #0
    578c:	1a000005 	bne	57a8 <cyg_hal_plf_comms_init+0x34>
    5790:	e59f201c 	ldr	r2, [pc, #28]	; 57b4 <cyg_hal_plf_comms_init+0x40>
    5794:	e3a03001 	mov	r3, #1
    5798:	e5823000 	str	r3, [r2]
    579c:	eb003953 	bl	13cf0 <cyg_hal_plf_serial_init>
    57a0:	e3a00001 	mov	r0, #1
    57a4:	ebffffdb 	bl	5718 <hal_lpc2xxx_set_leds>
    57a8:	e24bd00c 	sub	sp, fp, #12
    57ac:	e89d6800 	ldm	sp, {fp, sp, lr}
    57b0:	e12fff1e 	bx	lr
    57b4:	81002d74 	.word	0x81002d74

000057b8 <post_dsr>:
    57b8:	e1a0c00d 	mov	ip, sp
    57bc:	e92dd810 	push	{r4, fp, ip, lr, pc}
    57c0:	e24cb004 	sub	fp, ip, #4
    57c4:	e24dd014 	sub	sp, sp, #20
    57c8:	e50b0020 	str	r0, [fp, #-32]	; 0xffffffe0
    57cc:	e10f3000 	mrs	r3, CPSR
    57d0:	e10f4000 	mrs	r4, CPSR
    57d4:	e38440c0 	orr	r4, r4, #192	; 0xc0
    57d8:	e129f004 	msr	CPSR_fc, r4
    57dc:	e50b3018 	str	r3, [fp, #-24]	; 0xffffffe8
    57e0:	e51b3020 	ldr	r3, [fp, #-32]	; 0xffffffe0
    57e4:	e5932018 	ldr	r2, [r3, #24]
    57e8:	e3520000 	cmp	r2, #0
    57ec:	13a03000 	movne	r3, #0
    57f0:	03a03001 	moveq	r3, #1
    57f4:	e20310ff 	and	r1, r3, #255	; 0xff
    57f8:	e2822001 	add	r2, r2, #1
    57fc:	e51b3020 	ldr	r3, [fp, #-32]	; 0xffffffe0
    5800:	e5832018 	str	r2, [r3, #24]
    5804:	e3510000 	cmp	r1, #0
    5808:	0a000006 	beq	5828 <post_dsr+0x70>
    580c:	e59f3038 	ldr	r3, [pc, #56]	; 584c <post_dsr+0x94>
    5810:	e5932000 	ldr	r2, [r3]
    5814:	e51b3020 	ldr	r3, [fp, #-32]	; 0xffffffe0
    5818:	e5832014 	str	r2, [r3, #20]
    581c:	e59f2028 	ldr	r2, [pc, #40]	; 584c <post_dsr+0x94>
    5820:	e51b3020 	ldr	r3, [fp, #-32]	; 0xffffffe0
    5824:	e5823000 	str	r3, [r2]
    5828:	e51b2018 	ldr	r2, [fp, #-24]	; 0xffffffe8
    582c:	e10f3000 	mrs	r3, CPSR
    5830:	e20240c0 	and	r4, r2, #192	; 0xc0
    5834:	e3c330c0 	bic	r3, r3, #192	; 0xc0
    5838:	e1833004 	orr	r3, r3, r4
    583c:	e129f003 	msr	CPSR_fc, r3
    5840:	e24bd010 	sub	sp, fp, #16
    5844:	e89d6810 	ldm	sp, {r4, fp, sp, lr}
    5848:	e12fff1e 	bx	lr
    584c:	81002d78 	.word	0x81002d78

00005850 <call_dsrs>:
    5850:	e1a0c00d 	mov	ip, sp
    5854:	e92dd810 	push	{r4, fp, ip, lr, pc}
    5858:	e24cb004 	sub	fp, ip, #4
    585c:	e24dd014 	sub	sp, sp, #20
    5860:	ea000022 	b	58f0 <call_dsrs+0xa0>
    5864:	e10f3000 	mrs	r3, CPSR
    5868:	e10f4000 	mrs	r4, CPSR
    586c:	e38440c0 	orr	r4, r4, #192	; 0xc0
    5870:	e129f004 	msr	CPSR_fc, r4
    5874:	e50b3018 	str	r3, [fp, #-24]	; 0xffffffe8
    5878:	e59f308c 	ldr	r3, [pc, #140]	; 590c <call_dsrs+0xbc>
    587c:	e5933000 	ldr	r3, [r3]
    5880:	e50b3020 	str	r3, [fp, #-32]	; 0xffffffe0
    5884:	e51b3020 	ldr	r3, [fp, #-32]	; 0xffffffe0
    5888:	e5932014 	ldr	r2, [r3, #20]
    588c:	e59f3078 	ldr	r3, [pc, #120]	; 590c <call_dsrs+0xbc>
    5890:	e5832000 	str	r2, [r3]
    5894:	e51b3020 	ldr	r3, [fp, #-32]	; 0xffffffe0
    5898:	e5933018 	ldr	r3, [r3, #24]
    589c:	e50b301c 	str	r3, [fp, #-28]	; 0xffffffe4
    58a0:	e51b2020 	ldr	r2, [fp, #-32]	; 0xffffffe0
    58a4:	e3a03000 	mov	r3, #0
    58a8:	e5823018 	str	r3, [r2, #24]
    58ac:	e51b2018 	ldr	r2, [fp, #-24]	; 0xffffffe8
    58b0:	e10f3000 	mrs	r3, CPSR
    58b4:	e20240c0 	and	r4, r2, #192	; 0xc0
    58b8:	e3c330c0 	bic	r3, r3, #192	; 0xc0
    58bc:	e1833004 	orr	r3, r3, r4
    58c0:	e129f003 	msr	CPSR_fc, r3
    58c4:	e51b3020 	ldr	r3, [fp, #-32]	; 0xffffffe0
    58c8:	e593c00c 	ldr	ip, [r3, #12]
    58cc:	e51b3020 	ldr	r3, [fp, #-32]	; 0xffffffe0
    58d0:	e5932000 	ldr	r2, [r3]
    58d4:	e51b101c 	ldr	r1, [fp, #-28]	; 0xffffffe4
    58d8:	e51b3020 	ldr	r3, [fp, #-32]	; 0xffffffe0
    58dc:	e5933010 	ldr	r3, [r3, #16]
    58e0:	e1a00002 	mov	r0, r2
    58e4:	e1a02003 	mov	r2, r3
    58e8:	e1a0e00f 	mov	lr, pc
    58ec:	e12fff1c 	bx	ip
    58f0:	e59f3014 	ldr	r3, [pc, #20]	; 590c <call_dsrs+0xbc>
    58f4:	e5933000 	ldr	r3, [r3]
    58f8:	e3530000 	cmp	r3, #0
    58fc:	1affffd8 	bne	5864 <call_dsrs+0x14>
    5900:	e24bd010 	sub	sp, fp, #16
    5904:	e89d6810 	ldm	sp, {r4, fp, sp, lr}
    5908:	e12fff1e 	bx	lr
    590c:	81002d78 	.word	0x81002d78

00005910 <interrupt_end>:
    5910:	e1a0c00d 	mov	ip, sp
    5914:	e92dd800 	push	{fp, ip, lr, pc}
    5918:	e24cb004 	sub	fp, ip, #4
    591c:	e24dd010 	sub	sp, sp, #16
    5920:	e50b0010 	str	r0, [fp, #-16]
    5924:	e50b1014 	str	r1, [fp, #-20]	; 0xffffffec
    5928:	e50b2018 	str	r2, [fp, #-24]	; 0xffffffe8
    592c:	e51b3010 	ldr	r3, [fp, #-16]
    5930:	e2033002 	and	r3, r3, #2
    5934:	e3530000 	cmp	r3, #0
    5938:	0a000004 	beq	5950 <interrupt_end+0x40>
    593c:	e51b3014 	ldr	r3, [fp, #-20]	; 0xffffffec
    5940:	e3530000 	cmp	r3, #0
    5944:	0a000001 	beq	5950 <interrupt_end+0x40>
    5948:	e51b0014 	ldr	r0, [fp, #-20]	; 0xffffffec
    594c:	ebffff99 	bl	57b8 <post_dsr>
    5950:	e59f3018 	ldr	r3, [pc, #24]	; 5970 <interrupt_end+0x60>
    5954:	e5933000 	ldr	r3, [r3]
    5958:	e3530000 	cmp	r3, #0
    595c:	1a000000 	bne	5964 <interrupt_end+0x54>
    5960:	ebffffba 	bl	5850 <call_dsrs>
    5964:	e24bd00c 	sub	sp, fp, #12
    5968:	e89d6800 	ldm	sp, {fp, sp, lr}
    596c:	e12fff1e 	bx	lr
    5970:	81004560 	.word	0x81004560

00005974 <__tohex>:
    5974:	e1a0c00d 	mov	ip, sp
    5978:	e92dd800 	push	{fp, ip, lr, pc}
    597c:	e24cb004 	sub	fp, ip, #4
    5980:	e24dd008 	sub	sp, sp, #8
    5984:	e50b0010 	str	r0, [fp, #-16]
    5988:	e51b3010 	ldr	r3, [fp, #-16]
    598c:	e203200f 	and	r2, r3, #15
    5990:	e59f3010 	ldr	r3, [pc, #16]	; 59a8 <__tohex+0x34>
    5994:	e7d33002 	ldrb	r3, [r3, r2]
    5998:	e1a00003 	mov	r0, r3
    599c:	e24bd00c 	sub	sp, fp, #12
    59a0:	e89d6800 	ldm	sp, {fp, sp, lr}
    59a4:	e12fff1e 	bx	lr
    59a8:	00015ac0 	.word	0x00015ac0

000059ac <readDebugChar>:
    59ac:	e1a0c00d 	mov	ip, sp
    59b0:	e92dd800 	push	{fp, ip, lr, pc}
    59b4:	e24cb004 	sub	fp, ip, #4
    59b8:	e24dd010 	sub	sp, sp, #16
    59bc:	e59f304c 	ldr	r3, [pc, #76]	; 5a10 <readDebugChar+0x64>
    59c0:	e5933000 	ldr	r3, [r3]
    59c4:	e3530000 	cmp	r3, #0
    59c8:	da000008 	ble	59f0 <readDebugChar+0x44>
    59cc:	e59f303c 	ldr	r3, [pc, #60]	; 5a10 <readDebugChar+0x64>
    59d0:	e5933000 	ldr	r3, [r3]
    59d4:	e50b3010 	str	r3, [fp, #-16]
    59d8:	e59f2030 	ldr	r2, [pc, #48]	; 5a10 <readDebugChar+0x64>
    59dc:	e3e03000 	mvn	r3, #0
    59e0:	e5823000 	str	r3, [r2]
    59e4:	e51b3010 	ldr	r3, [fp, #-16]
    59e8:	e50b3018 	str	r3, [fp, #-24]	; 0xffffffe8
    59ec:	ea000002 	b	59fc <readDebugChar+0x50>
    59f0:	eb000ead 	bl	94ac <getDebugChar>
    59f4:	e1a03000 	mov	r3, r0
    59f8:	e50b3018 	str	r3, [fp, #-24]	; 0xffffffe8
    59fc:	e51b3018 	ldr	r3, [fp, #-24]	; 0xffffffe8
    5a00:	e1a00003 	mov	r0, r3
    5a04:	e24bd00c 	sub	sp, fp, #12
    5a08:	e89d6800 	ldm	sp, {fp, sp, lr}
    5a0c:	e12fff1e 	bx	lr
    5a10:	810002bc 	.word	0x810002bc

00005a14 <stubhex>:
    5a14:	e1a0c00d 	mov	ip, sp
    5a18:	e92dd800 	push	{fp, ip, lr, pc}
    5a1c:	e24cb004 	sub	fp, ip, #4
    5a20:	e24dd008 	sub	sp, sp, #8
    5a24:	e1a03000 	mov	r3, r0
    5a28:	e54b300d 	strb	r3, [fp, #-13]
    5a2c:	e55b300d 	ldrb	r3, [fp, #-13]
    5a30:	e3530060 	cmp	r3, #96	; 0x60
    5a34:	9a000006 	bls	5a54 <stubhex+0x40>
    5a38:	e55b300d 	ldrb	r3, [fp, #-13]
    5a3c:	e3530066 	cmp	r3, #102	; 0x66
    5a40:	8a000003 	bhi	5a54 <stubhex+0x40>
    5a44:	e55b300d 	ldrb	r3, [fp, #-13]
    5a48:	e2433057 	sub	r3, r3, #87	; 0x57
    5a4c:	e50b3014 	str	r3, [fp, #-20]	; 0xffffffec
    5a50:	ea000015 	b	5aac <stubhex+0x98>
    5a54:	e55b300d 	ldrb	r3, [fp, #-13]
    5a58:	e353002f 	cmp	r3, #47	; 0x2f
    5a5c:	9a000006 	bls	5a7c <stubhex+0x68>
    5a60:	e55b300d 	ldrb	r3, [fp, #-13]
    5a64:	e3530039 	cmp	r3, #57	; 0x39
    5a68:	8a000003 	bhi	5a7c <stubhex+0x68>
    5a6c:	e55b300d 	ldrb	r3, [fp, #-13]
    5a70:	e2433030 	sub	r3, r3, #48	; 0x30
    5a74:	e50b3014 	str	r3, [fp, #-20]	; 0xffffffec
    5a78:	ea00000b 	b	5aac <stubhex+0x98>
    5a7c:	e55b300d 	ldrb	r3, [fp, #-13]
    5a80:	e3530040 	cmp	r3, #64	; 0x40
    5a84:	9a000006 	bls	5aa4 <stubhex+0x90>
    5a88:	e55b300d 	ldrb	r3, [fp, #-13]
    5a8c:	e3530046 	cmp	r3, #70	; 0x46
    5a90:	8a000003 	bhi	5aa4 <stubhex+0x90>
    5a94:	e55b300d 	ldrb	r3, [fp, #-13]
    5a98:	e2433037 	sub	r3, r3, #55	; 0x37
    5a9c:	e50b3014 	str	r3, [fp, #-20]	; 0xffffffec
    5aa0:	ea000001 	b	5aac <stubhex+0x98>
    5aa4:	e3e03000 	mvn	r3, #0
    5aa8:	e50b3014 	str	r3, [fp, #-20]	; 0xffffffec
    5aac:	e51b3014 	ldr	r3, [fp, #-20]	; 0xffffffec
    5ab0:	e1a00003 	mov	r0, r3
    5ab4:	e24bd00c 	sub	sp, fp, #12
    5ab8:	e89d6800 	ldm	sp, {fp, sp, lr}
    5abc:	e12fff1e 	bx	lr

00005ac0 <__getpacket>:
    5ac0:	e1a0c00d 	mov	ip, sp
    5ac4:	e92dd800 	push	{fp, ip, lr, pc}
    5ac8:	e24cb004 	sub	fp, ip, #4
    5acc:	e24dd020 	sub	sp, sp, #32
    5ad0:	e50b0028 	str	r0, [fp, #-40]	; 0xffffffd8
    5ad4:	e3a03000 	mov	r3, #0
    5ad8:	e54b3014 	strb	r3, [fp, #-20]	; 0xffffffec
    5adc:	e51b3028 	ldr	r3, [fp, #-40]	; 0xffffffd8
    5ae0:	e50b301c 	str	r3, [fp, #-28]	; 0xffffffe4
    5ae4:	e3a03000 	mov	r3, #0
    5ae8:	e54b3013 	strb	r3, [fp, #-19]	; 0xffffffed
    5aec:	ea000008 	b	5b14 <__getpacket+0x54>
    5af0:	e51b3010 	ldr	r3, [fp, #-16]
    5af4:	e3730002 	cmn	r3, #2
    5af8:	1a000005 	bne	5b14 <__getpacket+0x54>
    5afc:	e3a0002d 	mov	r0, #45	; 0x2d
    5b00:	eb000e38 	bl	93e8 <putDebugChar>
    5b04:	e3a03000 	mov	r3, #0
    5b08:	e54b3014 	strb	r3, [fp, #-20]	; 0xffffffec
    5b0c:	e3a03000 	mov	r3, #0
    5b10:	e54b3013 	strb	r3, [fp, #-19]	; 0xffffffed
    5b14:	ebffffa4 	bl	59ac <readDebugChar>
    5b18:	e1a03000 	mov	r3, r0
    5b1c:	e20330ff 	and	r3, r3, #255	; 0xff
    5b20:	e24b2024 	sub	r2, fp, #36	; 0x24
    5b24:	e1a00003 	mov	r0, r3
    5b28:	e1a01002 	mov	r1, r2
    5b2c:	eb000007 	bl	5b50 <__add_char_to_packet>
    5b30:	e1a03000 	mov	r3, r0
    5b34:	e50b3010 	str	r3, [fp, #-16]
    5b38:	e51b3010 	ldr	r3, [fp, #-16]
    5b3c:	e3530001 	cmp	r3, #1
    5b40:	1affffea 	bne	5af0 <__getpacket+0x30>
    5b44:	e24bd00c 	sub	sp, fp, #12
    5b48:	e89d6800 	ldm	sp, {fp, sp, lr}
    5b4c:	e12fff1e 	bx	lr

00005b50 <__add_char_to_packet>:
    5b50:	e1a0c00d 	mov	ip, sp
    5b54:	e92dd810 	push	{r4, fp, ip, lr, pc}
    5b58:	e24cb004 	sub	fp, ip, #4
    5b5c:	e24dd01c 	sub	sp, sp, #28
    5b60:	e50b0020 	str	r0, [fp, #-32]	; 0xffffffe0
    5b64:	e50b1024 	str	r1, [fp, #-36]	; 0xffffffdc
    5b68:	e51b3024 	ldr	r3, [fp, #-36]	; 0xffffffdc
    5b6c:	e5d33010 	ldrb	r3, [r3, #16]
    5b70:	e3530000 	cmp	r3, #0
    5b74:	1a000011 	bne	5bc0 <__add_char_to_packet+0x70>
    5b78:	e51b3020 	ldr	r3, [fp, #-32]	; 0xffffffe0
    5b7c:	e3530024 	cmp	r3, #36	; 0x24
    5b80:	1a00000b 	bne	5bb4 <__add_char_to_packet+0x64>
    5b84:	e51b2024 	ldr	r2, [fp, #-36]	; 0xffffffdc
    5b88:	e3a03001 	mov	r3, #1
    5b8c:	e5c23010 	strb	r3, [r2, #16]
    5b90:	e51b2024 	ldr	r2, [fp, #-36]	; 0xffffffdc
    5b94:	e3a03000 	mov	r3, #0
    5b98:	e582300c 	str	r3, [r2, #12]
    5b9c:	e51b2024 	ldr	r2, [fp, #-36]	; 0xffffffdc
    5ba0:	e3a03000 	mov	r3, #0
    5ba4:	e5823000 	str	r3, [r2]
    5ba8:	e51b2024 	ldr	r2, [fp, #-36]	; 0xffffffdc
    5bac:	e3e03000 	mvn	r3, #0
    5bb0:	e5823004 	str	r3, [r2, #4]
    5bb4:	e3a03000 	mov	r3, #0
    5bb8:	e50b3028 	str	r3, [fp, #-40]	; 0xffffffd8
    5bbc:	ea00009a 	b	5e2c <__add_char_to_packet+0x2dc>
    5bc0:	e51b3024 	ldr	r3, [fp, #-36]	; 0xffffffdc
    5bc4:	e5d33010 	ldrb	r3, [r3, #16]
    5bc8:	e3530001 	cmp	r3, #1
    5bcc:	1a00002c 	bne	5c84 <__add_char_to_packet+0x134>
    5bd0:	e51b3024 	ldr	r3, [fp, #-36]	; 0xffffffdc
    5bd4:	e593300c 	ldr	r3, [r3, #12]
    5bd8:	e3530b02 	cmp	r3, #2048	; 0x800
    5bdc:	1a000006 	bne	5bfc <__add_char_to_packet+0xac>
    5be0:	e51b2024 	ldr	r2, [fp, #-36]	; 0xffffffdc
    5be4:	e3a03000 	mov	r3, #0
    5be8:	e5c23010 	strb	r3, [r2, #16]
    5bec:	e51b2024 	ldr	r2, [fp, #-36]	; 0xffffffdc
    5bf0:	e3a03001 	mov	r3, #1
    5bf4:	e5c23011 	strb	r3, [r2, #17]
    5bf8:	ea00001e 	b	5c78 <__add_char_to_packet+0x128>
    5bfc:	e51b3020 	ldr	r3, [fp, #-32]	; 0xffffffe0
    5c00:	e3530023 	cmp	r3, #35	; 0x23
    5c04:	1a00000a 	bne	5c34 <__add_char_to_packet+0xe4>
    5c08:	e51b3024 	ldr	r3, [fp, #-36]	; 0xffffffdc
    5c0c:	e5932008 	ldr	r2, [r3, #8]
    5c10:	e51b3024 	ldr	r3, [fp, #-36]	; 0xffffffdc
    5c14:	e593300c 	ldr	r3, [r3, #12]
    5c18:	e0822003 	add	r2, r2, r3
    5c1c:	e3a03000 	mov	r3, #0
    5c20:	e5c23000 	strb	r3, [r2]
    5c24:	e51b2024 	ldr	r2, [fp, #-36]	; 0xffffffdc
    5c28:	e3a03002 	mov	r3, #2
    5c2c:	e5c23010 	strb	r3, [r2, #16]
    5c30:	ea000010 	b	5c78 <__add_char_to_packet+0x128>
    5c34:	e51b3024 	ldr	r3, [fp, #-36]	; 0xffffffdc
    5c38:	e5932000 	ldr	r2, [r3]
    5c3c:	e51b3020 	ldr	r3, [fp, #-32]	; 0xffffffe0
    5c40:	e0822003 	add	r2, r2, r3
    5c44:	e51b3024 	ldr	r3, [fp, #-36]	; 0xffffffdc
    5c48:	e5832000 	str	r2, [r3]
    5c4c:	e51b3024 	ldr	r3, [fp, #-36]	; 0xffffffdc
    5c50:	e5932008 	ldr	r2, [r3, #8]
    5c54:	e51b3024 	ldr	r3, [fp, #-36]	; 0xffffffdc
    5c58:	e593100c 	ldr	r1, [r3, #12]
    5c5c:	e0822001 	add	r2, r2, r1
    5c60:	e51b3020 	ldr	r3, [fp, #-32]	; 0xffffffe0
    5c64:	e20330ff 	and	r3, r3, #255	; 0xff
    5c68:	e5c23000 	strb	r3, [r2]
    5c6c:	e2812001 	add	r2, r1, #1
    5c70:	e51b3024 	ldr	r3, [fp, #-36]	; 0xffffffdc
    5c74:	e583200c 	str	r2, [r3, #12]
    5c78:	e3a03000 	mov	r3, #0
    5c7c:	e50b3028 	str	r3, [fp, #-40]	; 0xffffffd8
    5c80:	ea000069 	b	5e2c <__add_char_to_packet+0x2dc>
    5c84:	e51b3024 	ldr	r3, [fp, #-36]	; 0xffffffdc
    5c88:	e5d33010 	ldrb	r3, [r3, #16]
    5c8c:	e3530002 	cmp	r3, #2
    5c90:	1a00000e 	bne	5cd0 <__add_char_to_packet+0x180>
    5c94:	e51b3020 	ldr	r3, [fp, #-32]	; 0xffffffe0
    5c98:	e20330ff 	and	r3, r3, #255	; 0xff
    5c9c:	e1a00003 	mov	r0, r3
    5ca0:	ebffff5b 	bl	5a14 <stubhex>
    5ca4:	e1a03000 	mov	r3, r0
    5ca8:	e1a03203 	lsl	r3, r3, #4
    5cac:	e1a02003 	mov	r2, r3
    5cb0:	e51b3024 	ldr	r3, [fp, #-36]	; 0xffffffdc
    5cb4:	e5832004 	str	r2, [r3, #4]
    5cb8:	e51b2024 	ldr	r2, [fp, #-36]	; 0xffffffdc
    5cbc:	e3a03003 	mov	r3, #3
    5cc0:	e5c23010 	strb	r3, [r2, #16]
    5cc4:	e3a03000 	mov	r3, #0
    5cc8:	e50b3028 	str	r3, [fp, #-40]	; 0xffffffd8
    5ccc:	ea000056 	b	5e2c <__add_char_to_packet+0x2dc>
    5cd0:	e51b3024 	ldr	r3, [fp, #-36]	; 0xffffffdc
    5cd4:	e5d33010 	ldrb	r3, [r3, #16]
    5cd8:	e3530003 	cmp	r3, #3
    5cdc:	1a00004d 	bne	5e18 <__add_char_to_packet+0x2c8>
    5ce0:	e51b3024 	ldr	r3, [fp, #-36]	; 0xffffffdc
    5ce4:	e5934004 	ldr	r4, [r3, #4]
    5ce8:	e51b3020 	ldr	r3, [fp, #-32]	; 0xffffffe0
    5cec:	e20330ff 	and	r3, r3, #255	; 0xff
    5cf0:	e1a00003 	mov	r0, r3
    5cf4:	ebffff46 	bl	5a14 <stubhex>
    5cf8:	e1a03000 	mov	r3, r0
    5cfc:	e1842003 	orr	r2, r4, r3
    5d00:	e51b3024 	ldr	r3, [fp, #-36]	; 0xffffffdc
    5d04:	e5832004 	str	r2, [r3, #4]
    5d08:	e51b3024 	ldr	r3, [fp, #-36]	; 0xffffffdc
    5d0c:	e5d33011 	ldrb	r3, [r3, #17]
    5d10:	e3530000 	cmp	r3, #0
    5d14:	0a000002 	beq	5d24 <__add_char_to_packet+0x1d4>
    5d18:	e3e03001 	mvn	r3, #1
    5d1c:	e50b3028 	str	r3, [fp, #-40]	; 0xffffffd8
    5d20:	ea000041 	b	5e2c <__add_char_to_packet+0x2dc>
    5d24:	e51b3024 	ldr	r3, [fp, #-36]	; 0xffffffdc
    5d28:	e5933000 	ldr	r3, [r3]
    5d2c:	e20320ff 	and	r2, r3, #255	; 0xff
    5d30:	e51b3024 	ldr	r3, [fp, #-36]	; 0xffffffdc
    5d34:	e5933004 	ldr	r3, [r3, #4]
    5d38:	e1520003 	cmp	r2, r3
    5d3c:	0a000007 	beq	5d60 <__add_char_to_packet+0x210>
    5d40:	e3a0002d 	mov	r0, #45	; 0x2d
    5d44:	eb000da7 	bl	93e8 <putDebugChar>
    5d48:	e51b3024 	ldr	r3, [fp, #-36]	; 0xffffffdc
    5d4c:	e3a02000 	mov	r2, #0
    5d50:	e5c32010 	strb	r2, [r3, #16]
    5d54:	e3e03000 	mvn	r3, #0
    5d58:	e50b3028 	str	r3, [fp, #-40]	; 0xffffffd8
    5d5c:	ea000032 	b	5e2c <__add_char_to_packet+0x2dc>
    5d60:	e3a0002b 	mov	r0, #43	; 0x2b
    5d64:	eb000d9f 	bl	93e8 <putDebugChar>
    5d68:	e51b3024 	ldr	r3, [fp, #-36]	; 0xffffffdc
    5d6c:	e5933008 	ldr	r3, [r3, #8]
    5d70:	e2833002 	add	r3, r3, #2
    5d74:	e5d33000 	ldrb	r3, [r3]
    5d78:	e353003a 	cmp	r3, #58	; 0x3a
    5d7c:	1a000022 	bne	5e0c <__add_char_to_packet+0x2bc>
    5d80:	e51b3024 	ldr	r3, [fp, #-36]	; 0xffffffdc
    5d84:	e593300c 	ldr	r3, [r3, #12]
    5d88:	e50b301c 	str	r3, [fp, #-28]	; 0xffffffe4
    5d8c:	e51b3024 	ldr	r3, [fp, #-36]	; 0xffffffdc
    5d90:	e5933008 	ldr	r3, [r3, #8]
    5d94:	e5d33000 	ldrb	r3, [r3]
    5d98:	e1a00003 	mov	r0, r3
    5d9c:	eb000d91 	bl	93e8 <putDebugChar>
    5da0:	e51b3024 	ldr	r3, [fp, #-36]	; 0xffffffdc
    5da4:	e5933008 	ldr	r3, [r3, #8]
    5da8:	e2833001 	add	r3, r3, #1
    5dac:	e5d33000 	ldrb	r3, [r3]
    5db0:	e1a00003 	mov	r0, r3
    5db4:	eb000d8b 	bl	93e8 <putDebugChar>
    5db8:	e3a03003 	mov	r3, #3
    5dbc:	e50b3018 	str	r3, [fp, #-24]	; 0xffffffe8
    5dc0:	ea00000d 	b	5dfc <__add_char_to_packet+0x2ac>
    5dc4:	e51b3024 	ldr	r3, [fp, #-36]	; 0xffffffdc
    5dc8:	e5932008 	ldr	r2, [r3, #8]
    5dcc:	e51b3018 	ldr	r3, [fp, #-24]	; 0xffffffe8
    5dd0:	e2433003 	sub	r3, r3, #3
    5dd4:	e0821003 	add	r1, r2, r3
    5dd8:	e51b3024 	ldr	r3, [fp, #-36]	; 0xffffffdc
    5ddc:	e5932008 	ldr	r2, [r3, #8]
    5de0:	e51b3018 	ldr	r3, [fp, #-24]	; 0xffffffe8
    5de4:	e0823003 	add	r3, r2, r3
    5de8:	e5d33000 	ldrb	r3, [r3]
    5dec:	e5c13000 	strb	r3, [r1]
    5df0:	e51b3018 	ldr	r3, [fp, #-24]	; 0xffffffe8
    5df4:	e2833001 	add	r3, r3, #1
    5df8:	e50b3018 	str	r3, [fp, #-24]	; 0xffffffe8
    5dfc:	e51b2018 	ldr	r2, [fp, #-24]	; 0xffffffe8
    5e00:	e51b301c 	ldr	r3, [fp, #-28]	; 0xffffffe4
    5e04:	e1520003 	cmp	r2, r3
    5e08:	9affffed 	bls	5dc4 <__add_char_to_packet+0x274>
    5e0c:	e3a03001 	mov	r3, #1
    5e10:	e50b3028 	str	r3, [fp, #-40]	; 0xffffffd8
    5e14:	ea000004 	b	5e2c <__add_char_to_packet+0x2dc>
    5e18:	e51b3024 	ldr	r3, [fp, #-36]	; 0xffffffdc
    5e1c:	e3a02000 	mov	r2, #0
    5e20:	e5c32010 	strb	r2, [r3, #16]
    5e24:	e3e03000 	mvn	r3, #0
    5e28:	e50b3028 	str	r3, [fp, #-40]	; 0xffffffd8
    5e2c:	e51b3028 	ldr	r3, [fp, #-40]	; 0xffffffd8
    5e30:	e1a00003 	mov	r0, r3
    5e34:	e24bd010 	sub	sp, fp, #16
    5e38:	e89d6810 	ldm	sp, {r4, fp, sp, lr}
    5e3c:	e12fff1e 	bx	lr

00005e40 <__putpacket>:
    5e40:	e1a0c00d 	mov	ip, sp
    5e44:	e92dd800 	push	{fp, ip, lr, pc}
    5e48:	e24cb004 	sub	fp, ip, #4
    5e4c:	e24dd018 	sub	sp, sp, #24
    5e50:	e50b0020 	str	r0, [fp, #-32]	; 0xffffffe0
    5e54:	e3a00024 	mov	r0, #36	; 0x24
    5e58:	eb000d62 	bl	93e8 <putDebugChar>
    5e5c:	e3a03000 	mov	r3, #0
    5e60:	e54b3015 	strb	r3, [fp, #-21]	; 0xffffffeb
    5e64:	e3a03000 	mov	r3, #0
    5e68:	e50b3014 	str	r3, [fp, #-20]	; 0xffffffec
    5e6c:	ea000009 	b	5e98 <__putpacket+0x58>
    5e70:	e55b300d 	ldrb	r3, [fp, #-13]
    5e74:	e1a00003 	mov	r0, r3
    5e78:	eb000d5a 	bl	93e8 <putDebugChar>
    5e7c:	e55b2015 	ldrb	r2, [fp, #-21]	; 0xffffffeb
    5e80:	e55b300d 	ldrb	r3, [fp, #-13]
    5e84:	e0823003 	add	r3, r2, r3
    5e88:	e54b3015 	strb	r3, [fp, #-21]	; 0xffffffeb
    5e8c:	e51b3014 	ldr	r3, [fp, #-20]	; 0xffffffec
    5e90:	e2833001 	add	r3, r3, #1
    5e94:	e50b3014 	str	r3, [fp, #-20]	; 0xffffffec
    5e98:	e51b2020 	ldr	r2, [fp, #-32]	; 0xffffffe0
    5e9c:	e51b3014 	ldr	r3, [fp, #-20]	; 0xffffffec
    5ea0:	e0823003 	add	r3, r2, r3
    5ea4:	e5d33000 	ldrb	r3, [r3]
    5ea8:	e54b300d 	strb	r3, [fp, #-13]
    5eac:	e55b300d 	ldrb	r3, [fp, #-13]
    5eb0:	e3530000 	cmp	r3, #0
    5eb4:	1affffed 	bne	5e70 <__putpacket+0x30>
    5eb8:	e3a00023 	mov	r0, #35	; 0x23
    5ebc:	eb000d49 	bl	93e8 <putDebugChar>
    5ec0:	e55b3015 	ldrb	r3, [fp, #-21]	; 0xffffffeb
    5ec4:	e1a03223 	lsr	r3, r3, #4
    5ec8:	e20330ff 	and	r3, r3, #255	; 0xff
    5ecc:	e1a02003 	mov	r2, r3
    5ed0:	e59f3040 	ldr	r3, [pc, #64]	; 5f18 <__putpacket+0xd8>
    5ed4:	e7d33002 	ldrb	r3, [r3, r2]
    5ed8:	e1a00003 	mov	r0, r3
    5edc:	eb000d41 	bl	93e8 <putDebugChar>
    5ee0:	e55b3015 	ldrb	r3, [fp, #-21]	; 0xffffffeb
    5ee4:	e203200f 	and	r2, r3, #15
    5ee8:	e59f3028 	ldr	r3, [pc, #40]	; 5f18 <__putpacket+0xd8>
    5eec:	e7d33002 	ldrb	r3, [r3, r2]
    5ef0:	e1a00003 	mov	r0, r3
    5ef4:	eb000d3b 	bl	93e8 <putDebugChar>
    5ef8:	ebfffeab 	bl	59ac <readDebugChar>
    5efc:	e1a03000 	mov	r3, r0
    5f00:	e203307f 	and	r3, r3, #127	; 0x7f
    5f04:	e353002b 	cmp	r3, #43	; 0x2b
    5f08:	1affffd1 	bne	5e54 <__putpacket+0x14>
    5f0c:	e24bd00c 	sub	sp, fp, #12
    5f10:	e89d6800 	ldm	sp, {fp, sp, lr}
    5f14:	e12fff1e 	bx	lr
    5f18:	00015ac0 	.word	0x00015ac0

00005f1c <__mem2hex_helper>:
    5f1c:	e1a0c00d 	mov	ip, sp
    5f20:	e92dd800 	push	{fp, ip, lr, pc}
    5f24:	e24cb004 	sub	fp, ip, #4
    5f28:	e24dd010 	sub	sp, sp, #16
    5f2c:	e59f21d0 	ldr	r2, [pc, #464]	; 6104 <__mem2hex_helper+0x1e8>
    5f30:	e3a03000 	mov	r3, #0
    5f34:	e5823000 	str	r3, [r2]
    5f38:	ea00006a 	b	60e8 <__mem2hex_helper+0x1cc>
    5f3c:	e59f31c4 	ldr	r3, [pc, #452]	; 6108 <__mem2hex_helper+0x1ec>
    5f40:	e5933000 	ldr	r3, [r3]
    5f44:	e3530000 	cmp	r3, #0
    5f48:	0a000021 	beq	5fd4 <__mem2hex_helper+0xb8>
    5f4c:	e59f31b8 	ldr	r3, [pc, #440]	; 610c <__mem2hex_helper+0x1f0>
    5f50:	e5933000 	ldr	r3, [r3]
    5f54:	e3530003 	cmp	r3, #3
    5f58:	9a000007 	bls	5f7c <__mem2hex_helper+0x60>
    5f5c:	e59f31ac 	ldr	r3, [pc, #428]	; 6110 <__mem2hex_helper+0x1f4>
    5f60:	e5933000 	ldr	r3, [r3]
    5f64:	e2033003 	and	r3, r3, #3
    5f68:	e3530000 	cmp	r3, #0
    5f6c:	1a000002 	bne	5f7c <__mem2hex_helper+0x60>
    5f70:	e3a03004 	mov	r3, #4
    5f74:	e50b3018 	str	r3, [fp, #-24]	; 0xffffffe8
    5f78:	ea00000d 	b	5fb4 <__mem2hex_helper+0x98>
    5f7c:	e59f3188 	ldr	r3, [pc, #392]	; 610c <__mem2hex_helper+0x1f0>
    5f80:	e5933000 	ldr	r3, [r3]
    5f84:	e3530001 	cmp	r3, #1
    5f88:	9a000007 	bls	5fac <__mem2hex_helper+0x90>
    5f8c:	e59f317c 	ldr	r3, [pc, #380]	; 6110 <__mem2hex_helper+0x1f4>
    5f90:	e5933000 	ldr	r3, [r3]
    5f94:	e2033001 	and	r3, r3, #1
    5f98:	e3530000 	cmp	r3, #0
    5f9c:	1a000002 	bne	5fac <__mem2hex_helper+0x90>
    5fa0:	e3a03002 	mov	r3, #2
    5fa4:	e50b3018 	str	r3, [fp, #-24]	; 0xffffffe8
    5fa8:	ea000001 	b	5fb4 <__mem2hex_helper+0x98>
    5fac:	e3a03001 	mov	r3, #1
    5fb0:	e50b3018 	str	r3, [fp, #-24]	; 0xffffffe8
    5fb4:	e59f3154 	ldr	r3, [pc, #340]	; 6110 <__mem2hex_helper+0x1f4>
    5fb8:	e5932000 	ldr	r2, [r3]
    5fbc:	e24b301c 	sub	r3, fp, #28
    5fc0:	e1a00003 	mov	r0, r3
    5fc4:	e1a01002 	mov	r1, r2
    5fc8:	e51b2018 	ldr	r2, [fp, #-24]	; 0xffffffe8
    5fcc:	eb00105e 	bl	a14c <__read_mem_safe>
    5fd0:	ea000005 	b	5fec <__mem2hex_helper+0xd0>
    5fd4:	e3a03001 	mov	r3, #1
    5fd8:	e50b3018 	str	r3, [fp, #-24]	; 0xffffffe8
    5fdc:	e59f312c 	ldr	r3, [pc, #300]	; 6110 <__mem2hex_helper+0x1f4>
    5fe0:	e5933000 	ldr	r3, [r3]
    5fe4:	e5d33000 	ldrb	r3, [r3]
    5fe8:	e54b301c 	strb	r3, [fp, #-28]	; 0xffffffe4
    5fec:	e59f3110 	ldr	r3, [pc, #272]	; 6104 <__mem2hex_helper+0x1e8>
    5ff0:	e5933000 	ldr	r3, [r3]
    5ff4:	e3530000 	cmp	r3, #0
    5ff8:	1a00003e 	bne	60f8 <__mem2hex_helper+0x1dc>
    5ffc:	e3a03000 	mov	r3, #0
    6000:	e50b3014 	str	r3, [fp, #-20]	; 0xffffffec
    6004:	ea000027 	b	60a8 <__mem2hex_helper+0x18c>
    6008:	e51b3014 	ldr	r3, [fp, #-20]	; 0xffffffec
    600c:	e3e0200f 	mvn	r2, #15
    6010:	e24b100c 	sub	r1, fp, #12
    6014:	e0813003 	add	r3, r1, r3
    6018:	e0833002 	add	r3, r3, r2
    601c:	e5d33000 	ldrb	r3, [r3]
    6020:	e54b300d 	strb	r3, [fp, #-13]
    6024:	e59f30e8 	ldr	r3, [pc, #232]	; 6114 <__mem2hex_helper+0x1f8>
    6028:	e5931000 	ldr	r1, [r3]
    602c:	e55b300d 	ldrb	r3, [fp, #-13]
    6030:	e1a03223 	lsr	r3, r3, #4
    6034:	e20330ff 	and	r3, r3, #255	; 0xff
    6038:	e1a02003 	mov	r2, r3
    603c:	e59f30d4 	ldr	r3, [pc, #212]	; 6118 <__mem2hex_helper+0x1fc>
    6040:	e7d33002 	ldrb	r3, [r3, r2]
    6044:	e5c13000 	strb	r3, [r1]
    6048:	e2812001 	add	r2, r1, #1
    604c:	e59f30c0 	ldr	r3, [pc, #192]	; 6114 <__mem2hex_helper+0x1f8>
    6050:	e5832000 	str	r2, [r3]
    6054:	e59f30a8 	ldr	r3, [pc, #168]	; 6104 <__mem2hex_helper+0x1e8>
    6058:	e5933000 	ldr	r3, [r3]
    605c:	e3530000 	cmp	r3, #0
    6060:	1a000024 	bne	60f8 <__mem2hex_helper+0x1dc>
    6064:	e59f30a8 	ldr	r3, [pc, #168]	; 6114 <__mem2hex_helper+0x1f8>
    6068:	e5931000 	ldr	r1, [r3]
    606c:	e55b300d 	ldrb	r3, [fp, #-13]
    6070:	e203200f 	and	r2, r3, #15
    6074:	e59f309c 	ldr	r3, [pc, #156]	; 6118 <__mem2hex_helper+0x1fc>
    6078:	e7d33002 	ldrb	r3, [r3, r2]
    607c:	e5c13000 	strb	r3, [r1]
    6080:	e2812001 	add	r2, r1, #1
    6084:	e59f3088 	ldr	r3, [pc, #136]	; 6114 <__mem2hex_helper+0x1f8>
    6088:	e5832000 	str	r2, [r3]
    608c:	e59f3070 	ldr	r3, [pc, #112]	; 6104 <__mem2hex_helper+0x1e8>
    6090:	e5933000 	ldr	r3, [r3]
    6094:	e3530000 	cmp	r3, #0
    6098:	1a000016 	bne	60f8 <__mem2hex_helper+0x1dc>
    609c:	e51b3014 	ldr	r3, [fp, #-20]	; 0xffffffec
    60a0:	e2833001 	add	r3, r3, #1
    60a4:	e50b3014 	str	r3, [fp, #-20]	; 0xffffffec
    60a8:	e51b2014 	ldr	r2, [fp, #-20]	; 0xffffffec
    60ac:	e51b3018 	ldr	r3, [fp, #-24]	; 0xffffffe8
    60b0:	e1520003 	cmp	r2, r3
    60b4:	baffffd3 	blt	6008 <__mem2hex_helper+0xec>
    60b8:	e59f304c 	ldr	r3, [pc, #76]	; 610c <__mem2hex_helper+0x1f0>
    60bc:	e5932000 	ldr	r2, [r3]
    60c0:	e51b3018 	ldr	r3, [fp, #-24]	; 0xffffffe8
    60c4:	e0632002 	rsb	r2, r3, r2
    60c8:	e59f303c 	ldr	r3, [pc, #60]	; 610c <__mem2hex_helper+0x1f0>
    60cc:	e5832000 	str	r2, [r3]
    60d0:	e59f3038 	ldr	r3, [pc, #56]	; 6110 <__mem2hex_helper+0x1f4>
    60d4:	e5932000 	ldr	r2, [r3]
    60d8:	e51b3018 	ldr	r3, [fp, #-24]	; 0xffffffe8
    60dc:	e0822003 	add	r2, r2, r3
    60e0:	e59f3028 	ldr	r3, [pc, #40]	; 6110 <__mem2hex_helper+0x1f4>
    60e4:	e5832000 	str	r2, [r3]
    60e8:	e59f301c 	ldr	r3, [pc, #28]	; 610c <__mem2hex_helper+0x1f0>
    60ec:	e5933000 	ldr	r3, [r3]
    60f0:	e3530000 	cmp	r3, #0
    60f4:	caffff90 	bgt	5f3c <__mem2hex_helper+0x20>
    60f8:	e24bd00c 	sub	sp, fp, #12
    60fc:	e89d6800 	ldm	sp, {fp, sp, lr}
    6100:	e12fff1e 	bx	lr
    6104:	81002d8c 	.word	0x81002d8c
    6108:	81002da4 	.word	0x81002da4
    610c:	81002d98 	.word	0x81002d98
    6110:	81002d9c 	.word	0x81002d9c
    6114:	81002da0 	.word	0x81002da0
    6118:	00015ac0 	.word	0x00015ac0

0000611c <__mem2hex>:
    611c:	e1a0c00d 	mov	ip, sp
    6120:	e92dd800 	push	{fp, ip, lr, pc}
    6124:	e24cb004 	sub	fp, ip, #4
    6128:	e24dd018 	sub	sp, sp, #24
    612c:	e50b0010 	str	r0, [fp, #-16]
    6130:	e50b1014 	str	r1, [fp, #-20]	; 0xffffffec
    6134:	e50b2018 	str	r2, [fp, #-24]	; 0xffffffe8
    6138:	e50b301c 	str	r3, [fp, #-28]	; 0xffffffe4
    613c:	e59f2094 	ldr	r2, [pc, #148]	; 61d8 <__mem2hex+0xbc>
    6140:	e51b3014 	ldr	r3, [fp, #-20]	; 0xffffffec
    6144:	e5823000 	str	r3, [r2]
    6148:	e59f208c 	ldr	r2, [pc, #140]	; 61dc <__mem2hex+0xc0>
    614c:	e51b3010 	ldr	r3, [fp, #-16]
    6150:	e5823000 	str	r3, [r2]
    6154:	e59f2084 	ldr	r2, [pc, #132]	; 61e0 <__mem2hex+0xc4>
    6158:	e51b3018 	ldr	r3, [fp, #-24]	; 0xffffffe8
    615c:	e5823000 	str	r3, [r2]
    6160:	e59f207c 	ldr	r2, [pc, #124]	; 61e4 <__mem2hex+0xc8>
    6164:	e51b301c 	ldr	r3, [fp, #-28]	; 0xffffffe4
    6168:	e5823000 	str	r3, [r2]
    616c:	e51b301c 	ldr	r3, [fp, #-28]	; 0xffffffe4
    6170:	e3530000 	cmp	r3, #0
    6174:	0a00000a 	beq	61a4 <__mem2hex+0x88>
    6178:	e59f2068 	ldr	r2, [pc, #104]	; 61e8 <__mem2hex+0xcc>
    617c:	e3a03000 	mov	r3, #0
    6180:	e5823000 	str	r3, [r2]
    6184:	ebffff64 	bl	5f1c <__mem2hex_helper>
    6188:	e59f3058 	ldr	r3, [pc, #88]	; 61e8 <__mem2hex+0xcc>
    618c:	e5933000 	ldr	r3, [r3]
    6190:	e3530000 	cmp	r3, #0
    6194:	0a000003 	beq	61a8 <__mem2hex+0x8c>
    6198:	e3a03000 	mov	r3, #0
    619c:	e50b3020 	str	r3, [fp, #-32]	; 0xffffffe0
    61a0:	ea000007 	b	61c4 <__mem2hex+0xa8>
    61a4:	ebffff5c 	bl	5f1c <__mem2hex_helper>
    61a8:	e59f3028 	ldr	r3, [pc, #40]	; 61d8 <__mem2hex+0xbc>
    61ac:	e5932000 	ldr	r2, [r3]
    61b0:	e3a03000 	mov	r3, #0
    61b4:	e5c23000 	strb	r3, [r2]
    61b8:	e59f3018 	ldr	r3, [pc, #24]	; 61d8 <__mem2hex+0xbc>
    61bc:	e5933000 	ldr	r3, [r3]
    61c0:	e50b3020 	str	r3, [fp, #-32]	; 0xffffffe0
    61c4:	e51b3020 	ldr	r3, [fp, #-32]	; 0xffffffe0
    61c8:	e1a00003 	mov	r0, r3
    61cc:	e24bd00c 	sub	sp, fp, #12
    61d0:	e89d6800 	ldm	sp, {fp, sp, lr}
    61d4:	e12fff1e 	bx	lr
    61d8:	81002da0 	.word	0x81002da0
    61dc:	81002d9c 	.word	0x81002d9c
    61e0:	81002d98 	.word	0x81002d98
    61e4:	81002da4 	.word	0x81002da4
    61e8:	81002d8c 	.word	0x81002d8c

000061ec <__mem2hex_safe>:
    61ec:	e1a0c00d 	mov	ip, sp
    61f0:	e92dd800 	push	{fp, ip, lr, pc}
    61f4:	e24cb004 	sub	fp, ip, #4
    61f8:	e24dd010 	sub	sp, sp, #16
    61fc:	e50b0010 	str	r0, [fp, #-16]
    6200:	e50b1014 	str	r1, [fp, #-20]	; 0xffffffec
    6204:	e50b2018 	str	r2, [fp, #-24]	; 0xffffffe8
    6208:	e59f2084 	ldr	r2, [pc, #132]	; 6294 <__mem2hex_safe+0xa8>
    620c:	e51b3014 	ldr	r3, [fp, #-20]	; 0xffffffec
    6210:	e5823000 	str	r3, [r2]
    6214:	e51b2010 	ldr	r2, [fp, #-16]
    6218:	e59f3078 	ldr	r3, [pc, #120]	; 6298 <__mem2hex_safe+0xac>
    621c:	e5832000 	str	r2, [r3]
    6220:	e59f2074 	ldr	r2, [pc, #116]	; 629c <__mem2hex_safe+0xb0>
    6224:	e51b3018 	ldr	r3, [fp, #-24]	; 0xffffffe8
    6228:	e5823000 	str	r3, [r2]
    622c:	e59f206c 	ldr	r2, [pc, #108]	; 62a0 <__mem2hex_safe+0xb4>
    6230:	e3a03001 	mov	r3, #1
    6234:	e5823000 	str	r3, [r2]
    6238:	e59f2064 	ldr	r2, [pc, #100]	; 62a4 <__mem2hex_safe+0xb8>
    623c:	e3a03000 	mov	r3, #0
    6240:	e5823000 	str	r3, [r2]
    6244:	ebffff34 	bl	5f1c <__mem2hex_helper>
    6248:	e59f3054 	ldr	r3, [pc, #84]	; 62a4 <__mem2hex_safe+0xb8>
    624c:	e5933000 	ldr	r3, [r3]
    6250:	e3530000 	cmp	r3, #0
    6254:	0a000002 	beq	6264 <__mem2hex_safe+0x78>
    6258:	e3a03000 	mov	r3, #0
    625c:	e50b301c 	str	r3, [fp, #-28]	; 0xffffffe4
    6260:	ea000006 	b	6280 <__mem2hex_safe+0x94>
    6264:	e59f3028 	ldr	r3, [pc, #40]	; 6294 <__mem2hex_safe+0xa8>
    6268:	e5932000 	ldr	r2, [r3]
    626c:	e3a03000 	mov	r3, #0
    6270:	e5c23000 	strb	r3, [r2]
    6274:	e59f3018 	ldr	r3, [pc, #24]	; 6294 <__mem2hex_safe+0xa8>
    6278:	e5933000 	ldr	r3, [r3]
    627c:	e50b301c 	str	r3, [fp, #-28]	; 0xffffffe4
    6280:	e51b301c 	ldr	r3, [fp, #-28]	; 0xffffffe4
    6284:	e1a00003 	mov	r0, r3
    6288:	e24bd00c 	sub	sp, fp, #12
    628c:	e89d6800 	ldm	sp, {fp, sp, lr}
    6290:	e12fff1e 	bx	lr
    6294:	81002da0 	.word	0x81002da0
    6298:	81002d9c 	.word	0x81002d9c
    629c:	81002d98 	.word	0x81002d98
    62a0:	81002da4 	.word	0x81002da4
    62a4:	81002d8c 	.word	0x81002d8c

000062a8 <__hex2mem_helper>:
    62a8:	e1a0c00d 	mov	ip, sp
    62ac:	e92dd800 	push	{fp, ip, lr, pc}
    62b0:	e24cb004 	sub	fp, ip, #4
    62b4:	e24dd010 	sub	sp, sp, #16
    62b8:	e3a03000 	mov	r3, #0
    62bc:	e54b300d 	strb	r3, [fp, #-13]
    62c0:	e59f2210 	ldr	r2, [pc, #528]	; 64d8 <__hex2mem_helper+0x230>
    62c4:	e3a03000 	mov	r3, #0
    62c8:	e5823000 	str	r3, [r2]
    62cc:	ea000075 	b	64a8 <__hex2mem_helper+0x200>
    62d0:	e59f3204 	ldr	r3, [pc, #516]	; 64dc <__hex2mem_helper+0x234>
    62d4:	e5933000 	ldr	r3, [r3]
    62d8:	e3530000 	cmp	r3, #0
    62dc:	0a00001a 	beq	634c <__hex2mem_helper+0xa4>
    62e0:	e59f31f8 	ldr	r3, [pc, #504]	; 64e0 <__hex2mem_helper+0x238>
    62e4:	e5933000 	ldr	r3, [r3]
    62e8:	e3530003 	cmp	r3, #3
    62ec:	9a000007 	bls	6310 <__hex2mem_helper+0x68>
    62f0:	e59f31ec 	ldr	r3, [pc, #492]	; 64e4 <__hex2mem_helper+0x23c>
    62f4:	e5933000 	ldr	r3, [r3]
    62f8:	e2033003 	and	r3, r3, #3
    62fc:	e3530000 	cmp	r3, #0
    6300:	1a000002 	bne	6310 <__hex2mem_helper+0x68>
    6304:	e3a03004 	mov	r3, #4
    6308:	e50b3018 	str	r3, [fp, #-24]	; 0xffffffe8
    630c:	ea000010 	b	6354 <__hex2mem_helper+0xac>
    6310:	e59f31c8 	ldr	r3, [pc, #456]	; 64e0 <__hex2mem_helper+0x238>
    6314:	e5933000 	ldr	r3, [r3]
    6318:	e3530001 	cmp	r3, #1
    631c:	9a000007 	bls	6340 <__hex2mem_helper+0x98>
    6320:	e59f31bc 	ldr	r3, [pc, #444]	; 64e4 <__hex2mem_helper+0x23c>
    6324:	e5933000 	ldr	r3, [r3]
    6328:	e2033001 	and	r3, r3, #1
    632c:	e3530000 	cmp	r3, #0
    6330:	1a000002 	bne	6340 <__hex2mem_helper+0x98>
    6334:	e3a03002 	mov	r3, #2
    6338:	e50b3018 	str	r3, [fp, #-24]	; 0xffffffe8
    633c:	ea000004 	b	6354 <__hex2mem_helper+0xac>
    6340:	e3a03001 	mov	r3, #1
    6344:	e50b3018 	str	r3, [fp, #-24]	; 0xffffffe8
    6348:	ea000001 	b	6354 <__hex2mem_helper+0xac>
    634c:	e3a03001 	mov	r3, #1
    6350:	e50b3018 	str	r3, [fp, #-24]	; 0xffffffe8
    6354:	e3a03000 	mov	r3, #0
    6358:	e50b3014 	str	r3, [fp, #-20]	; 0xffffffec
    635c:	ea00002d 	b	6418 <__hex2mem_helper+0x170>
    6360:	e59f3180 	ldr	r3, [pc, #384]	; 64e8 <__hex2mem_helper+0x240>
    6364:	e5933000 	ldr	r3, [r3]
    6368:	e5d31000 	ldrb	r1, [r3]
    636c:	e2832001 	add	r2, r3, #1
    6370:	e59f3170 	ldr	r3, [pc, #368]	; 64e8 <__hex2mem_helper+0x240>
    6374:	e5832000 	str	r2, [r3]
    6378:	e1a00001 	mov	r0, r1
    637c:	ebfffda4 	bl	5a14 <stubhex>
    6380:	e1a03000 	mov	r3, r0
    6384:	e20330ff 	and	r3, r3, #255	; 0xff
    6388:	e1a03203 	lsl	r3, r3, #4
    638c:	e54b300d 	strb	r3, [fp, #-13]
    6390:	e59f3140 	ldr	r3, [pc, #320]	; 64d8 <__hex2mem_helper+0x230>
    6394:	e5933000 	ldr	r3, [r3]
    6398:	e3530000 	cmp	r3, #0
    639c:	1a00004a 	bne	64cc <__hex2mem_helper+0x224>
    63a0:	e59f3140 	ldr	r3, [pc, #320]	; 64e8 <__hex2mem_helper+0x240>
    63a4:	e5933000 	ldr	r3, [r3]
    63a8:	e5d31000 	ldrb	r1, [r3]
    63ac:	e2832001 	add	r2, r3, #1
    63b0:	e59f3130 	ldr	r3, [pc, #304]	; 64e8 <__hex2mem_helper+0x240>
    63b4:	e5832000 	str	r2, [r3]
    63b8:	e1a00001 	mov	r0, r1
    63bc:	ebfffd94 	bl	5a14 <stubhex>
    63c0:	e1a03000 	mov	r3, r0
    63c4:	e20330ff 	and	r3, r3, #255	; 0xff
    63c8:	e55b200d 	ldrb	r2, [fp, #-13]
    63cc:	e1a01003 	mov	r1, r3
    63d0:	e1a03002 	mov	r3, r2
    63d4:	e1813003 	orr	r3, r1, r3
    63d8:	e20330ff 	and	r3, r3, #255	; 0xff
    63dc:	e54b300d 	strb	r3, [fp, #-13]
    63e0:	e59f30f0 	ldr	r3, [pc, #240]	; 64d8 <__hex2mem_helper+0x230>
    63e4:	e5933000 	ldr	r3, [r3]
    63e8:	e3530000 	cmp	r3, #0
    63ec:	1a000036 	bne	64cc <__hex2mem_helper+0x224>
    63f0:	e51b3014 	ldr	r3, [fp, #-20]	; 0xffffffec
    63f4:	e3e0200f 	mvn	r2, #15
    63f8:	e24b100c 	sub	r1, fp, #12
    63fc:	e0813003 	add	r3, r1, r3
    6400:	e0832002 	add	r2, r3, r2
    6404:	e55b300d 	ldrb	r3, [fp, #-13]
    6408:	e5c23000 	strb	r3, [r2]
    640c:	e51b3014 	ldr	r3, [fp, #-20]	; 0xffffffec
    6410:	e2833001 	add	r3, r3, #1
    6414:	e50b3014 	str	r3, [fp, #-20]	; 0xffffffec
    6418:	e51b2014 	ldr	r2, [fp, #-20]	; 0xffffffec
    641c:	e51b3018 	ldr	r3, [fp, #-24]	; 0xffffffe8
    6420:	e1520003 	cmp	r2, r3
    6424:	baffffcd 	blt	6360 <__hex2mem_helper+0xb8>
    6428:	e59f30ac 	ldr	r3, [pc, #172]	; 64dc <__hex2mem_helper+0x234>
    642c:	e5933000 	ldr	r3, [r3]
    6430:	e3530000 	cmp	r3, #0
    6434:	0a000007 	beq	6458 <__hex2mem_helper+0x1b0>
    6438:	e59f30a4 	ldr	r3, [pc, #164]	; 64e4 <__hex2mem_helper+0x23c>
    643c:	e5932000 	ldr	r2, [r3]
    6440:	e24b301c 	sub	r3, fp, #28
    6444:	e1a00003 	mov	r0, r3
    6448:	e1a01002 	mov	r1, r2
    644c:	e51b2018 	ldr	r2, [fp, #-24]	; 0xffffffe8
    6450:	eb000f55 	bl	a1ac <__write_mem_safe>
    6454:	ea000003 	b	6468 <__hex2mem_helper+0x1c0>
    6458:	e59f3084 	ldr	r3, [pc, #132]	; 64e4 <__hex2mem_helper+0x23c>
    645c:	e5932000 	ldr	r2, [r3]
    6460:	e55b300d 	ldrb	r3, [fp, #-13]
    6464:	e5c23000 	strb	r3, [r2]
    6468:	e59f3068 	ldr	r3, [pc, #104]	; 64d8 <__hex2mem_helper+0x230>
    646c:	e5933000 	ldr	r3, [r3]
    6470:	e3530000 	cmp	r3, #0
    6474:	1a000014 	bne	64cc <__hex2mem_helper+0x224>
    6478:	e59f3060 	ldr	r3, [pc, #96]	; 64e0 <__hex2mem_helper+0x238>
    647c:	e5932000 	ldr	r2, [r3]
    6480:	e51b3018 	ldr	r3, [fp, #-24]	; 0xffffffe8
    6484:	e0632002 	rsb	r2, r3, r2
    6488:	e59f3050 	ldr	r3, [pc, #80]	; 64e0 <__hex2mem_helper+0x238>
    648c:	e5832000 	str	r2, [r3]
    6490:	e59f304c 	ldr	r3, [pc, #76]	; 64e4 <__hex2mem_helper+0x23c>
    6494:	e5932000 	ldr	r2, [r3]
    6498:	e51b3018 	ldr	r3, [fp, #-24]	; 0xffffffe8
    649c:	e0822003 	add	r2, r2, r3
    64a0:	e59f303c 	ldr	r3, [pc, #60]	; 64e4 <__hex2mem_helper+0x23c>
    64a4:	e5832000 	str	r2, [r3]
    64a8:	e59f3030 	ldr	r3, [pc, #48]	; 64e0 <__hex2mem_helper+0x238>
    64ac:	e5933000 	ldr	r3, [r3]
    64b0:	e3530000 	cmp	r3, #0
    64b4:	da000004 	ble	64cc <__hex2mem_helper+0x224>
    64b8:	e59f3028 	ldr	r3, [pc, #40]	; 64e8 <__hex2mem_helper+0x240>
    64bc:	e5933000 	ldr	r3, [r3]
    64c0:	e5d33000 	ldrb	r3, [r3]
    64c4:	e3530000 	cmp	r3, #0
    64c8:	1affff80 	bne	62d0 <__hex2mem_helper+0x28>
    64cc:	e24bd00c 	sub	sp, fp, #12
    64d0:	e89d6800 	ldm	sp, {fp, sp, lr}
    64d4:	e12fff1e 	bx	lr
    64d8:	81002d8c 	.word	0x81002d8c
    64dc:	81002da4 	.word	0x81002da4
    64e0:	81002d98 	.word	0x81002d98
    64e4:	81002da0 	.word	0x81002da0
    64e8:	81002d9c 	.word	0x81002d9c

000064ec <__hex2mem>:
    64ec:	e1a0c00d 	mov	ip, sp
    64f0:	e92dd800 	push	{fp, ip, lr, pc}
    64f4:	e24cb004 	sub	fp, ip, #4
    64f8:	e24dd018 	sub	sp, sp, #24
    64fc:	e50b0010 	str	r0, [fp, #-16]
    6500:	e50b1014 	str	r1, [fp, #-20]	; 0xffffffec
    6504:	e50b2018 	str	r2, [fp, #-24]	; 0xffffffe8
    6508:	e50b301c 	str	r3, [fp, #-28]	; 0xffffffe4
    650c:	e59f2084 	ldr	r2, [pc, #132]	; 6598 <__hex2mem+0xac>
    6510:	e51b3010 	ldr	r3, [fp, #-16]
    6514:	e5823000 	str	r3, [r2]
    6518:	e59f207c 	ldr	r2, [pc, #124]	; 659c <__hex2mem+0xb0>
    651c:	e51b3014 	ldr	r3, [fp, #-20]	; 0xffffffec
    6520:	e5823000 	str	r3, [r2]
    6524:	e59f2074 	ldr	r2, [pc, #116]	; 65a0 <__hex2mem+0xb4>
    6528:	e51b3018 	ldr	r3, [fp, #-24]	; 0xffffffe8
    652c:	e5823000 	str	r3, [r2]
    6530:	e59f206c 	ldr	r2, [pc, #108]	; 65a4 <__hex2mem+0xb8>
    6534:	e51b301c 	ldr	r3, [fp, #-28]	; 0xffffffe4
    6538:	e5823000 	str	r3, [r2]
    653c:	e51b301c 	ldr	r3, [fp, #-28]	; 0xffffffe4
    6540:	e3530000 	cmp	r3, #0
    6544:	0a00000a 	beq	6574 <__hex2mem+0x88>
    6548:	e59f2058 	ldr	r2, [pc, #88]	; 65a8 <__hex2mem+0xbc>
    654c:	e3a03000 	mov	r3, #0
    6550:	e5823000 	str	r3, [r2]
    6554:	ebffff53 	bl	62a8 <__hex2mem_helper>
    6558:	e59f3048 	ldr	r3, [pc, #72]	; 65a8 <__hex2mem+0xbc>
    655c:	e5933000 	ldr	r3, [r3]
    6560:	e3530000 	cmp	r3, #0
    6564:	0a000003 	beq	6578 <__hex2mem+0x8c>
    6568:	e3a03000 	mov	r3, #0
    656c:	e50b3020 	str	r3, [fp, #-32]	; 0xffffffe0
    6570:	ea000003 	b	6584 <__hex2mem+0x98>
    6574:	ebffff4b 	bl	62a8 <__hex2mem_helper>
    6578:	e59f301c 	ldr	r3, [pc, #28]	; 659c <__hex2mem+0xb0>
    657c:	e5933000 	ldr	r3, [r3]
    6580:	e50b3020 	str	r3, [fp, #-32]	; 0xffffffe0
    6584:	e51b3020 	ldr	r3, [fp, #-32]	; 0xffffffe0
    6588:	e1a00003 	mov	r0, r3
    658c:	e24bd00c 	sub	sp, fp, #12
    6590:	e89d6800 	ldm	sp, {fp, sp, lr}
    6594:	e12fff1e 	bx	lr
    6598:	81002d9c 	.word	0x81002d9c
    659c:	81002da0 	.word	0x81002da0
    65a0:	81002d98 	.word	0x81002d98
    65a4:	81002da4 	.word	0x81002da4
    65a8:	81002d8c 	.word	0x81002d8c

000065ac <__hex2mem_safe>:
    65ac:	e1a0c00d 	mov	ip, sp
    65b0:	e92dd800 	push	{fp, ip, lr, pc}
    65b4:	e24cb004 	sub	fp, ip, #4
    65b8:	e24dd010 	sub	sp, sp, #16
    65bc:	e50b0010 	str	r0, [fp, #-16]
    65c0:	e50b1014 	str	r1, [fp, #-20]	; 0xffffffec
    65c4:	e50b2018 	str	r2, [fp, #-24]	; 0xffffffe8
    65c8:	e59f2074 	ldr	r2, [pc, #116]	; 6644 <__hex2mem_safe+0x98>
    65cc:	e51b3010 	ldr	r3, [fp, #-16]
    65d0:	e5823000 	str	r3, [r2]
    65d4:	e51b2014 	ldr	r2, [fp, #-20]	; 0xffffffec
    65d8:	e59f3068 	ldr	r3, [pc, #104]	; 6648 <__hex2mem_safe+0x9c>
    65dc:	e5832000 	str	r2, [r3]
    65e0:	e59f2064 	ldr	r2, [pc, #100]	; 664c <__hex2mem_safe+0xa0>
    65e4:	e51b3018 	ldr	r3, [fp, #-24]	; 0xffffffe8
    65e8:	e5823000 	str	r3, [r2]
    65ec:	e59f205c 	ldr	r2, [pc, #92]	; 6650 <__hex2mem_safe+0xa4>
    65f0:	e3a03001 	mov	r3, #1
    65f4:	e5823000 	str	r3, [r2]
    65f8:	e59f2054 	ldr	r2, [pc, #84]	; 6654 <__hex2mem_safe+0xa8>
    65fc:	e3a03000 	mov	r3, #0
    6600:	e5823000 	str	r3, [r2]
    6604:	ebffff27 	bl	62a8 <__hex2mem_helper>
    6608:	e59f3044 	ldr	r3, [pc, #68]	; 6654 <__hex2mem_safe+0xa8>
    660c:	e5933000 	ldr	r3, [r3]
    6610:	e3530000 	cmp	r3, #0
    6614:	0a000002 	beq	6624 <__hex2mem_safe+0x78>
    6618:	e3a03000 	mov	r3, #0
    661c:	e50b301c 	str	r3, [fp, #-28]	; 0xffffffe4
    6620:	ea000002 	b	6630 <__hex2mem_safe+0x84>
    6624:	e59f301c 	ldr	r3, [pc, #28]	; 6648 <__hex2mem_safe+0x9c>
    6628:	e5933000 	ldr	r3, [r3]
    662c:	e50b301c 	str	r3, [fp, #-28]	; 0xffffffe4
    6630:	e51b301c 	ldr	r3, [fp, #-28]	; 0xffffffe4
    6634:	e1a00003 	mov	r0, r3
    6638:	e24bd00c 	sub	sp, fp, #12
    663c:	e89d6800 	ldm	sp, {fp, sp, lr}
    6640:	e12fff1e 	bx	lr
    6644:	81002d9c 	.word	0x81002d9c
    6648:	81002da0 	.word	0x81002da0
    664c:	81002d98 	.word	0x81002d98
    6650:	81002da4 	.word	0x81002da4
    6654:	81002d8c 	.word	0x81002d8c

00006658 <set_debug_traps>:
    6658:	e1a0c00d 	mov	ip, sp
    665c:	e92dd800 	push	{fp, ip, lr, pc}
    6660:	e24cb004 	sub	fp, ip, #4
    6664:	eb000cef 	bl	9a28 <__install_traps>
    6668:	e59f2010 	ldr	r2, [pc, #16]	; 6680 <set_debug_traps+0x28>
    666c:	e3a03001 	mov	r3, #1
    6670:	e5823000 	str	r3, [r2]
    6674:	e24bd00c 	sub	sp, fp, #12
    6678:	e89d6800 	ldm	sp, {fp, sp, lr}
    667c:	e12fff1e 	bx	lr
    6680:	81002d7c 	.word	0x81002d7c

00006684 <__hexToInt>:
    6684:	e1a0c00d 	mov	ip, sp
    6688:	e92dd800 	push	{fp, ip, lr, pc}
    668c:	e24cb004 	sub	fp, ip, #4
    6690:	e24dd010 	sub	sp, sp, #16
    6694:	e50b0018 	str	r0, [fp, #-24]	; 0xffffffe8
    6698:	e50b101c 	str	r1, [fp, #-28]	; 0xffffffe4
    669c:	e3a03000 	mov	r3, #0
    66a0:	e50b3014 	str	r3, [fp, #-20]	; 0xffffffec
    66a4:	e51b201c 	ldr	r2, [fp, #-28]	; 0xffffffe4
    66a8:	e3a03000 	mov	r3, #0
    66ac:	e5823000 	str	r3, [r2]
    66b0:	ea000018 	b	6718 <__hexToInt+0x94>
    66b4:	e51b3018 	ldr	r3, [fp, #-24]	; 0xffffffe8
    66b8:	e5933000 	ldr	r3, [r3]
    66bc:	e5d33000 	ldrb	r3, [r3]
    66c0:	e1a00003 	mov	r0, r3
    66c4:	ebfffcd2 	bl	5a14 <stubhex>
    66c8:	e1a03000 	mov	r3, r0
    66cc:	e50b3010 	str	r3, [fp, #-16]
    66d0:	e51b3010 	ldr	r3, [fp, #-16]
    66d4:	e3530000 	cmp	r3, #0
    66d8:	ba000013 	blt	672c <__hexToInt+0xa8>
    66dc:	e51b301c 	ldr	r3, [fp, #-28]	; 0xffffffe4
    66e0:	e5933000 	ldr	r3, [r3]
    66e4:	e1a02203 	lsl	r2, r3, #4
    66e8:	e51b3010 	ldr	r3, [fp, #-16]
    66ec:	e1822003 	orr	r2, r2, r3
    66f0:	e51b301c 	ldr	r3, [fp, #-28]	; 0xffffffe4
    66f4:	e5832000 	str	r2, [r3]
    66f8:	e51b3014 	ldr	r3, [fp, #-20]	; 0xffffffec
    66fc:	e2833001 	add	r3, r3, #1
    6700:	e50b3014 	str	r3, [fp, #-20]	; 0xffffffec
    6704:	e51b3018 	ldr	r3, [fp, #-24]	; 0xffffffe8
    6708:	e5933000 	ldr	r3, [r3]
    670c:	e2832001 	add	r2, r3, #1
    6710:	e51b3018 	ldr	r3, [fp, #-24]	; 0xffffffe8
    6714:	e5832000 	str	r2, [r3]
    6718:	e51b3018 	ldr	r3, [fp, #-24]	; 0xffffffe8
    671c:	e5933000 	ldr	r3, [r3]
    6720:	e5d33000 	ldrb	r3, [r3]
    6724:	e3530000 	cmp	r3, #0
    6728:	1affffe1 	bne	66b4 <__hexToInt+0x30>
    672c:	e51b3014 	ldr	r3, [fp, #-20]	; 0xffffffec
    6730:	e1a00003 	mov	r0, r3
    6734:	e24bd00c 	sub	sp, fp, #12
    6738:	e89d6800 	ldm	sp, {fp, sp, lr}
    673c:	e12fff1e 	bx	lr

00006740 <__hexToAddr>:
    6740:	e1a0c00d 	mov	ip, sp
    6744:	e92dd800 	push	{fp, ip, lr, pc}
    6748:	e24cb004 	sub	fp, ip, #4
    674c:	e24dd010 	sub	sp, sp, #16
    6750:	e50b0018 	str	r0, [fp, #-24]	; 0xffffffe8
    6754:	e50b101c 	str	r1, [fp, #-28]	; 0xffffffe4
    6758:	e3a03000 	mov	r3, #0
    675c:	e50b3014 	str	r3, [fp, #-20]	; 0xffffffec
    6760:	e51b201c 	ldr	r2, [fp, #-28]	; 0xffffffe4
    6764:	e3a03000 	mov	r3, #0
    6768:	e5823000 	str	r3, [r2]
    676c:	ea000018 	b	67d4 <__hexToAddr+0x94>
    6770:	e51b3018 	ldr	r3, [fp, #-24]	; 0xffffffe8
    6774:	e5933000 	ldr	r3, [r3]
    6778:	e5d33000 	ldrb	r3, [r3]
    677c:	e1a00003 	mov	r0, r3
    6780:	ebfffca3 	bl	5a14 <stubhex>
    6784:	e1a03000 	mov	r3, r0
    6788:	e50b3010 	str	r3, [fp, #-16]
    678c:	e51b3010 	ldr	r3, [fp, #-16]
    6790:	e3530000 	cmp	r3, #0
    6794:	ba000013 	blt	67e8 <__hexToAddr+0xa8>
    6798:	e51b301c 	ldr	r3, [fp, #-28]	; 0xffffffe4
    679c:	e5933000 	ldr	r3, [r3]
    67a0:	e1a02203 	lsl	r2, r3, #4
    67a4:	e51b3010 	ldr	r3, [fp, #-16]
    67a8:	e1822003 	orr	r2, r2, r3
    67ac:	e51b301c 	ldr	r3, [fp, #-28]	; 0xffffffe4
    67b0:	e5832000 	str	r2, [r3]
    67b4:	e51b3014 	ldr	r3, [fp, #-20]	; 0xffffffec
    67b8:	e2833001 	add	r3, r3, #1
    67bc:	e50b3014 	str	r3, [fp, #-20]	; 0xffffffec
    67c0:	e51b3018 	ldr	r3, [fp, #-24]	; 0xffffffe8
    67c4:	e5933000 	ldr	r3, [r3]
    67c8:	e2832001 	add	r2, r3, #1
    67cc:	e51b3018 	ldr	r3, [fp, #-24]	; 0xffffffe8
    67d0:	e5832000 	str	r2, [r3]
    67d4:	e51b3018 	ldr	r3, [fp, #-24]	; 0xffffffe8
    67d8:	e5933000 	ldr	r3, [r3]
    67dc:	e5d33000 	ldrb	r3, [r3]
    67e0:	e3530000 	cmp	r3, #0
    67e4:	1affffe1 	bne	6770 <__hexToAddr+0x30>
    67e8:	e51b3014 	ldr	r3, [fp, #-20]	; 0xffffffec
    67ec:	e1a00003 	mov	r0, r3
    67f0:	e24bd00c 	sub	sp, fp, #12
    67f4:	e89d6800 	ldm	sp, {fp, sp, lr}
    67f8:	e12fff1e 	bx	lr

000067fc <__intToHex>:
    67fc:	e1a0c00d 	mov	ip, sp
    6800:	e92dd800 	push	{fp, ip, lr, pc}
    6804:	e24cb004 	sub	fp, ip, #4
    6808:	e24dd018 	sub	sp, sp, #24
    680c:	e50b0018 	str	r0, [fp, #-24]	; 0xffffffe8
    6810:	e50b101c 	str	r1, [fp, #-28]	; 0xffffffe4
    6814:	e50b2020 	str	r2, [fp, #-32]	; 0xffffffe0
    6818:	e3a03000 	mov	r3, #0
    681c:	e50b3014 	str	r3, [fp, #-20]	; 0xffffffec
    6820:	e51b301c 	ldr	r3, [fp, #-28]	; 0xffffffe4
    6824:	e3530000 	cmp	r3, #0
    6828:	1a00000e 	bne	6868 <__intToHex+0x6c>
    682c:	e51b2018 	ldr	r2, [fp, #-24]	; 0xffffffe8
    6830:	e3a03030 	mov	r3, #48	; 0x30
    6834:	e5c23000 	strb	r3, [r2]
    6838:	e51b3018 	ldr	r3, [fp, #-24]	; 0xffffffe8
    683c:	e2833001 	add	r3, r3, #1
    6840:	e50b3018 	str	r3, [fp, #-24]	; 0xffffffe8
    6844:	e51b2018 	ldr	r2, [fp, #-24]	; 0xffffffe8
    6848:	e3a03030 	mov	r3, #48	; 0x30
    684c:	e5c23000 	strb	r3, [r2]
    6850:	e51b3018 	ldr	r3, [fp, #-24]	; 0xffffffe8
    6854:	e2833001 	add	r3, r3, #1
    6858:	e50b3018 	str	r3, [fp, #-24]	; 0xffffffe8
    685c:	e3a03002 	mov	r3, #2
    6860:	e50b3024 	str	r3, [fp, #-36]	; 0xffffffdc
    6864:	ea000037 	b	6948 <__intToHex+0x14c>
    6868:	e51b3020 	ldr	r3, [fp, #-32]	; 0xffffffe0
    686c:	e2833007 	add	r3, r3, #7
    6870:	e2832007 	add	r2, r3, #7
    6874:	e3530000 	cmp	r3, #0
    6878:	b1a03002 	movlt	r3, r2
    687c:	e1a031c3 	asr	r3, r3, #3
    6880:	e50b3020 	str	r3, [fp, #-32]	; 0xffffffe0
    6884:	ea00002a 	b	6934 <__intToHex+0x138>
    6888:	e51b3020 	ldr	r3, [fp, #-32]	; 0xffffffe0
    688c:	e2433001 	sub	r3, r3, #1
    6890:	e1a02183 	lsl	r2, r3, #3
    6894:	e51b301c 	ldr	r3, [fp, #-28]	; 0xffffffe4
    6898:	e1a03233 	lsr	r3, r3, r2
    689c:	e50b3010 	str	r3, [fp, #-16]
    68a0:	e51b3010 	ldr	r3, [fp, #-16]
    68a4:	e3530000 	cmp	r3, #0
    68a8:	1a000002 	bne	68b8 <__intToHex+0xbc>
    68ac:	e51b3020 	ldr	r3, [fp, #-32]	; 0xffffffe0
    68b0:	e3530001 	cmp	r3, #1
    68b4:	1a00001b 	bne	6928 <__intToHex+0x12c>
    68b8:	e51b3010 	ldr	r3, [fp, #-16]
    68bc:	e20330ff 	and	r3, r3, #255	; 0xff
    68c0:	e50b3010 	str	r3, [fp, #-16]
    68c4:	e51b3010 	ldr	r3, [fp, #-16]
    68c8:	e283200f 	add	r2, r3, #15
    68cc:	e3530000 	cmp	r3, #0
    68d0:	b1a03002 	movlt	r3, r2
    68d4:	e1a03243 	asr	r3, r3, #4
    68d8:	e203200f 	and	r2, r3, #15
    68dc:	e59f3078 	ldr	r3, [pc, #120]	; 695c <__intToHex+0x160>
    68e0:	e7d33002 	ldrb	r3, [r3, r2]
    68e4:	e51b2018 	ldr	r2, [fp, #-24]	; 0xffffffe8
    68e8:	e5c23000 	strb	r3, [r2]
    68ec:	e51b3018 	ldr	r3, [fp, #-24]	; 0xffffffe8
    68f0:	e2833001 	add	r3, r3, #1
    68f4:	e50b3018 	str	r3, [fp, #-24]	; 0xffffffe8
    68f8:	e51b3010 	ldr	r3, [fp, #-16]
    68fc:	e203200f 	and	r2, r3, #15
    6900:	e59f3054 	ldr	r3, [pc, #84]	; 695c <__intToHex+0x160>
    6904:	e7d33002 	ldrb	r3, [r3, r2]
    6908:	e51b2018 	ldr	r2, [fp, #-24]	; 0xffffffe8
    690c:	e5c23000 	strb	r3, [r2]
    6910:	e51b3018 	ldr	r3, [fp, #-24]	; 0xffffffe8
    6914:	e2833001 	add	r3, r3, #1
    6918:	e50b3018 	str	r3, [fp, #-24]	; 0xffffffe8
    691c:	e51b3014 	ldr	r3, [fp, #-20]	; 0xffffffec
    6920:	e2833002 	add	r3, r3, #2
    6924:	e50b3014 	str	r3, [fp, #-20]	; 0xffffffec
    6928:	e51b3020 	ldr	r3, [fp, #-32]	; 0xffffffe0
    692c:	e2433001 	sub	r3, r3, #1
    6930:	e50b3020 	str	r3, [fp, #-32]	; 0xffffffe0
    6934:	e51b3020 	ldr	r3, [fp, #-32]	; 0xffffffe0
    6938:	e3530000 	cmp	r3, #0
    693c:	1affffd1 	bne	6888 <__intToHex+0x8c>
    6940:	e51b3014 	ldr	r3, [fp, #-20]	; 0xffffffec
    6944:	e50b3024 	str	r3, [fp, #-36]	; 0xffffffdc
    6948:	e51b3024 	ldr	r3, [fp, #-36]	; 0xffffffdc
    694c:	e1a00003 	mov	r0, r3
    6950:	e24bd00c 	sub	sp, fp, #12
    6954:	e89d6800 	ldm	sp, {fp, sp, lr}
    6958:	e12fff1e 	bx	lr
    695c:	00015ac0 	.word	0x00015ac0

00006960 <lock_thread_scheduler>:
    6960:	e1a0c00d 	mov	ip, sp
    6964:	e92dd800 	push	{fp, ip, lr, pc}
    6968:	e24cb004 	sub	fp, ip, #4
    696c:	e24dd010 	sub	sp, sp, #16
    6970:	e50b0018 	str	r0, [fp, #-24]	; 0xffffffe8
    6974:	e3a03000 	mov	r3, #0
    6978:	e50b3010 	str	r3, [fp, #-16]
    697c:	e59f30c4 	ldr	r3, [pc, #196]	; 6a48 <lock_thread_scheduler+0xe8>
    6980:	e5933000 	ldr	r3, [r3]
    6984:	e3530000 	cmp	r3, #0
    6988:	da00002b 	ble	6a3c <lock_thread_scheduler+0xdc>
    698c:	e59f30b8 	ldr	r3, [pc, #184]	; 6a4c <lock_thread_scheduler+0xec>
    6990:	e5933000 	ldr	r3, [r3]
    6994:	e3530000 	cmp	r3, #0
    6998:	0a00000a 	beq	69c8 <lock_thread_scheduler+0x68>
    699c:	e59f30a8 	ldr	r3, [pc, #168]	; 6a4c <lock_thread_scheduler+0xec>
    69a0:	e593c000 	ldr	ip, [r3]
    69a4:	e59f309c 	ldr	r3, [pc, #156]	; 6a48 <lock_thread_scheduler+0xe8>
    69a8:	e5933000 	ldr	r3, [r3]
    69ac:	e3a00001 	mov	r0, #1
    69b0:	e51b1018 	ldr	r1, [fp, #-24]	; 0xffffffe8
    69b4:	e1a02003 	mov	r2, r3
    69b8:	e1a0e00f 	mov	lr, pc
    69bc:	e12fff1c 	bx	ip
    69c0:	e1a03000 	mov	r3, r0
    69c4:	e50b3010 	str	r3, [fp, #-16]
    69c8:	e51b3010 	ldr	r3, [fp, #-16]
    69cc:	e3530001 	cmp	r3, #1
    69d0:	1a000003 	bne	69e4 <lock_thread_scheduler+0x84>
    69d4:	e59f3074 	ldr	r3, [pc, #116]	; 6a50 <lock_thread_scheduler+0xf0>
    69d8:	e3a02001 	mov	r2, #1
    69dc:	e5c32000 	strb	r2, [r3]
    69e0:	ea000015 	b	6a3c <lock_thread_scheduler+0xdc>
    69e4:	e59f3060 	ldr	r3, [pc, #96]	; 6a4c <lock_thread_scheduler+0xec>
    69e8:	e5933000 	ldr	r3, [r3]
    69ec:	e3530000 	cmp	r3, #0
    69f0:	0a000002 	beq	6a00 <lock_thread_scheduler+0xa0>
    69f4:	e51b3010 	ldr	r3, [fp, #-16]
    69f8:	e3730001 	cmn	r3, #1
    69fc:	1a00000e 	bne	6a3c <lock_thread_scheduler+0xdc>
    6a00:	e59f304c 	ldr	r3, [pc, #76]	; 6a54 <lock_thread_scheduler+0xf4>
    6a04:	e5933000 	ldr	r3, [r3]
    6a08:	e3530000 	cmp	r3, #0
    6a0c:	0a00000a 	beq	6a3c <lock_thread_scheduler+0xdc>
    6a10:	e59f303c 	ldr	r3, [pc, #60]	; 6a54 <lock_thread_scheduler+0xf4>
    6a14:	e5933000 	ldr	r3, [r3]
    6a18:	e3a00001 	mov	r0, #1
    6a1c:	e1a0e00f 	mov	lr, pc
    6a20:	e12fff13 	bx	r3
    6a24:	e1a03000 	mov	r3, r0
    6a28:	e3530000 	cmp	r3, #0
    6a2c:	0a000002 	beq	6a3c <lock_thread_scheduler+0xdc>
    6a30:	e59f3020 	ldr	r3, [pc, #32]	; 6a58 <lock_thread_scheduler+0xf8>
    6a34:	e3a02001 	mov	r2, #1
    6a38:	e5c32000 	strb	r2, [r3]
    6a3c:	e24bd00c 	sub	sp, fp, #12
    6a40:	e89d6800 	ldm	sp, {fp, sp, lr}
    6a44:	e12fff1e 	bx	lr
    6a48:	81005570 	.word	0x81005570
    6a4c:	810002c0 	.word	0x810002c0
    6a50:	81002d90 	.word	0x81002d90
    6a54:	81004564 	.word	0x81004564
    6a58:	81002d91 	.word	0x81002d91

00006a5c <unlock_thread_scheduler>:
    6a5c:	e1a0c00d 	mov	ip, sp
    6a60:	e92dd800 	push	{fp, ip, lr, pc}
    6a64:	e24cb004 	sub	fp, ip, #4
    6a68:	e59f3094 	ldr	r3, [pc, #148]	; 6b04 <unlock_thread_scheduler+0xa8>
    6a6c:	e5d33000 	ldrb	r3, [r3]
    6a70:	e3530000 	cmp	r3, #0
    6a74:	0a00000f 	beq	6ab8 <unlock_thread_scheduler+0x5c>
    6a78:	e59f3088 	ldr	r3, [pc, #136]	; 6b08 <unlock_thread_scheduler+0xac>
    6a7c:	e5933000 	ldr	r3, [r3]
    6a80:	e3530000 	cmp	r3, #0
    6a84:	0a00000b 	beq	6ab8 <unlock_thread_scheduler+0x5c>
    6a88:	e59f3078 	ldr	r3, [pc, #120]	; 6b08 <unlock_thread_scheduler+0xac>
    6a8c:	e593c000 	ldr	ip, [r3]
    6a90:	e59f3074 	ldr	r3, [pc, #116]	; 6b0c <unlock_thread_scheduler+0xb0>
    6a94:	e5933000 	ldr	r3, [r3]
    6a98:	e3a00000 	mov	r0, #0
    6a9c:	e3a01000 	mov	r1, #0
    6aa0:	e1a02003 	mov	r2, r3
    6aa4:	e1a0e00f 	mov	lr, pc
    6aa8:	e12fff1c 	bx	ip
    6aac:	e59f2050 	ldr	r2, [pc, #80]	; 6b04 <unlock_thread_scheduler+0xa8>
    6ab0:	e3a03000 	mov	r3, #0
    6ab4:	e5c23000 	strb	r3, [r2]
    6ab8:	e59f3050 	ldr	r3, [pc, #80]	; 6b10 <unlock_thread_scheduler+0xb4>
    6abc:	e5d33000 	ldrb	r3, [r3]
    6ac0:	e3530000 	cmp	r3, #0
    6ac4:	0a00000b 	beq	6af8 <unlock_thread_scheduler+0x9c>
    6ac8:	e59f3044 	ldr	r3, [pc, #68]	; 6b14 <unlock_thread_scheduler+0xb8>
    6acc:	e5933000 	ldr	r3, [r3]
    6ad0:	e3530000 	cmp	r3, #0
    6ad4:	0a000007 	beq	6af8 <unlock_thread_scheduler+0x9c>
    6ad8:	e59f3034 	ldr	r3, [pc, #52]	; 6b14 <unlock_thread_scheduler+0xb8>
    6adc:	e5933000 	ldr	r3, [r3]
    6ae0:	e3a00000 	mov	r0, #0
    6ae4:	e1a0e00f 	mov	lr, pc
    6ae8:	e12fff13 	bx	r3
    6aec:	e59f201c 	ldr	r2, [pc, #28]	; 6b10 <unlock_thread_scheduler+0xb4>
    6af0:	e3a03000 	mov	r3, #0
    6af4:	e5c23000 	strb	r3, [r2]
    6af8:	e24bd00c 	sub	sp, fp, #12
    6afc:	e89d6800 	ldm	sp, {fp, sp, lr}
    6b00:	e12fff1e 	bx	lr
    6b04:	81002d90 	.word	0x81002d90
    6b08:	810002c0 	.word	0x810002c0
    6b0c:	81005570 	.word	0x81005570
    6b10:	81002d91 	.word	0x81002d91
    6b14:	81004564 	.word	0x81004564

00006b18 <__handle_exception>:
    6b18:	e1a0c00d 	mov	ip, sp
    6b1c:	e92dd800 	push	{fp, ip, lr, pc}
    6b20:	e24cb004 	sub	fp, ip, #4
    6b24:	e24dd008 	sub	sp, sp, #8
    6b28:	e3a03000 	mov	r3, #0
    6b2c:	e50b3010 	str	r3, [fp, #-16]
    6b30:	e59f30ec 	ldr	r3, [pc, #236]	; 6c24 <__handle_exception+0x10c>
    6b34:	e5933000 	ldr	r3, [r3]
    6b38:	e3530000 	cmp	r3, #0
    6b3c:	0a000003 	beq	6b50 <__handle_exception+0x38>
    6b40:	e59f30dc 	ldr	r3, [pc, #220]	; 6c24 <__handle_exception+0x10c>
    6b44:	e5933000 	ldr	r3, [r3]
    6b48:	e1a0e00f 	mov	lr, pc
    6b4c:	e12fff13 	bx	r3
    6b50:	e59f30d0 	ldr	r3, [pc, #208]	; 6c28 <__handle_exception+0x110>
    6b54:	e5933000 	ldr	r3, [r3]
    6b58:	e3530000 	cmp	r3, #0
    6b5c:	0a000004 	beq	6b74 <__handle_exception+0x5c>
    6b60:	e59f30c0 	ldr	r3, [pc, #192]	; 6c28 <__handle_exception+0x110>
    6b64:	e3a02000 	mov	r2, #0
    6b68:	e5832000 	str	r2, [r3]
    6b6c:	e3a03002 	mov	r3, #2
    6b70:	e50b3010 	str	r3, [fp, #-16]
    6b74:	e51b3010 	ldr	r3, [fp, #-16]
    6b78:	e3530000 	cmp	r3, #0
    6b7c:	1a000005 	bne	6b98 <__handle_exception+0x80>
    6b80:	eb002cfa 	bl	11f70 <__get_trap_number>
    6b84:	e1a03000 	mov	r3, r0
    6b88:	e1a00003 	mov	r0, r3
    6b8c:	eb002cdb 	bl	11f00 <__computeSignal>
    6b90:	e1a03000 	mov	r3, r0
    6b94:	e50b3010 	str	r3, [fp, #-16]
    6b98:	eb00322b 	bl	1344c <__is_breakpoint_function>
    6b9c:	e1a03000 	mov	r3, r0
    6ba0:	e3530000 	cmp	r3, #0
    6ba4:	0a000000 	beq	6bac <__handle_exception+0x94>
    6ba8:	eb003236 	bl	13488 <__skipinst>
    6bac:	eb003220 	bl	13434 <__clear_breakpoints>
    6bb0:	ebffffa9 	bl	6a5c <unlock_thread_scheduler>
    6bb4:	eb0031f2 	bl	13384 <__clear_single_step>
    6bb8:	e3a00003 	mov	r0, #3
    6bbc:	eb000cd0 	bl	9f04 <__data_cache>
    6bc0:	e3a00003 	mov	r0, #3
    6bc4:	eb000cb5 	bl	9ea0 <__instruction_cache>
    6bc8:	e51b3010 	ldr	r3, [fp, #-16]
    6bcc:	e3530000 	cmp	r3, #0
    6bd0:	0a000007 	beq	6bf4 <__handle_exception+0xdc>
    6bd4:	e59f3050 	ldr	r3, [pc, #80]	; 6c2c <__handle_exception+0x114>
    6bd8:	e5933000 	ldr	r3, [r3]
    6bdc:	e51b0010 	ldr	r0, [fp, #-16]
    6be0:	e1a0e00f 	mov	lr, pc
    6be4:	e12fff13 	bx	r3
    6be8:	e1a03000 	mov	r3, r0
    6bec:	e3530000 	cmp	r3, #0
    6bf0:	1afffff7 	bne	6bd4 <__handle_exception+0xbc>
    6bf4:	eb003208 	bl	1341c <__install_breakpoints>
    6bf8:	e59f3030 	ldr	r3, [pc, #48]	; 6c30 <__handle_exception+0x118>
    6bfc:	e5933000 	ldr	r3, [r3]
    6c00:	e3530000 	cmp	r3, #0
    6c04:	0a000003 	beq	6c18 <__handle_exception+0x100>
    6c08:	e59f3020 	ldr	r3, [pc, #32]	; 6c30 <__handle_exception+0x118>
    6c0c:	e5933000 	ldr	r3, [r3]
    6c10:	e1a0e00f 	mov	lr, pc
    6c14:	e12fff13 	bx	r3
    6c18:	e24bd00c 	sub	sp, fp, #12
    6c1c:	e89d6800 	ldm	sp, {fp, sp, lr}
    6c20:	e12fff1e 	bx	lr
    6c24:	81002d88 	.word	0x81002d88
    6c28:	810056c8 	.word	0x810056c8
    6c2c:	810002b4 	.word	0x810002b4
    6c30:	81002d84 	.word	0x81002d84

00006c34 <stub_format_registers>:
    6c34:	e1a0c00d 	mov	ip, sp
    6c38:	e92dd800 	push	{fp, ip, lr, pc}
    6c3c:	e24cb004 	sub	fp, ip, #4
    6c40:	e24dd068 	sub	sp, sp, #104	; 0x68
    6c44:	e50b0060 	str	r0, [fp, #-96]	; 0xffffffa0
    6c48:	e50b1064 	str	r1, [fp, #-100]	; 0xffffff9c
    6c4c:	e3a03000 	mov	r3, #0
    6c50:	e50b3028 	str	r3, [fp, #-40]	; 0xffffffd8
    6c54:	e3a0301a 	mov	r3, #26
    6c58:	e50b3024 	str	r3, [fp, #-36]	; 0xffffffdc
    6c5c:	e51b3060 	ldr	r3, [fp, #-96]	; 0xffffffa0
    6c60:	e5d33000 	ldrb	r3, [r3]
    6c64:	e3530070 	cmp	r3, #112	; 0x70
    6c68:	1a000015 	bne	6cc4 <stub_format_registers+0x90>
    6c6c:	e51b3060 	ldr	r3, [fp, #-96]	; 0xffffffa0
    6c70:	e2833001 	add	r3, r3, #1
    6c74:	e50b3034 	str	r3, [fp, #-52]	; 0xffffffcc
    6c78:	e24b3034 	sub	r3, fp, #52	; 0x34
    6c7c:	e24b2030 	sub	r2, fp, #48	; 0x30
    6c80:	e1a00003 	mov	r0, r3
    6c84:	e1a01002 	mov	r1, r2
    6c88:	ebfffe7d 	bl	6684 <__hexToInt>
    6c8c:	e1a03000 	mov	r3, r0
    6c90:	e3530000 	cmp	r3, #0
    6c94:	0a000005 	beq	6cb0 <stub_format_registers+0x7c>
    6c98:	e51b3030 	ldr	r3, [fp, #-48]	; 0xffffffd0
    6c9c:	e50b3028 	str	r3, [fp, #-40]	; 0xffffffd8
    6ca0:	e51b3030 	ldr	r3, [fp, #-48]	; 0xffffffd0
    6ca4:	e2833001 	add	r3, r3, #1
    6ca8:	e50b3024 	str	r3, [fp, #-36]	; 0xffffffdc
    6cac:	ea000004 	b	6cc4 <stub_format_registers+0x90>
    6cb0:	e51b0064 	ldr	r0, [fp, #-100]	; 0xffffff9c
    6cb4:	e59f126c 	ldr	r1, [pc, #620]	; 6f28 <stub_format_registers+0x2f4>
    6cb8:	e3a02008 	mov	r2, #8
    6cbc:	eb00192a 	bl	d16c <_memcpy>
    6cc0:	ea000095 	b	6f1c <stub_format_registers+0x2e8>
    6cc4:	e51b3028 	ldr	r3, [fp, #-40]	; 0xffffffd8
    6cc8:	e50b302c 	str	r3, [fp, #-44]	; 0xffffffd4
    6ccc:	ea00008e 	b	6f0c <stub_format_registers+0x2d8>
    6cd0:	e3a03001 	mov	r3, #1
    6cd4:	e50b301c 	str	r3, [fp, #-28]	; 0xffffffe4
    6cd8:	e51b302c 	ldr	r3, [fp, #-44]	; 0xffffffd4
    6cdc:	e353000f 	cmp	r3, #15
    6ce0:	da00000b 	ble	6d14 <stub_format_registers+0xe0>
    6ce4:	e51b302c 	ldr	r3, [fp, #-44]	; 0xffffffd4
    6ce8:	e3530017 	cmp	r3, #23
    6cec:	ca000008 	bgt	6d14 <stub_format_registers+0xe0>
    6cf0:	e51b302c 	ldr	r3, [fp, #-44]	; 0xffffffd4
    6cf4:	e20330ff 	and	r3, r3, #255	; 0xff
    6cf8:	e24b2058 	sub	r2, fp, #88	; 0x58
    6cfc:	e1a00003 	mov	r0, r3
    6d00:	e1a01002 	mov	r1, r2
    6d04:	eb002d26 	bl	121a4 <get_register_as_bytes>
    6d08:	e24b3058 	sub	r3, fp, #88	; 0x58
    6d0c:	e50b3020 	str	r3, [fp, #-32]	; 0xffffffe0
    6d10:	ea000046 	b	6e30 <stub_format_registers+0x1fc>
    6d14:	e59f3210 	ldr	r3, [pc, #528]	; 6f2c <stub_format_registers+0x2f8>
    6d18:	e5933000 	ldr	r3, [r3]
    6d1c:	e3530000 	cmp	r3, #0
    6d20:	0a00000b 	beq	6d54 <stub_format_registers+0x120>
    6d24:	e59f3200 	ldr	r3, [pc, #512]	; 6f2c <stub_format_registers+0x2f8>
    6d28:	e593c000 	ldr	ip, [r3]
    6d2c:	e51b302c 	ldr	r3, [fp, #-44]	; 0xffffffd4
    6d30:	e20330ff 	and	r3, r3, #255	; 0xff
    6d34:	e24b2038 	sub	r2, fp, #56	; 0x38
    6d38:	e1a00003 	mov	r0, r3
    6d3c:	e1a01002 	mov	r1, r2
    6d40:	e1a0e00f 	mov	lr, pc
    6d44:	e12fff1c 	bx	ip
    6d48:	e1a03000 	mov	r3, r0
    6d4c:	e50b301c 	str	r3, [fp, #-28]	; 0xffffffe4
    6d50:	ea000005 	b	6d6c <stub_format_registers+0x138>
    6d54:	e51b302c 	ldr	r3, [fp, #-44]	; 0xffffffd4
    6d58:	e20330ff 	and	r3, r3, #255	; 0xff
    6d5c:	e1a00003 	mov	r0, r3
    6d60:	eb002cc7 	bl	12084 <get_register>
    6d64:	e1a03000 	mov	r3, r0
    6d68:	e50b3038 	str	r3, [fp, #-56]	; 0xffffffc8
    6d6c:	e24b3038 	sub	r3, fp, #56	; 0x38
    6d70:	e50b3020 	str	r3, [fp, #-32]	; 0xffffffe0
    6d74:	e51b302c 	ldr	r3, [fp, #-44]	; 0xffffffd4
    6d78:	e353000f 	cmp	r3, #15
    6d7c:	da00002b 	ble	6e30 <stub_format_registers+0x1fc>
    6d80:	e51b302c 	ldr	r3, [fp, #-44]	; 0xffffffd4
    6d84:	e3530017 	cmp	r3, #23
    6d88:	ca000028 	bgt	6e30 <stub_format_registers+0x1fc>
    6d8c:	e51b302c 	ldr	r3, [fp, #-44]	; 0xffffffd4
    6d90:	e353000f 	cmp	r3, #15
    6d94:	da000002 	ble	6da4 <stub_format_registers+0x170>
    6d98:	e51b302c 	ldr	r3, [fp, #-44]	; 0xffffffd4
    6d9c:	e3530017 	cmp	r3, #23
    6da0:	da000002 	ble	6db0 <stub_format_registers+0x17c>
    6da4:	e3a01000 	mov	r1, #0
    6da8:	e50b1074 	str	r1, [fp, #-116]	; 0xffffff8c
    6dac:	ea000001 	b	6db8 <stub_format_registers+0x184>
    6db0:	e3a02008 	mov	r2, #8
    6db4:	e50b2074 	str	r2, [fp, #-116]	; 0xffffff8c
    6db8:	e51b3074 	ldr	r3, [fp, #-116]	; 0xffffff8c
    6dbc:	e50b3018 	str	r3, [fp, #-24]	; 0xffffffe8
    6dc0:	e3a03000 	mov	r3, #0
    6dc4:	e54b300d 	strb	r3, [fp, #-13]
    6dc8:	e3a03000 	mov	r3, #0
    6dcc:	e50b3014 	str	r3, [fp, #-20]	; 0xffffffec
    6dd0:	ea00000a 	b	6e00 <stub_format_registers+0x1cc>
    6dd4:	e51b3014 	ldr	r3, [fp, #-20]	; 0xffffffec
    6dd8:	e2833004 	add	r3, r3, #4
    6ddc:	e3e0204b 	mvn	r2, #75	; 0x4b
    6de0:	e24b100c 	sub	r1, fp, #12
    6de4:	e0813003 	add	r3, r1, r3
    6de8:	e0832002 	add	r2, r3, r2
    6dec:	e55b300d 	ldrb	r3, [fp, #-13]
    6df0:	e5c23000 	strb	r3, [r2]
    6df4:	e51b3014 	ldr	r3, [fp, #-20]	; 0xffffffec
    6df8:	e2833001 	add	r3, r3, #1
    6dfc:	e50b3014 	str	r3, [fp, #-20]	; 0xffffffec
    6e00:	e51b2014 	ldr	r2, [fp, #-20]	; 0xffffffec
    6e04:	e51b3018 	ldr	r3, [fp, #-24]	; 0xffffffe8
    6e08:	e1520003 	cmp	r2, r3
    6e0c:	bafffff0 	blt	6dd4 <stub_format_registers+0x1a0>
    6e10:	e24b3058 	sub	r3, fp, #88	; 0x58
    6e14:	e24b2038 	sub	r2, fp, #56	; 0x38
    6e18:	e1a00003 	mov	r0, r3
    6e1c:	e1a01002 	mov	r1, r2
    6e20:	e3a02004 	mov	r2, #4
    6e24:	eb000041 	bl	6f30 <_memcpy>
    6e28:	e24b3058 	sub	r3, fp, #88	; 0x58
    6e2c:	e50b3020 	str	r3, [fp, #-32]	; 0xffffffe0
    6e30:	e51b301c 	ldr	r3, [fp, #-28]	; 0xffffffe4
    6e34:	e3530000 	cmp	r3, #0
    6e38:	0a000012 	beq	6e88 <stub_format_registers+0x254>
    6e3c:	e51b302c 	ldr	r3, [fp, #-44]	; 0xffffffd4
    6e40:	e353000f 	cmp	r3, #15
    6e44:	da000002 	ble	6e54 <stub_format_registers+0x220>
    6e48:	e51b302c 	ldr	r3, [fp, #-44]	; 0xffffffd4
    6e4c:	e3530017 	cmp	r3, #23
    6e50:	da000002 	ble	6e60 <stub_format_registers+0x22c>
    6e54:	e3a02004 	mov	r2, #4
    6e58:	e50b2070 	str	r2, [fp, #-112]	; 0xffffff90
    6e5c:	ea000001 	b	6e68 <stub_format_registers+0x234>
    6e60:	e3a0300c 	mov	r3, #12
    6e64:	e50b3070 	str	r3, [fp, #-112]	; 0xffffff90
    6e68:	e51b0020 	ldr	r0, [fp, #-32]	; 0xffffffe0
    6e6c:	e51b1064 	ldr	r1, [fp, #-100]	; 0xffffff9c
    6e70:	e51b2070 	ldr	r2, [fp, #-112]	; 0xffffff90
    6e74:	e3a03000 	mov	r3, #0
    6e78:	ebfffca7 	bl	611c <__mem2hex>
    6e7c:	e1a03000 	mov	r3, r0
    6e80:	e50b3064 	str	r3, [fp, #-100]	; 0xffffff9c
    6e84:	ea00001d 	b	6f00 <stub_format_registers+0x2cc>
    6e88:	e51b302c 	ldr	r3, [fp, #-44]	; 0xffffffd4
    6e8c:	e353000f 	cmp	r3, #15
    6e90:	da000002 	ble	6ea0 <stub_format_registers+0x26c>
    6e94:	e51b302c 	ldr	r3, [fp, #-44]	; 0xffffffd4
    6e98:	e3530017 	cmp	r3, #23
    6e9c:	da000002 	ble	6eac <stub_format_registers+0x278>
    6ea0:	e3a01008 	mov	r1, #8
    6ea4:	e50b106c 	str	r1, [fp, #-108]	; 0xffffff94
    6ea8:	ea000001 	b	6eb4 <stub_format_registers+0x280>
    6eac:	e3a02018 	mov	r2, #24
    6eb0:	e50b206c 	str	r2, [fp, #-108]	; 0xffffff94
    6eb4:	e51b0064 	ldr	r0, [fp, #-100]	; 0xffffff9c
    6eb8:	e3a01078 	mov	r1, #120	; 0x78
    6ebc:	e51b206c 	ldr	r2, [fp, #-108]	; 0xffffff94
    6ec0:	eb00003f 	bl	6fc4 <_memset>
    6ec4:	e51b302c 	ldr	r3, [fp, #-44]	; 0xffffffd4
    6ec8:	e353000f 	cmp	r3, #15
    6ecc:	da000002 	ble	6edc <stub_format_registers+0x2a8>
    6ed0:	e51b302c 	ldr	r3, [fp, #-44]	; 0xffffffd4
    6ed4:	e3530017 	cmp	r3, #23
    6ed8:	da000002 	ble	6ee8 <stub_format_registers+0x2b4>
    6edc:	e3a03008 	mov	r3, #8
    6ee0:	e50b3068 	str	r3, [fp, #-104]	; 0xffffff98
    6ee4:	ea000001 	b	6ef0 <stub_format_registers+0x2bc>
    6ee8:	e3a01018 	mov	r1, #24
    6eec:	e50b1068 	str	r1, [fp, #-104]	; 0xffffff98
    6ef0:	e51b3064 	ldr	r3, [fp, #-100]	; 0xffffff9c
    6ef4:	e51b2068 	ldr	r2, [fp, #-104]	; 0xffffff98
    6ef8:	e0833002 	add	r3, r3, r2
    6efc:	e50b3064 	str	r3, [fp, #-100]	; 0xffffff9c
    6f00:	e51b302c 	ldr	r3, [fp, #-44]	; 0xffffffd4
    6f04:	e2833001 	add	r3, r3, #1
    6f08:	e50b302c 	str	r3, [fp, #-44]	; 0xffffffd4
    6f0c:	e51b202c 	ldr	r2, [fp, #-44]	; 0xffffffd4
    6f10:	e51b3024 	ldr	r3, [fp, #-36]	; 0xffffffdc
    6f14:	e1520003 	cmp	r2, r3
    6f18:	baffff6c 	blt	6cd0 <stub_format_registers+0x9c>
    6f1c:	e24bd00c 	sub	sp, fp, #12
    6f20:	e89d6800 	ldm	sp, {fp, sp, lr}
    6f24:	e12fff1e 	bx	lr
    6f28:	00015ad4 	.word	0x00015ad4
    6f2c:	81004d68 	.word	0x81004d68

00006f30 <_memcpy>:
    6f30:	e1a0c00d 	mov	ip, sp
    6f34:	e92dd800 	push	{fp, ip, lr, pc}
    6f38:	e24cb004 	sub	fp, ip, #4
    6f3c:	e24dd018 	sub	sp, sp, #24
    6f40:	e50b0018 	str	r0, [fp, #-24]	; 0xffffffe8
    6f44:	e50b101c 	str	r1, [fp, #-28]	; 0xffffffe4
    6f48:	e50b2020 	str	r2, [fp, #-32]	; 0xffffffe0
    6f4c:	e51b3018 	ldr	r3, [fp, #-24]	; 0xffffffe8
    6f50:	e50b3014 	str	r3, [fp, #-20]	; 0xffffffec
    6f54:	e51b301c 	ldr	r3, [fp, #-28]	; 0xffffffe4
    6f58:	e50b3010 	str	r3, [fp, #-16]
    6f5c:	ea000009 	b	6f88 <_memcpy+0x58>
    6f60:	e51b3010 	ldr	r3, [fp, #-16]
    6f64:	e5d33000 	ldrb	r3, [r3]
    6f68:	e51b2014 	ldr	r2, [fp, #-20]	; 0xffffffec
    6f6c:	e5c23000 	strb	r3, [r2]
    6f70:	e51b3014 	ldr	r3, [fp, #-20]	; 0xffffffec
    6f74:	e2833001 	add	r3, r3, #1
    6f78:	e50b3014 	str	r3, [fp, #-20]	; 0xffffffec
    6f7c:	e51b3010 	ldr	r3, [fp, #-16]
    6f80:	e2833001 	add	r3, r3, #1
    6f84:	e50b3010 	str	r3, [fp, #-16]
    6f88:	e51b3020 	ldr	r3, [fp, #-32]	; 0xffffffe0
    6f8c:	e3530000 	cmp	r3, #0
    6f90:	03a03000 	moveq	r3, #0
    6f94:	13a03001 	movne	r3, #1
    6f98:	e20320ff 	and	r2, r3, #255	; 0xff
    6f9c:	e51b3020 	ldr	r3, [fp, #-32]	; 0xffffffe0
    6fa0:	e2433001 	sub	r3, r3, #1
    6fa4:	e50b3020 	str	r3, [fp, #-32]	; 0xffffffe0
    6fa8:	e3520000 	cmp	r2, #0
    6fac:	1affffeb 	bne	6f60 <_memcpy+0x30>
    6fb0:	e51b3018 	ldr	r3, [fp, #-24]	; 0xffffffe8
    6fb4:	e1a00003 	mov	r0, r3
    6fb8:	e24bd00c 	sub	sp, fp, #12
    6fbc:	e89d6800 	ldm	sp, {fp, sp, lr}
    6fc0:	e12fff1e 	bx	lr

00006fc4 <_memset>:
    6fc4:	e1a0c00d 	mov	ip, sp
    6fc8:	e92dd800 	push	{fp, ip, lr, pc}
    6fcc:	e24cb004 	sub	fp, ip, #4
    6fd0:	e24dd018 	sub	sp, sp, #24
    6fd4:	e50b0018 	str	r0, [fp, #-24]	; 0xffffffe8
    6fd8:	e50b101c 	str	r1, [fp, #-28]	; 0xffffffe4
    6fdc:	e50b2020 	str	r2, [fp, #-32]	; 0xffffffe0
    6fe0:	e51b3018 	ldr	r3, [fp, #-24]	; 0xffffffe8
    6fe4:	e50b3014 	str	r3, [fp, #-20]	; 0xffffffec
    6fe8:	e51b301c 	ldr	r3, [fp, #-28]	; 0xffffffe4
    6fec:	e54b300d 	strb	r3, [fp, #-13]
    6ff0:	ea000005 	b	700c <_memset+0x48>
    6ff4:	e51b2014 	ldr	r2, [fp, #-20]	; 0xffffffec
    6ff8:	e55b300d 	ldrb	r3, [fp, #-13]
    6ffc:	e5c23000 	strb	r3, [r2]
    7000:	e51b3014 	ldr	r3, [fp, #-20]	; 0xffffffec
    7004:	e2833001 	add	r3, r3, #1
    7008:	e50b3014 	str	r3, [fp, #-20]	; 0xffffffec
    700c:	e51b3020 	ldr	r3, [fp, #-32]	; 0xffffffe0
    7010:	e3530000 	cmp	r3, #0
    7014:	03a03000 	moveq	r3, #0
    7018:	13a03001 	movne	r3, #1
    701c:	e20320ff 	and	r2, r3, #255	; 0xff
    7020:	e51b3020 	ldr	r3, [fp, #-32]	; 0xffffffe0
    7024:	e2433001 	sub	r3, r3, #1
    7028:	e50b3020 	str	r3, [fp, #-32]	; 0xffffffe0
    702c:	e3520000 	cmp	r2, #0
    7030:	1affffef 	bne	6ff4 <_memset+0x30>
    7034:	e51b3018 	ldr	r3, [fp, #-24]	; 0xffffffe8
    7038:	e1a00003 	mov	r0, r3
    703c:	e24bd00c 	sub	sp, fp, #12
    7040:	e89d6800 	ldm	sp, {fp, sp, lr}
    7044:	e12fff1e 	bx	lr

00007048 <stub_update_registers>:
    7048:	e1a0c00d 	mov	ip, sp
    704c:	e92dd800 	push	{fp, ip, lr, pc}
    7050:	e24cb004 	sub	fp, ip, #4
    7054:	e24dd060 	sub	sp, sp, #96	; 0x60
    7058:	e50b0050 	str	r0, [fp, #-80]	; 0xffffffb0
    705c:	e50b1054 	str	r1, [fp, #-84]	; 0xffffffac
    7060:	e51b3050 	ldr	r3, [fp, #-80]	; 0xffffffb0
    7064:	e2833001 	add	r3, r3, #1
    7068:	e50b3020 	str	r3, [fp, #-32]	; 0xffffffe0
    706c:	e3a03000 	mov	r3, #0
    7070:	e50b3018 	str	r3, [fp, #-24]	; 0xffffffe8
    7074:	e3a0301a 	mov	r3, #26
    7078:	e50b3014 	str	r3, [fp, #-20]	; 0xffffffec
    707c:	e51b3050 	ldr	r3, [fp, #-80]	; 0xffffffb0
    7080:	e5d33000 	ldrb	r3, [r3]
    7084:	e3530050 	cmp	r3, #80	; 0x50
    7088:	1a00001e 	bne	7108 <stub_update_registers+0xc0>
    708c:	e24b3020 	sub	r3, fp, #32
    7090:	e24b2024 	sub	r2, fp, #36	; 0x24
    7094:	e1a00003 	mov	r0, r3
    7098:	e1a01002 	mov	r1, r2
    709c:	ebfffd78 	bl	6684 <__hexToInt>
    70a0:	e1a03000 	mov	r3, r0
    70a4:	e3530000 	cmp	r3, #0
    70a8:	0a000011 	beq	70f4 <stub_update_registers+0xac>
    70ac:	e51b1020 	ldr	r1, [fp, #-32]	; 0xffffffe0
    70b0:	e5d13000 	ldrb	r3, [r1]
    70b4:	e353003d 	cmp	r3, #61	; 0x3d
    70b8:	13a03000 	movne	r3, #0
    70bc:	03a03001 	moveq	r3, #1
    70c0:	e20320ff 	and	r2, r3, #255	; 0xff
    70c4:	e2813001 	add	r3, r1, #1
    70c8:	e50b3020 	str	r3, [fp, #-32]	; 0xffffffe0
    70cc:	e2223001 	eor	r3, r2, #1
    70d0:	e20330ff 	and	r3, r3, #255	; 0xff
    70d4:	e3530000 	cmp	r3, #0
    70d8:	1a000005 	bne	70f4 <stub_update_registers+0xac>
    70dc:	e51b3024 	ldr	r3, [fp, #-36]	; 0xffffffdc
    70e0:	e50b3018 	str	r3, [fp, #-24]	; 0xffffffe8
    70e4:	e51b3024 	ldr	r3, [fp, #-36]	; 0xffffffdc
    70e8:	e2833001 	add	r3, r3, #1
    70ec:	e50b3014 	str	r3, [fp, #-20]	; 0xffffffec
    70f0:	ea000004 	b	7108 <stub_update_registers+0xc0>
    70f4:	e51b0054 	ldr	r0, [fp, #-84]	; 0xffffffac
    70f8:	e59f1180 	ldr	r1, [pc, #384]	; 7280 <stub_update_registers+0x238>
    70fc:	e3a02004 	mov	r2, #4
    7100:	eb001819 	bl	d16c <_memcpy>
    7104:	ea00005a 	b	7274 <stub_update_registers+0x22c>
    7108:	e51b3018 	ldr	r3, [fp, #-24]	; 0xffffffe8
    710c:	e50b301c 	str	r3, [fp, #-28]	; 0xffffffe4
    7110:	ea00004f 	b	7254 <stub_update_registers+0x20c>
    7114:	e3a03000 	mov	r3, #0
    7118:	e50b3028 	str	r3, [fp, #-40]	; 0xffffffd8
    711c:	e51b301c 	ldr	r3, [fp, #-28]	; 0xffffffe4
    7120:	e353000f 	cmp	r3, #15
    7124:	da00001c 	ble	719c <stub_update_registers+0x154>
    7128:	e51b301c 	ldr	r3, [fp, #-28]	; 0xffffffe4
    712c:	e3530017 	cmp	r3, #23
    7130:	ca000019 	bgt	719c <stub_update_registers+0x154>
    7134:	e51b1020 	ldr	r1, [fp, #-32]	; 0xffffffe0
    7138:	e50b106c 	str	r1, [fp, #-108]	; 0xffffff94
    713c:	e51b301c 	ldr	r3, [fp, #-28]	; 0xffffffe4
    7140:	e353000f 	cmp	r3, #15
    7144:	da000002 	ble	7154 <stub_update_registers+0x10c>
    7148:	e51b301c 	ldr	r3, [fp, #-28]	; 0xffffffe4
    714c:	e3530017 	cmp	r3, #23
    7150:	da000002 	ble	7160 <stub_update_registers+0x118>
    7154:	e3a02004 	mov	r2, #4
    7158:	e50b2068 	str	r2, [fp, #-104]	; 0xffffff98
    715c:	ea000001 	b	7168 <stub_update_registers+0x120>
    7160:	e3a0300c 	mov	r3, #12
    7164:	e50b3068 	str	r3, [fp, #-104]	; 0xffffff98
    7168:	e24b3048 	sub	r3, fp, #72	; 0x48
    716c:	e51b006c 	ldr	r0, [fp, #-108]	; 0xffffff94
    7170:	e1a01003 	mov	r1, r3
    7174:	e51b2068 	ldr	r2, [fp, #-104]	; 0xffffff98
    7178:	e3a03000 	mov	r3, #0
    717c:	ebfffcda 	bl	64ec <__hex2mem>
    7180:	e51b301c 	ldr	r3, [fp, #-28]	; 0xffffffe4
    7184:	e20330ff 	and	r3, r3, #255	; 0xff
    7188:	e24b2048 	sub	r2, fp, #72	; 0x48
    718c:	e1a00003 	mov	r0, r3
    7190:	e1a01002 	mov	r1, r2
    7194:	eb002c30 	bl	1225c <put_register_as_bytes>
    7198:	ea000019 	b	7204 <stub_update_registers+0x1bc>
    719c:	e24b3028 	sub	r3, fp, #40	; 0x28
    71a0:	e50b3010 	str	r3, [fp, #-16]
    71a4:	e51b1020 	ldr	r1, [fp, #-32]	; 0xffffffe0
    71a8:	e50b1064 	str	r1, [fp, #-100]	; 0xffffff9c
    71ac:	e51b301c 	ldr	r3, [fp, #-28]	; 0xffffffe4
    71b0:	e353000f 	cmp	r3, #15
    71b4:	da000002 	ble	71c4 <stub_update_registers+0x17c>
    71b8:	e51b301c 	ldr	r3, [fp, #-28]	; 0xffffffe4
    71bc:	e3530017 	cmp	r3, #23
    71c0:	da000002 	ble	71d0 <stub_update_registers+0x188>
    71c4:	e3a02004 	mov	r2, #4
    71c8:	e50b2060 	str	r2, [fp, #-96]	; 0xffffffa0
    71cc:	ea000001 	b	71d8 <stub_update_registers+0x190>
    71d0:	e3a0300c 	mov	r3, #12
    71d4:	e50b3060 	str	r3, [fp, #-96]	; 0xffffffa0
    71d8:	e51b0064 	ldr	r0, [fp, #-100]	; 0xffffff9c
    71dc:	e51b1010 	ldr	r1, [fp, #-16]
    71e0:	e51b2060 	ldr	r2, [fp, #-96]	; 0xffffffa0
    71e4:	e3a03000 	mov	r3, #0
    71e8:	ebfffcbf 	bl	64ec <__hex2mem>
    71ec:	e51b301c 	ldr	r3, [fp, #-28]	; 0xffffffe4
    71f0:	e20330ff 	and	r3, r3, #255	; 0xff
    71f4:	e51b2028 	ldr	r2, [fp, #-40]	; 0xffffffd8
    71f8:	e1a00003 	mov	r0, r3
    71fc:	e1a01002 	mov	r1, r2
    7200:	eb002bc6 	bl	12120 <put_register>
    7204:	e51b1020 	ldr	r1, [fp, #-32]	; 0xffffffe0
    7208:	e50b105c 	str	r1, [fp, #-92]	; 0xffffffa4
    720c:	e51b301c 	ldr	r3, [fp, #-28]	; 0xffffffe4
    7210:	e353000f 	cmp	r3, #15
    7214:	da000002 	ble	7224 <stub_update_registers+0x1dc>
    7218:	e51b301c 	ldr	r3, [fp, #-28]	; 0xffffffe4
    721c:	e3530017 	cmp	r3, #23
    7220:	da000002 	ble	7230 <stub_update_registers+0x1e8>
    7224:	e3a02008 	mov	r2, #8
    7228:	e50b2058 	str	r2, [fp, #-88]	; 0xffffffa8
    722c:	ea000001 	b	7238 <stub_update_registers+0x1f0>
    7230:	e3a03018 	mov	r3, #24
    7234:	e50b3058 	str	r3, [fp, #-88]	; 0xffffffa8
    7238:	e51b105c 	ldr	r1, [fp, #-92]	; 0xffffffa4
    723c:	e51b2058 	ldr	r2, [fp, #-88]	; 0xffffffa8
    7240:	e0813002 	add	r3, r1, r2
    7244:	e50b3020 	str	r3, [fp, #-32]	; 0xffffffe0
    7248:	e51b301c 	ldr	r3, [fp, #-28]	; 0xffffffe4
    724c:	e2833001 	add	r3, r3, #1
    7250:	e50b301c 	str	r3, [fp, #-28]	; 0xffffffe4
    7254:	e51b201c 	ldr	r2, [fp, #-28]	; 0xffffffe4
    7258:	e51b3014 	ldr	r3, [fp, #-20]	; 0xffffffec
    725c:	e1520003 	cmp	r2, r3
    7260:	baffffab 	blt	7114 <stub_update_registers+0xcc>
    7264:	e51b0054 	ldr	r0, [fp, #-84]	; 0xffffffac
    7268:	e59f1014 	ldr	r1, [pc, #20]	; 7284 <stub_update_registers+0x23c>
    726c:	e3a02003 	mov	r2, #3
    7270:	eb0017bd 	bl	d16c <_memcpy>
    7274:	e24bd00c 	sub	sp, fp, #12
    7278:	e89d6800 	ldm	sp, {fp, sp, lr}
    727c:	e12fff1e 	bx	lr
    7280:	00015adc 	.word	0x00015adc
    7284:	00015ae0 	.word	0x00015ae0

00007288 <__process_packet>:
    7288:	e1a0c00d 	mov	ip, sp
    728c:	e92dd800 	push	{fp, ip, lr, pc}
    7290:	e24cb004 	sub	fp, ip, #4
    7294:	e24dd0d8 	sub	sp, sp, #216	; 0xd8
    7298:	e50b00e0 	str	r0, [fp, #-224]	; 0xffffff20
    729c:	e3a03000 	mov	r3, #0
    72a0:	e50b3024 	str	r3, [fp, #-36]	; 0xffffffdc
    72a4:	e59f2898 	ldr	r2, [pc, #2200]	; 7b44 <__process_packet+0x8bc>
    72a8:	e3a03000 	mov	r3, #0
    72ac:	e5c23000 	strb	r3, [r2]
    72b0:	e51b30e0 	ldr	r3, [fp, #-224]	; 0xffffff20
    72b4:	e5d33000 	ldrb	r3, [r3]
    72b8:	e243303f 	sub	r3, r3, #63	; 0x3f
    72bc:	e3530034 	cmp	r3, #52	; 0x34
    72c0:	979ff103 	ldrls	pc, [pc, r3, lsl #2]
    72c4:	ea000211 	b	7b10 <__process_packet+0x888>
    72c8:	0000739c 	.word	0x0000739c
    72cc:	00007b10 	.word	0x00007b10
    72d0:	0000744c 	.word	0x0000744c
    72d4:	000079f0 	.word	0x000079f0
    72d8:	000077e0 	.word	0x000077e0
    72dc:	00007980 	.word	0x00007980
    72e0:	00007b10 	.word	0x00007b10
    72e4:	00007b10 	.word	0x00007b10
    72e8:	00007460 	.word	0x00007460
    72ec:	000079b8 	.word	0x000079b8
    72f0:	00007b10 	.word	0x00007b10
    72f4:	00007b10 	.word	0x00007b10
    72f8:	00007b10 	.word	0x00007b10
    72fc:	00007b10 	.word	0x00007b10
    7300:	00007550 	.word	0x00007550
    7304:	00007b10 	.word	0x00007b10
    7308:	00007b10 	.word	0x00007b10
    730c:	00007460 	.word	0x00007460
    7310:	00007428 	.word	0x00007428
    7314:	00007b10 	.word	0x00007b10
    7318:	000077e0 	.word	0x000077e0
    731c:	000079d4 	.word	0x000079d4
    7320:	00007b10 	.word	0x00007b10
    7324:	00007b10 	.word	0x00007b10
    7328:	00007b10 	.word	0x00007b10
    732c:	00007548 	.word	0x00007548
    7330:	00007b10 	.word	0x00007b10
    7334:	00007b10 	.word	0x00007b10
    7338:	00007b10 	.word	0x00007b10
    733c:	00007b10 	.word	0x00007b10
    7340:	00007b10 	.word	0x00007b10
    7344:	00007b10 	.word	0x00007b10
    7348:	00007b10 	.word	0x00007b10
    734c:	00007b10 	.word	0x00007b10
    7350:	00007b10 	.word	0x00007b10
    7354:	00007ab8 	.word	0x00007ab8
    7358:	000077e0 	.word	0x000077e0
    735c:	00007404 	.word	0x00007404
    7360:	00007b10 	.word	0x00007b10
    7364:	00007b10 	.word	0x00007b10
    7368:	0000743c 	.word	0x0000743c
    736c:	00007b10 	.word	0x00007b10
    7370:	00007b10 	.word	0x00007b10
    7374:	00007b10 	.word	0x00007b10
    7378:	00007988 	.word	0x00007988
    737c:	00007b10 	.word	0x00007b10
    7380:	00007480 	.word	0x00007480
    7384:	00007b10 	.word	0x00007b10
    7388:	00007b10 	.word	0x00007b10
    738c:	0000743c 	.word	0x0000743c
    7390:	00007414 	.word	0x00007414
    7394:	000079a8 	.word	0x000079a8
    7398:	000077e0 	.word	0x000077e0
    739c:	eb002af3 	bl	11f70 <__get_trap_number>
    73a0:	e1a03000 	mov	r3, r0
    73a4:	e1a00003 	mov	r0, r3
    73a8:	eb002ad4 	bl	11f00 <__computeSignal>
    73ac:	e1a03000 	mov	r3, r0
    73b0:	e50b3020 	str	r3, [fp, #-32]	; 0xffffffe0
    73b4:	e59f2788 	ldr	r2, [pc, #1928]	; 7b44 <__process_packet+0x8bc>
    73b8:	e3a03053 	mov	r3, #83	; 0x53
    73bc:	e5c23000 	strb	r3, [r2]
    73c0:	e51b3020 	ldr	r3, [fp, #-32]	; 0xffffffe0
    73c4:	e1a03243 	asr	r3, r3, #4
    73c8:	e203200f 	and	r2, r3, #15
    73cc:	e59f3774 	ldr	r3, [pc, #1908]	; 7b48 <__process_packet+0x8c0>
    73d0:	e7d33002 	ldrb	r3, [r3, r2]
    73d4:	e59f2768 	ldr	r2, [pc, #1896]	; 7b44 <__process_packet+0x8bc>
    73d8:	e5c23001 	strb	r3, [r2, #1]
    73dc:	e51b3020 	ldr	r3, [fp, #-32]	; 0xffffffe0
    73e0:	e203200f 	and	r2, r3, #15
    73e4:	e59f375c 	ldr	r3, [pc, #1884]	; 7b48 <__process_packet+0x8c0>
    73e8:	e7d33002 	ldrb	r3, [r3, r2]
    73ec:	e59f2750 	ldr	r2, [pc, #1872]	; 7b44 <__process_packet+0x8bc>
    73f0:	e5c23002 	strb	r3, [r2, #2]
    73f4:	e59f2748 	ldr	r2, [pc, #1864]	; 7b44 <__process_packet+0x8bc>
    73f8:	e3a03000 	mov	r3, #0
    73fc:	e5c23003 	strb	r3, [r2, #3]
    7400:	ea0001c6 	b	7b20 <__process_packet+0x898>
    7404:	e59f0738 	ldr	r0, [pc, #1848]	; 7b44 <__process_packet+0x8bc>
    7408:	e59f173c 	ldr	r1, [pc, #1852]	; 7b4c <__process_packet+0x8c4>
    740c:	eb0028df 	bl	11790 <__strcpy>
    7410:	ea0001c2 	b	7b20 <__process_packet+0x898>
    7414:	e51b30e0 	ldr	r3, [fp, #-224]	; 0xffffff20
    7418:	e2833001 	add	r3, r3, #1
    741c:	e1a00003 	mov	r0, r3
    7420:	eb0002a6 	bl	7ec0 <process_query>
    7424:	ea0001bd 	b	7b20 <__process_packet+0x898>
    7428:	e51b30e0 	ldr	r3, [fp, #-224]	; 0xffffff20
    742c:	e2833001 	add	r3, r3, #1
    7430:	e1a00003 	mov	r0, r3
    7434:	eb000326 	bl	80d4 <process_set>
    7438:	ea0001b8 	b	7b20 <__process_packet+0x898>
    743c:	e51b00e0 	ldr	r0, [fp, #-224]	; 0xffffff20
    7440:	e59f16fc 	ldr	r1, [pc, #1788]	; 7b44 <__process_packet+0x8bc>
    7444:	ebfffdfa 	bl	6c34 <stub_format_registers>
    7448:	ea0001b4 	b	7b20 <__process_packet+0x898>
    744c:	e59f06f0 	ldr	r0, [pc, #1776]	; 7b44 <__process_packet+0x8bc>
    7450:	e59f16f8 	ldr	r1, [pc, #1784]	; 7b50 <__process_packet+0x8c8>
    7454:	e3a02004 	mov	r2, #4
    7458:	eb001743 	bl	d16c <_memcpy>
    745c:	ea0001af 	b	7b20 <__process_packet+0x898>
    7460:	e51b30e0 	ldr	r3, [fp, #-224]	; 0xffffff20
    7464:	e50b301c 	str	r3, [fp, #-28]	; 0xffffffe4
    7468:	e59f36d4 	ldr	r3, [pc, #1748]	; 7b44 <__process_packet+0x8bc>
    746c:	e50b3018 	str	r3, [fp, #-24]	; 0xffffffe8
    7470:	e51b001c 	ldr	r0, [fp, #-28]	; 0xffffffe4
    7474:	e51b1018 	ldr	r1, [fp, #-24]	; 0xffffffe8
    7478:	ebfffef2 	bl	7048 <stub_update_registers>
    747c:	ea0001a7 	b	7b20 <__process_packet+0x898>
    7480:	e51b30e0 	ldr	r3, [fp, #-224]	; 0xffffff20
    7484:	e2833001 	add	r3, r3, #1
    7488:	e50b302c 	str	r3, [fp, #-44]	; 0xffffffd4
    748c:	e24b302c 	sub	r3, fp, #44	; 0x2c
    7490:	e24b2030 	sub	r2, fp, #48	; 0x30
    7494:	e1a00003 	mov	r0, r3
    7498:	e1a01002 	mov	r1, r2
    749c:	ebfffca7 	bl	6740 <__hexToAddr>
    74a0:	e1a03000 	mov	r3, r0
    74a4:	e3530000 	cmp	r3, #0
    74a8:	0a000021 	beq	7534 <__process_packet+0x2ac>
    74ac:	e51b102c 	ldr	r1, [fp, #-44]	; 0xffffffd4
    74b0:	e5d13000 	ldrb	r3, [r1]
    74b4:	e353002c 	cmp	r3, #44	; 0x2c
    74b8:	13a03000 	movne	r3, #0
    74bc:	03a03001 	moveq	r3, #1
    74c0:	e20320ff 	and	r2, r3, #255	; 0xff
    74c4:	e2813001 	add	r3, r1, #1
    74c8:	e50b302c 	str	r3, [fp, #-44]	; 0xffffffd4
    74cc:	e2223001 	eor	r3, r2, #1
    74d0:	e20330ff 	and	r3, r3, #255	; 0xff
    74d4:	e3530000 	cmp	r3, #0
    74d8:	1a000015 	bne	7534 <__process_packet+0x2ac>
    74dc:	e24b302c 	sub	r3, fp, #44	; 0x2c
    74e0:	e24b2028 	sub	r2, fp, #40	; 0x28
    74e4:	e1a00003 	mov	r0, r3
    74e8:	e1a01002 	mov	r1, r2
    74ec:	ebfffc64 	bl	6684 <__hexToInt>
    74f0:	e1a03000 	mov	r3, r0
    74f4:	e3530000 	cmp	r3, #0
    74f8:	0a00000d 	beq	7534 <__process_packet+0x2ac>
    74fc:	e51b2030 	ldr	r2, [fp, #-48]	; 0xffffffd0
    7500:	e51b3028 	ldr	r3, [fp, #-40]	; 0xffffffd8
    7504:	e1a00002 	mov	r0, r2
    7508:	e59f1634 	ldr	r1, [pc, #1588]	; 7b44 <__process_packet+0x8bc>
    750c:	e1a02003 	mov	r2, r3
    7510:	ebfffb35 	bl	61ec <__mem2hex_safe>
    7514:	e1a03000 	mov	r3, r0
    7518:	e3530000 	cmp	r3, #0
    751c:	1a00017f 	bne	7b20 <__process_packet+0x898>
    7520:	e59f061c 	ldr	r0, [pc, #1564]	; 7b44 <__process_packet+0x8bc>
    7524:	e59f1628 	ldr	r1, [pc, #1576]	; 7b54 <__process_packet+0x8cc>
    7528:	e3a02004 	mov	r2, #4
    752c:	eb00170e 	bl	d16c <_memcpy>
    7530:	ea00017a 	b	7b20 <__process_packet+0x898>
    7534:	e59f0608 	ldr	r0, [pc, #1544]	; 7b44 <__process_packet+0x8bc>
    7538:	e59f1610 	ldr	r1, [pc, #1552]	; 7b50 <__process_packet+0x8c8>
    753c:	e3a02004 	mov	r2, #4
    7540:	eb001709 	bl	d16c <_memcpy>
    7544:	ea000175 	b	7b20 <__process_packet+0x898>
    7548:	e3a03001 	mov	r3, #1
    754c:	e50b3024 	str	r3, [fp, #-36]	; 0xffffffdc
    7550:	e51b30e0 	ldr	r3, [fp, #-224]	; 0xffffff20
    7554:	e2833001 	add	r3, r3, #1
    7558:	e50b3038 	str	r3, [fp, #-56]	; 0xffffffc8
    755c:	e24b3038 	sub	r3, fp, #56	; 0x38
    7560:	e24b203c 	sub	r2, fp, #60	; 0x3c
    7564:	e1a00003 	mov	r0, r3
    7568:	e1a01002 	mov	r1, r2
    756c:	ebfffc73 	bl	6740 <__hexToAddr>
    7570:	e1a03000 	mov	r3, r0
    7574:	e3530000 	cmp	r3, #0
    7578:	0a000093 	beq	77cc <__process_packet+0x544>
    757c:	e51b1038 	ldr	r1, [fp, #-56]	; 0xffffffc8
    7580:	e5d13000 	ldrb	r3, [r1]
    7584:	e353002c 	cmp	r3, #44	; 0x2c
    7588:	13a03000 	movne	r3, #0
    758c:	03a03001 	moveq	r3, #1
    7590:	e20320ff 	and	r2, r3, #255	; 0xff
    7594:	e2813001 	add	r3, r1, #1
    7598:	e50b3038 	str	r3, [fp, #-56]	; 0xffffffc8
    759c:	e2223001 	eor	r3, r2, #1
    75a0:	e20330ff 	and	r3, r3, #255	; 0xff
    75a4:	e3530000 	cmp	r3, #0
    75a8:	1a000087 	bne	77cc <__process_packet+0x544>
    75ac:	e24b3038 	sub	r3, fp, #56	; 0x38
    75b0:	e24b2034 	sub	r2, fp, #52	; 0x34
    75b4:	e1a00003 	mov	r0, r3
    75b8:	e1a01002 	mov	r1, r2
    75bc:	ebfffc30 	bl	6684 <__hexToInt>
    75c0:	e1a03000 	mov	r3, r0
    75c4:	e3530000 	cmp	r3, #0
    75c8:	0a00007f 	beq	77cc <__process_packet+0x544>
    75cc:	e51b1038 	ldr	r1, [fp, #-56]	; 0xffffffc8
    75d0:	e5d13000 	ldrb	r3, [r1]
    75d4:	e353003a 	cmp	r3, #58	; 0x3a
    75d8:	13a03000 	movne	r3, #0
    75dc:	03a03001 	moveq	r3, #1
    75e0:	e20320ff 	and	r2, r3, #255	; 0xff
    75e4:	e2813001 	add	r3, r1, #1
    75e8:	e50b3038 	str	r3, [fp, #-56]	; 0xffffffc8
    75ec:	e2223001 	eor	r3, r2, #1
    75f0:	e20330ff 	and	r3, r3, #255	; 0xff
    75f4:	e3530000 	cmp	r3, #0
    75f8:	1a000073 	bne	77cc <__process_packet+0x544>
    75fc:	e51b2034 	ldr	r2, [fp, #-52]	; 0xffffffcc
    7600:	e3a03e7f 	mov	r3, #2032	; 0x7f0
    7604:	e283300f 	add	r3, r3, #15
    7608:	e1520003 	cmp	r2, r3
    760c:	9a000004 	bls	7624 <__process_packet+0x39c>
    7610:	e59f052c 	ldr	r0, [pc, #1324]	; 7b44 <__process_packet+0x8bc>
    7614:	e59f1534 	ldr	r1, [pc, #1332]	; 7b50 <__process_packet+0x8c8>
    7618:	e3a02004 	mov	r2, #4
    761c:	eb0016d2 	bl	d16c <_memcpy>
    7620:	ea00013e 	b	7b20 <__process_packet+0x898>
    7624:	e51b3024 	ldr	r3, [fp, #-36]	; 0xffffffdc
    7628:	e3530000 	cmp	r3, #0
    762c:	0a000053 	beq	7780 <__process_packet+0x4f8>
    7630:	ea000042 	b	7740 <__process_packet+0x4b8>
    7634:	e3a03000 	mov	r3, #0
    7638:	e50b3014 	str	r3, [fp, #-20]	; 0xffffffec
    763c:	ea000025 	b	76d8 <__process_packet+0x450>
    7640:	e51b0014 	ldr	r0, [fp, #-20]	; 0xffffffec
    7644:	e51bc038 	ldr	ip, [fp, #-56]	; 0xffffffc8
    7648:	e5dc1000 	ldrb	r1, [ip]
    764c:	e3e020cb 	mvn	r2, #203	; 0xcb
    7650:	e24be00c 	sub	lr, fp, #12
    7654:	e08e3000 	add	r3, lr, r0
    7658:	e0832002 	add	r2, r3, r2
    765c:	e1a03001 	mov	r3, r1
    7660:	e5c23000 	strb	r3, [r2]
    7664:	e3e020cb 	mvn	r2, #203	; 0xcb
    7668:	e24b100c 	sub	r1, fp, #12
    766c:	e0813000 	add	r3, r1, r0
    7670:	e0833002 	add	r3, r3, r2
    7674:	e5d33000 	ldrb	r3, [r3]
    7678:	e353007d 	cmp	r3, #125	; 0x7d
    767c:	13a03000 	movne	r3, #0
    7680:	03a03001 	moveq	r3, #1
    7684:	e20320ff 	and	r2, r3, #255	; 0xff
    7688:	e28c3001 	add	r3, ip, #1
    768c:	e50b3038 	str	r3, [fp, #-56]	; 0xffffffc8
    7690:	e3520000 	cmp	r2, #0
    7694:	0a00000c 	beq	76cc <__process_packet+0x444>
    7698:	e51b0014 	ldr	r0, [fp, #-20]	; 0xffffffec
    769c:	e51bc038 	ldr	ip, [fp, #-56]	; 0xffffffc8
    76a0:	e5dc3000 	ldrb	r3, [ip]
    76a4:	e3833020 	orr	r3, r3, #32
    76a8:	e20310ff 	and	r1, r3, #255	; 0xff
    76ac:	e3e020cb 	mvn	r2, #203	; 0xcb
    76b0:	e24be00c 	sub	lr, fp, #12
    76b4:	e08e3000 	add	r3, lr, r0
    76b8:	e0832002 	add	r2, r3, r2
    76bc:	e1a03001 	mov	r3, r1
    76c0:	e5c23000 	strb	r3, [r2]
    76c4:	e28c3001 	add	r3, ip, #1
    76c8:	e50b3038 	str	r3, [fp, #-56]	; 0xffffffc8
    76cc:	e51b3014 	ldr	r3, [fp, #-20]	; 0xffffffec
    76d0:	e2833001 	add	r3, r3, #1
    76d4:	e50b3014 	str	r3, [fp, #-20]	; 0xffffffec
    76d8:	e51b3014 	ldr	r3, [fp, #-20]	; 0xffffffec
    76dc:	e353007f 	cmp	r3, #127	; 0x7f
    76e0:	8a000003 	bhi	76f4 <__process_packet+0x46c>
    76e4:	e51b2014 	ldr	r2, [fp, #-20]	; 0xffffffec
    76e8:	e51b3034 	ldr	r3, [fp, #-52]	; 0xffffffcc
    76ec:	e1520003 	cmp	r2, r3
    76f0:	3affffd2 	bcc	7640 <__process_packet+0x3b8>
    76f4:	e51b303c 	ldr	r3, [fp, #-60]	; 0xffffffc4
    76f8:	e1a02003 	mov	r2, r3
    76fc:	e24b30d8 	sub	r3, fp, #216	; 0xd8
    7700:	e1a00003 	mov	r0, r3
    7704:	e1a01002 	mov	r1, r2
    7708:	e51b2014 	ldr	r2, [fp, #-20]	; 0xffffffec
    770c:	eb000aa6 	bl	a1ac <__write_mem_safe>
    7710:	e1a02000 	mov	r2, r0
    7714:	e51b3014 	ldr	r3, [fp, #-20]	; 0xffffffec
    7718:	e1520003 	cmp	r2, r3
    771c:	1a00000a 	bne	774c <__process_packet+0x4c4>
    7720:	e51b2034 	ldr	r2, [fp, #-52]	; 0xffffffcc
    7724:	e51b3014 	ldr	r3, [fp, #-20]	; 0xffffffec
    7728:	e0633002 	rsb	r3, r3, r2
    772c:	e50b3034 	str	r3, [fp, #-52]	; 0xffffffcc
    7730:	e51b203c 	ldr	r2, [fp, #-60]	; 0xffffffc4
    7734:	e51b3014 	ldr	r3, [fp, #-20]	; 0xffffffec
    7738:	e0823003 	add	r3, r2, r3
    773c:	e50b303c 	str	r3, [fp, #-60]	; 0xffffffc4
    7740:	e51b3034 	ldr	r3, [fp, #-52]	; 0xffffffcc
    7744:	e3530000 	cmp	r3, #0
    7748:	1affffb9 	bne	7634 <__process_packet+0x3ac>
    774c:	e51b3034 	ldr	r3, [fp, #-52]	; 0xffffffcc
    7750:	e3530000 	cmp	r3, #0
    7754:	1a000004 	bne	776c <__process_packet+0x4e4>
    7758:	e59f03e4 	ldr	r0, [pc, #996]	; 7b44 <__process_packet+0x8bc>
    775c:	e59f13f4 	ldr	r1, [pc, #1012]	; 7b58 <__process_packet+0x8d0>
    7760:	e3a02003 	mov	r2, #3
    7764:	eb001680 	bl	d16c <_memcpy>
    7768:	ea0000ec 	b	7b20 <__process_packet+0x898>
    776c:	e59f03d0 	ldr	r0, [pc, #976]	; 7b44 <__process_packet+0x8bc>
    7770:	e59f13dc 	ldr	r1, [pc, #988]	; 7b54 <__process_packet+0x8cc>
    7774:	e3a02004 	mov	r2, #4
    7778:	eb00167b 	bl	d16c <_memcpy>
    777c:	ea0000e7 	b	7b20 <__process_packet+0x898>
    7780:	e51b2038 	ldr	r2, [fp, #-56]	; 0xffffffc8
    7784:	e51b103c 	ldr	r1, [fp, #-60]	; 0xffffffc4
    7788:	e51b3034 	ldr	r3, [fp, #-52]	; 0xffffffcc
    778c:	e1a00002 	mov	r0, r2
    7790:	e1a02003 	mov	r2, r3
    7794:	ebfffb84 	bl	65ac <__hex2mem_safe>
    7798:	e1a03000 	mov	r3, r0
    779c:	e3530000 	cmp	r3, #0
    77a0:	0a000004 	beq	77b8 <__process_packet+0x530>
    77a4:	e59f0398 	ldr	r0, [pc, #920]	; 7b44 <__process_packet+0x8bc>
    77a8:	e59f13a8 	ldr	r1, [pc, #936]	; 7b58 <__process_packet+0x8d0>
    77ac:	e3a02003 	mov	r2, #3
    77b0:	eb00166d 	bl	d16c <_memcpy>
    77b4:	ea0000d9 	b	7b20 <__process_packet+0x898>
    77b8:	e59f0384 	ldr	r0, [pc, #900]	; 7b44 <__process_packet+0x8bc>
    77bc:	e59f1390 	ldr	r1, [pc, #912]	; 7b54 <__process_packet+0x8cc>
    77c0:	e3a02004 	mov	r2, #4
    77c4:	eb001668 	bl	d16c <_memcpy>
    77c8:	ea0000d4 	b	7b20 <__process_packet+0x898>
    77cc:	e59f0370 	ldr	r0, [pc, #880]	; 7b44 <__process_packet+0x8bc>
    77d0:	e59f1384 	ldr	r1, [pc, #900]	; 7b5c <__process_packet+0x8d4>
    77d4:	e3a02004 	mov	r2, #4
    77d8:	eb001663 	bl	d16c <_memcpy>
    77dc:	ea0000cf 	b	7b20 <__process_packet+0x898>
    77e0:	e51b30e0 	ldr	r3, [fp, #-224]	; 0xffffff20
    77e4:	e2833001 	add	r3, r3, #1
    77e8:	e50b3040 	str	r3, [fp, #-64]	; 0xffffffc0
    77ec:	e3a03000 	mov	r3, #0
    77f0:	e50b3048 	str	r3, [fp, #-72]	; 0xffffffb8
    77f4:	e51b30e0 	ldr	r3, [fp, #-224]	; 0xffffff20
    77f8:	e5d33000 	ldrb	r3, [r3]
    77fc:	e3530043 	cmp	r3, #67	; 0x43
    7800:	0a000003 	beq	7814 <__process_packet+0x58c>
    7804:	e51b30e0 	ldr	r3, [fp, #-224]	; 0xffffff20
    7808:	e5d33000 	ldrb	r3, [r3]
    780c:	e3530053 	cmp	r3, #83	; 0x53
    7810:	1a00000b 	bne	7844 <__process_packet+0x5bc>
    7814:	e24b3040 	sub	r3, fp, #64	; 0x40
    7818:	e24b2048 	sub	r2, fp, #72	; 0x48
    781c:	e1a00003 	mov	r0, r3
    7820:	e1a01002 	mov	r1, r2
    7824:	ebfffb96 	bl	6684 <__hexToInt>
    7828:	e51b3040 	ldr	r3, [fp, #-64]	; 0xffffffc0
    782c:	e5d33000 	ldrb	r3, [r3]
    7830:	e353003b 	cmp	r3, #59	; 0x3b
    7834:	1a000002 	bne	7844 <__process_packet+0x5bc>
    7838:	e51b3040 	ldr	r3, [fp, #-64]	; 0xffffffc0
    783c:	e2833001 	add	r3, r3, #1
    7840:	e50b3040 	str	r3, [fp, #-64]	; 0xffffffc0
    7844:	e24b3040 	sub	r3, fp, #64	; 0x40
    7848:	e24b2044 	sub	r2, fp, #68	; 0x44
    784c:	e1a00003 	mov	r0, r3
    7850:	e1a01002 	mov	r1, r2
    7854:	ebfffbb9 	bl	6740 <__hexToAddr>
    7858:	e1a03000 	mov	r3, r0
    785c:	e3530000 	cmp	r3, #0
    7860:	0a000002 	beq	7870 <__process_packet+0x5e8>
    7864:	e51b3044 	ldr	r3, [fp, #-68]	; 0xffffffbc
    7868:	e1a00003 	mov	r0, r3
    786c:	eb0029ca 	bl	11f9c <set_pc>
    7870:	e3a00003 	mov	r0, #3
    7874:	eb0009a2 	bl	9f04 <__data_cache>
    7878:	e3a00003 	mov	r0, #3
    787c:	eb000987 	bl	9ea0 <__instruction_cache>
    7880:	e51b3048 	ldr	r3, [fp, #-72]	; 0xffffffb8
    7884:	e3530000 	cmp	r3, #0
    7888:	0a00000e 	beq	78c8 <__process_packet+0x640>
    788c:	e59f32cc 	ldr	r3, [pc, #716]	; 7b60 <__process_packet+0x8d8>
    7890:	e5933000 	ldr	r3, [r3]
    7894:	e3530000 	cmp	r3, #0
    7898:	0a00000a 	beq	78c8 <__process_packet+0x640>
    789c:	e59f32bc 	ldr	r3, [pc, #700]	; 7b60 <__process_packet+0x8d8>
    78a0:	e5932000 	ldr	r2, [r3]
    78a4:	e51b3048 	ldr	r3, [fp, #-72]	; 0xffffffb8
    78a8:	e1a00003 	mov	r0, r3
    78ac:	e1a0e00f 	mov	lr, pc
    78b0:	e12fff12 	bx	r2
    78b4:	e1a03000 	mov	r3, r0
    78b8:	e3530000 	cmp	r3, #0
    78bc:	1a000001 	bne	78c8 <__process_packet+0x640>
    78c0:	e3a03000 	mov	r3, #0
    78c4:	e50b3048 	str	r3, [fp, #-72]	; 0xffffffb8
    78c8:	e51b3048 	ldr	r3, [fp, #-72]	; 0xffffffb8
    78cc:	e3530000 	cmp	r3, #0
    78d0:	0a000007 	beq	78f4 <__process_packet+0x66c>
    78d4:	e3a03009 	mov	r3, #9
    78d8:	e50b3048 	str	r3, [fp, #-72]	; 0xffffffb8
    78dc:	e51b3048 	ldr	r3, [fp, #-72]	; 0xffffffb8
    78e0:	e1a00003 	mov	r0, r3
    78e4:	eb0000f1 	bl	7cb0 <__kill_program>
    78e8:	e3a01000 	mov	r1, #0
    78ec:	e50b10e4 	str	r1, [fp, #-228]	; 0xffffff1c
    78f0:	ea00008e 	b	7b30 <__process_packet+0x8a8>
    78f4:	eb002f71 	bl	136c0 <cyg_hal_gdb_break_is_set>
    78f8:	e1a03000 	mov	r3, r0
    78fc:	e3530000 	cmp	r3, #0
    7900:	0a000005 	beq	791c <__process_packet+0x694>
    7904:	e51b20e0 	ldr	r2, [fp, #-224]	; 0xffffff20
    7908:	e3a03063 	mov	r3, #99	; 0x63
    790c:	e5c23000 	strb	r3, [r2]
    7910:	e59f224c 	ldr	r2, [pc, #588]	; 7b64 <__process_packet+0x8dc>
    7914:	e3a03001 	mov	r3, #1
    7918:	e5823000 	str	r3, [r2]
    791c:	e51b30e0 	ldr	r3, [fp, #-224]	; 0xffffff20
    7920:	e5d33000 	ldrb	r3, [r3]
    7924:	e3530073 	cmp	r3, #115	; 0x73
    7928:	0a000003 	beq	793c <__process_packet+0x6b4>
    792c:	e51b30e0 	ldr	r3, [fp, #-224]	; 0xffffff20
    7930:	e5d33000 	ldrb	r3, [r3]
    7934:	e3530053 	cmp	r3, #83	; 0x53
    7938:	1a000006 	bne	7958 <__process_packet+0x6d0>
    793c:	e3a00000 	mov	r0, #0
    7940:	ebfffc06 	bl	6960 <lock_thread_scheduler>
    7944:	e59f221c 	ldr	r2, [pc, #540]	; 7b68 <__process_packet+0x8e0>
    7948:	e59f321c 	ldr	r3, [pc, #540]	; 7b6c <__process_packet+0x8e4>
    794c:	e5823000 	str	r3, [r2]
    7950:	eb002e39 	bl	1323c <__single_step>
    7954:	ea000001 	b	7960 <__process_packet+0x6d8>
    7958:	e3a00001 	mov	r0, #1
    795c:	ebfffbff 	bl	6960 <lock_thread_scheduler>
    7960:	e3a00003 	mov	r0, #3
    7964:	eb000966 	bl	9f04 <__data_cache>
    7968:	e3a00003 	mov	r0, #3
    796c:	eb00094b 	bl	9ea0 <__instruction_cache>
    7970:	eb0006f1 	bl	953c <hal_flush_output>
    7974:	e3e03000 	mvn	r3, #0
    7978:	e50b30e4 	str	r3, [fp, #-228]	; 0xffffff1c
    797c:	ea00006b 	b	7b30 <__process_packet+0x8a8>
    7980:	e59f01bc 	ldr	r0, [pc, #444]	; 7b44 <__process_packet+0x8bc>
    7984:	ebfff92d 	bl	5e40 <__putpacket>
    7988:	eb0006eb 	bl	953c <hal_flush_output>
    798c:	e59f31dc 	ldr	r3, [pc, #476]	; 7b70 <__process_packet+0x8e8>
    7990:	e5933000 	ldr	r3, [r3]
    7994:	e1a0e00f 	mov	lr, pc
    7998:	e12fff13 	bx	r3
    799c:	e3e01000 	mvn	r1, #0
    79a0:	e50b10e4 	str	r1, [fp, #-228]	; 0xffffff1c
    79a4:	ea000061 	b	7b30 <__process_packet+0x8a8>
    79a8:	e59f21c0 	ldr	r2, [pc, #448]	; 7b70 <__process_packet+0x8e8>
    79ac:	e59f31c0 	ldr	r3, [pc, #448]	; 7b74 <__process_packet+0x8ec>
    79b0:	e5823000 	str	r3, [r2]
    79b4:	ea000059 	b	7b20 <__process_packet+0x898>
    79b8:	e51b30e0 	ldr	r3, [fp, #-224]	; 0xffffff20
    79bc:	e2833001 	add	r3, r3, #1
    79c0:	e1a00003 	mov	r0, r3
    79c4:	e59f1178 	ldr	r1, [pc, #376]	; 7b44 <__process_packet+0x8bc>
    79c8:	e3a02f4b 	mov	r2, #300	; 0x12c
    79cc:	eb0004c4 	bl	8ce4 <stub_pkt_changethread>
    79d0:	ea000052 	b	7b20 <__process_packet+0x898>
    79d4:	e51b30e0 	ldr	r3, [fp, #-224]	; 0xffffff20
    79d8:	e2833001 	add	r3, r3, #1
    79dc:	e1a00003 	mov	r0, r3
    79e0:	e59f115c 	ldr	r1, [pc, #348]	; 7b44 <__process_packet+0x8bc>
    79e4:	e3a02f4b 	mov	r2, #300	; 0x12c
    79e8:	eb000492 	bl	8c38 <stub_pkt_thread_alive>
    79ec:	ea00004b 	b	7b20 <__process_packet+0x898>
    79f0:	e51b30e0 	ldr	r3, [fp, #-224]	; 0xffffff20
    79f4:	e2833001 	add	r3, r3, #1
    79f8:	e50b3050 	str	r3, [fp, #-80]	; 0xffffffb0
    79fc:	e24b3050 	sub	r3, fp, #80	; 0x50
    7a00:	e24b204c 	sub	r2, fp, #76	; 0x4c
    7a04:	e1a00003 	mov	r0, r3
    7a08:	e1a01002 	mov	r1, r2
    7a0c:	ebfffb1c 	bl	6684 <__hexToInt>
    7a10:	e1a03000 	mov	r3, r0
    7a14:	e3530000 	cmp	r3, #0
    7a18:	0a000021 	beq	7aa4 <__process_packet+0x81c>
    7a1c:	e51b1050 	ldr	r1, [fp, #-80]	; 0xffffffb0
    7a20:	e5d13000 	ldrb	r3, [r1]
    7a24:	e353002c 	cmp	r3, #44	; 0x2c
    7a28:	13a03000 	movne	r3, #0
    7a2c:	03a03001 	moveq	r3, #1
    7a30:	e20320ff 	and	r2, r3, #255	; 0xff
    7a34:	e2813001 	add	r3, r1, #1
    7a38:	e50b3050 	str	r3, [fp, #-80]	; 0xffffffb0
    7a3c:	e2223001 	eor	r3, r2, #1
    7a40:	e20330ff 	and	r3, r3, #255	; 0xff
    7a44:	e3530000 	cmp	r3, #0
    7a48:	1a000015 	bne	7aa4 <__process_packet+0x81c>
    7a4c:	e51b2050 	ldr	r2, [fp, #-80]	; 0xffffffb0
    7a50:	e5d23000 	ldrb	r3, [r2]
    7a54:	e54b300d 	strb	r3, [fp, #-13]
    7a58:	e2823001 	add	r3, r2, #1
    7a5c:	e50b3050 	str	r3, [fp, #-80]	; 0xffffffb0
    7a60:	e55b300d 	ldrb	r3, [fp, #-13]
    7a64:	e3530043 	cmp	r3, #67	; 0x43
    7a68:	1a000004 	bne	7a80 <__process_packet+0x7f8>
    7a6c:	e51b304c 	ldr	r3, [fp, #-76]	; 0xffffffb4
    7a70:	e1a00003 	mov	r0, r3
    7a74:	e3a01000 	mov	r1, #0
    7a78:	eb000a12 	bl	a2c8 <__remove_breakpoint>
    7a7c:	ea000003 	b	7a90 <__process_packet+0x808>
    7a80:	e51b304c 	ldr	r3, [fp, #-76]	; 0xffffffb4
    7a84:	e1a00003 	mov	r0, r3
    7a88:	e3a01000 	mov	r1, #0
    7a8c:	eb000a02 	bl	a29c <__set_breakpoint>
    7a90:	e59f00ac 	ldr	r0, [pc, #172]	; 7b44 <__process_packet+0x8bc>
    7a94:	e59f10bc 	ldr	r1, [pc, #188]	; 7b58 <__process_packet+0x8d0>
    7a98:	e3a02003 	mov	r2, #3
    7a9c:	eb0015b2 	bl	d16c <_memcpy>
    7aa0:	ea00001e 	b	7b20 <__process_packet+0x898>
    7aa4:	e59f0098 	ldr	r0, [pc, #152]	; 7b44 <__process_packet+0x8bc>
    7aa8:	e59f10a0 	ldr	r1, [pc, #160]	; 7b50 <__process_packet+0x8c8>
    7aac:	e3a02004 	mov	r2, #4
    7ab0:	eb0015ad 	bl	d16c <_memcpy>
    7ab4:	ea000019 	b	7b20 <__process_packet+0x898>
    7ab8:	e51b30e0 	ldr	r3, [fp, #-224]	; 0xffffff20
    7abc:	e2833001 	add	r3, r3, #1
    7ac0:	e50b3058 	str	r3, [fp, #-88]	; 0xffffffa8
    7ac4:	e24b3058 	sub	r3, fp, #88	; 0x58
    7ac8:	e24b2054 	sub	r2, fp, #84	; 0x54
    7acc:	e1a00003 	mov	r0, r3
    7ad0:	e1a01002 	mov	r1, r2
    7ad4:	ebfffaea 	bl	6684 <__hexToInt>
    7ad8:	e1a03000 	mov	r3, r0
    7adc:	e3530000 	cmp	r3, #0
    7ae0:	1a000004 	bne	7af8 <__process_packet+0x870>
    7ae4:	e59f0058 	ldr	r0, [pc, #88]	; 7b44 <__process_packet+0x8bc>
    7ae8:	e59f1088 	ldr	r1, [pc, #136]	; 7b78 <__process_packet+0x8f0>
    7aec:	e3a02004 	mov	r2, #4
    7af0:	eb00159d 	bl	d16c <_memcpy>
    7af4:	ea000009 	b	7b20 <__process_packet+0x898>
    7af8:	e59f0058 	ldr	r0, [pc, #88]	; 7b58 <__process_packet+0x8d0>
    7afc:	ebfff8cf 	bl	5e40 <__putpacket>
    7b00:	e51b3054 	ldr	r3, [fp, #-84]	; 0xffffffac
    7b04:	e1a00003 	mov	r0, r3
    7b08:	eb0006a0 	bl	9590 <__set_baud_rate>
    7b0c:	ea000003 	b	7b20 <__process_packet+0x898>
    7b10:	e51b00e0 	ldr	r0, [fp, #-224]	; 0xffffff20
    7b14:	e59f1028 	ldr	r1, [pc, #40]	; 7b44 <__process_packet+0x8bc>
    7b18:	e3a02f4b 	mov	r2, #300	; 0x12c
    7b1c:	eb0009d2 	bl	a26c <__process_target_packet>
    7b20:	e59f001c 	ldr	r0, [pc, #28]	; 7b44 <__process_packet+0x8bc>
    7b24:	ebfff8c5 	bl	5e40 <__putpacket>
    7b28:	e3a03000 	mov	r3, #0
    7b2c:	e50b30e4 	str	r3, [fp, #-228]	; 0xffffff1c
    7b30:	e51b30e4 	ldr	r3, [fp, #-228]	; 0xffffff1c
    7b34:	e1a00003 	mov	r0, r3
    7b38:	e24bd00c 	sub	sp, fp, #12
    7b3c:	e89d6800 	ldm	sp, {fp, sp, lr}
    7b40:	e12fff1e 	bx	lr
    7b44:	81004568 	.word	0x81004568
    7b48:	00015ac0 	.word	0x00015ac0
    7b4c:	810001fc 	.word	0x810001fc
    7b50:	00015ae4 	.word	0x00015ae4
    7b54:	00015ae8 	.word	0x00015ae8
    7b58:	00015ae0 	.word	0x00015ae0
    7b5c:	00015aec 	.word	0x00015aec
    7b60:	81002d80 	.word	0x81002d80
    7b64:	81004424 	.word	0x81004424
    7b68:	810002c4 	.word	0x810002c4
    7b6c:	81005574 	.word	0x81005574
    7b70:	810002b8 	.word	0x810002b8
    7b74:	00009acc 	.word	0x00009acc
    7b78:	00015af0 	.word	0x00015af0

00007b7c <send_t_packet>:
    7b7c:	e1a0c00d 	mov	ip, sp
    7b80:	e92dd800 	push	{fp, ip, lr, pc}
    7b84:	e24cb004 	sub	fp, ip, #4
    7b88:	e24dd008 	sub	sp, sp, #8
    7b8c:	e50b0010 	str	r0, [fp, #-16]
    7b90:	e51b0010 	ldr	r0, [fp, #-16]
    7b94:	e59f1014 	ldr	r1, [pc, #20]	; 7bb0 <send_t_packet+0x34>
    7b98:	eb0007dc 	bl	9b10 <__build_t_packet>
    7b9c:	e59f000c 	ldr	r0, [pc, #12]	; 7bb0 <send_t_packet+0x34>
    7ba0:	ebfff8a6 	bl	5e40 <__putpacket>
    7ba4:	e24bd00c 	sub	sp, fp, #12
    7ba8:	e89d6800 	ldm	sp, {fp, sp, lr}
    7bac:	e12fff1e 	bx	lr
    7bb0:	81004568 	.word	0x81004568

00007bb4 <process_exception>:
    7bb4:	e1a0c00d 	mov	ip, sp
    7bb8:	e92dd800 	push	{fp, ip, lr, pc}
    7bbc:	e24cb004 	sub	fp, ip, #4
    7bc0:	e24dd010 	sub	sp, sp, #16
    7bc4:	e50b0018 	str	r0, [fp, #-24]	; 0xffffffe8
    7bc8:	e59f3068 	ldr	r3, [pc, #104]	; 7c38 <process_exception+0x84>
    7bcc:	e5933000 	ldr	r3, [r3]
    7bd0:	e3530000 	cmp	r3, #0
    7bd4:	aa000001 	bge	7be0 <process_exception+0x2c>
    7bd8:	e51b0018 	ldr	r0, [fp, #-24]	; 0xffffffe8
    7bdc:	ebffffe6 	bl	7b7c <send_t_packet>
    7be0:	e59f0054 	ldr	r0, [pc, #84]	; 7c3c <process_exception+0x88>
    7be4:	ebfff7b5 	bl	5ac0 <__getpacket>
    7be8:	e59f004c 	ldr	r0, [pc, #76]	; 7c3c <process_exception+0x88>
    7bec:	ebfffda5 	bl	7288 <__process_packet>
    7bf0:	e1a03000 	mov	r3, r0
    7bf4:	e50b3010 	str	r3, [fp, #-16]
    7bf8:	e51b3010 	ldr	r3, [fp, #-16]
    7bfc:	e3530000 	cmp	r3, #0
    7c00:	0afffff6 	beq	7be0 <process_exception+0x2c>
    7c04:	e51b3010 	ldr	r3, [fp, #-16]
    7c08:	e3530000 	cmp	r3, #0
    7c0c:	aa000002 	bge	7c1c <process_exception+0x68>
    7c10:	e3a03000 	mov	r3, #0
    7c14:	e50b301c 	str	r3, [fp, #-28]	; 0xffffffe4
    7c18:	ea000001 	b	7c24 <process_exception+0x70>
    7c1c:	e3a03001 	mov	r3, #1
    7c20:	e50b301c 	str	r3, [fp, #-28]	; 0xffffffe4
    7c24:	e51b301c 	ldr	r3, [fp, #-28]	; 0xffffffe4
    7c28:	e1a00003 	mov	r0, r3
    7c2c:	e24bd00c 	sub	sp, fp, #12
    7c30:	e89d6800 	ldm	sp, {fp, sp, lr}
    7c34:	e12fff1e 	bx	lr
    7c38:	810002bc 	.word	0x810002bc
    7c3c:	81004d6c 	.word	0x81004d6c

00007c40 <do_nothing>:
    7c40:	e1a0c00d 	mov	ip, sp
    7c44:	e92dd800 	push	{fp, ip, lr, pc}
    7c48:	e24cb004 	sub	fp, ip, #4
    7c4c:	e24bd00c 	sub	sp, fp, #12
    7c50:	e89d6800 	ldm	sp, {fp, sp, lr}
    7c54:	e12fff1e 	bx	lr

00007c58 <initialize_stub>:
    7c58:	e1a0c00d 	mov	ip, sp
    7c5c:	e92dd800 	push	{fp, ip, lr, pc}
    7c60:	e24cb004 	sub	fp, ip, #4
    7c64:	ebfffa7b 	bl	6658 <set_debug_traps>
    7c68:	eb000788 	bl	9a90 <initHardware>
    7c6c:	e3a0002b 	mov	r0, #43	; 0x2b
    7c70:	eb0005dc 	bl	93e8 <putDebugChar>
    7c74:	e24bd00c 	sub	sp, fp, #12
    7c78:	e89d6800 	ldm	sp, {fp, sp, lr}
    7c7c:	e12fff1e 	bx	lr

00007c80 <ungetDebugChar>:
    7c80:	e1a0c00d 	mov	ip, sp
    7c84:	e92dd800 	push	{fp, ip, lr, pc}
    7c88:	e24cb004 	sub	fp, ip, #4
    7c8c:	e24dd008 	sub	sp, sp, #8
    7c90:	e50b0010 	str	r0, [fp, #-16]
    7c94:	e59f2010 	ldr	r2, [pc, #16]	; 7cac <ungetDebugChar+0x2c>
    7c98:	e51b3010 	ldr	r3, [fp, #-16]
    7c9c:	e5823000 	str	r3, [r2]
    7ca0:	e24bd00c 	sub	sp, fp, #12
    7ca4:	e89d6800 	ldm	sp, {fp, sp, lr}
    7ca8:	e12fff1e 	bx	lr
    7cac:	810002bc 	.word	0x810002bc

00007cb0 <__kill_program>:
    7cb0:	e1a0c00d 	mov	ip, sp
    7cb4:	e92dd800 	push	{fp, ip, lr, pc}
    7cb8:	e24cb004 	sub	fp, ip, #4
    7cbc:	e24dd008 	sub	sp, sp, #8
    7cc0:	e50b0010 	str	r0, [fp, #-16]
    7cc4:	e59f2058 	ldr	r2, [pc, #88]	; 7d24 <__kill_program+0x74>
    7cc8:	e3a03058 	mov	r3, #88	; 0x58
    7ccc:	e5c23000 	strb	r3, [r2]
    7cd0:	e51b3010 	ldr	r3, [fp, #-16]
    7cd4:	e1a03243 	asr	r3, r3, #4
    7cd8:	e203200f 	and	r2, r3, #15
    7cdc:	e59f3044 	ldr	r3, [pc, #68]	; 7d28 <__kill_program+0x78>
    7ce0:	e7d33002 	ldrb	r3, [r3, r2]
    7ce4:	e59f2038 	ldr	r2, [pc, #56]	; 7d24 <__kill_program+0x74>
    7ce8:	e5c23001 	strb	r3, [r2, #1]
    7cec:	e51b3010 	ldr	r3, [fp, #-16]
    7cf0:	e203200f 	and	r2, r3, #15
    7cf4:	e59f302c 	ldr	r3, [pc, #44]	; 7d28 <__kill_program+0x78>
    7cf8:	e7d33002 	ldrb	r3, [r3, r2]
    7cfc:	e59f2020 	ldr	r2, [pc, #32]	; 7d24 <__kill_program+0x74>
    7d00:	e5c23002 	strb	r3, [r2, #2]
    7d04:	e59f2018 	ldr	r2, [pc, #24]	; 7d24 <__kill_program+0x74>
    7d08:	e3a03000 	mov	r3, #0
    7d0c:	e5c23003 	strb	r3, [r2, #3]
    7d10:	e59f000c 	ldr	r0, [pc, #12]	; 7d24 <__kill_program+0x74>
    7d14:	ebfff849 	bl	5e40 <__putpacket>
    7d18:	e24bd00c 	sub	sp, fp, #12
    7d1c:	e89d6800 	ldm	sp, {fp, sp, lr}
    7d20:	e12fff1e 	bx	lr
    7d24:	81004568 	.word	0x81004568
    7d28:	00015ac0 	.word	0x00015ac0

00007d2c <crc32>:
    7d2c:	e1a0c00d 	mov	ip, sp
    7d30:	e92dd800 	push	{fp, ip, lr, pc}
    7d34:	e24cb004 	sub	fp, ip, #4
    7d38:	e24dd028 	sub	sp, sp, #40	; 0x28
    7d3c:	e50b0028 	str	r0, [fp, #-40]	; 0xffffffd8
    7d40:	e50b102c 	str	r1, [fp, #-44]	; 0xffffffd4
    7d44:	e50b2030 	str	r2, [fp, #-48]	; 0xffffffd0
    7d48:	e51b3028 	ldr	r3, [fp, #-40]	; 0xffffffd8
    7d4c:	e50b301c 	str	r3, [fp, #-28]	; 0xffffffe4
    7d50:	e59f3158 	ldr	r3, [pc, #344]	; 7eb0 <crc32+0x184>
    7d54:	e5933000 	ldr	r3, [r3]
    7d58:	e3530000 	cmp	r3, #0
    7d5c:	1a000029 	bne	7e08 <crc32+0xdc>
    7d60:	e59f3148 	ldr	r3, [pc, #328]	; 7eb0 <crc32+0x184>
    7d64:	e3a02001 	mov	r2, #1
    7d68:	e5832000 	str	r2, [r3]
    7d6c:	e3a03000 	mov	r3, #0
    7d70:	e50b3018 	str	r3, [fp, #-24]	; 0xffffffe8
    7d74:	ea000020 	b	7dfc <crc32+0xd0>
    7d78:	e51b3018 	ldr	r3, [fp, #-24]	; 0xffffffe8
    7d7c:	e1a03c03 	lsl	r3, r3, #24
    7d80:	e50b3010 	str	r3, [fp, #-16]
    7d84:	e3a03008 	mov	r3, #8
    7d88:	e50b3014 	str	r3, [fp, #-20]	; 0xffffffec
    7d8c:	ea000010 	b	7dd4 <crc32+0xa8>
    7d90:	e51b3010 	ldr	r3, [fp, #-16]
    7d94:	e3530000 	cmp	r3, #0
    7d98:	aa000005 	bge	7db4 <crc32+0x88>
    7d9c:	e51b3010 	ldr	r3, [fp, #-16]
    7da0:	e1a02083 	lsl	r2, r3, #1
    7da4:	e59f3108 	ldr	r3, [pc, #264]	; 7eb4 <crc32+0x188>
    7da8:	e0223003 	eor	r3, r2, r3
    7dac:	e50b3034 	str	r3, [fp, #-52]	; 0xffffffcc
    7db0:	ea000002 	b	7dc0 <crc32+0x94>
    7db4:	e51b3010 	ldr	r3, [fp, #-16]
    7db8:	e1a03083 	lsl	r3, r3, #1
    7dbc:	e50b3034 	str	r3, [fp, #-52]	; 0xffffffcc
    7dc0:	e51b3034 	ldr	r3, [fp, #-52]	; 0xffffffcc
    7dc4:	e50b3010 	str	r3, [fp, #-16]
    7dc8:	e51b3014 	ldr	r3, [fp, #-20]	; 0xffffffec
    7dcc:	e2433001 	sub	r3, r3, #1
    7dd0:	e50b3014 	str	r3, [fp, #-20]	; 0xffffffec
    7dd4:	e51b3014 	ldr	r3, [fp, #-20]	; 0xffffffec
    7dd8:	e3530000 	cmp	r3, #0
    7ddc:	1affffeb 	bne	7d90 <crc32+0x64>
    7de0:	e51b1018 	ldr	r1, [fp, #-24]	; 0xffffffe8
    7de4:	e59f20cc 	ldr	r2, [pc, #204]	; 7eb8 <crc32+0x18c>
    7de8:	e51b3010 	ldr	r3, [fp, #-16]
    7dec:	e7823101 	str	r3, [r2, r1, lsl #2]
    7df0:	e51b3018 	ldr	r3, [fp, #-24]	; 0xffffffe8
    7df4:	e2833001 	add	r3, r3, #1
    7df8:	e50b3018 	str	r3, [fp, #-24]	; 0xffffffe8
    7dfc:	e51b3018 	ldr	r3, [fp, #-24]	; 0xffffffe8
    7e00:	e35300ff 	cmp	r3, #255	; 0xff
    7e04:	9affffdb 	bls	7d78 <crc32+0x4c>
    7e08:	e59f20ac 	ldr	r2, [pc, #172]	; 7ebc <crc32+0x190>
    7e0c:	e3a03000 	mov	r3, #0
    7e10:	e5823000 	str	r3, [r2]
    7e14:	ea000016 	b	7e74 <crc32+0x148>
    7e18:	e24b301d 	sub	r3, fp, #29
    7e1c:	e1a00003 	mov	r0, r3
    7e20:	e51b101c 	ldr	r1, [fp, #-28]	; 0xffffffe4
    7e24:	e3a02001 	mov	r2, #1
    7e28:	eb0008c7 	bl	a14c <__read_mem_safe>
    7e2c:	e59f3088 	ldr	r3, [pc, #136]	; 7ebc <crc32+0x190>
    7e30:	e5933000 	ldr	r3, [r3]
    7e34:	e3530000 	cmp	r3, #0
    7e38:	1a000017 	bne	7e9c <crc32+0x170>
    7e3c:	e51b3030 	ldr	r3, [fp, #-48]	; 0xffffffd0
    7e40:	e1a01403 	lsl	r1, r3, #8
    7e44:	e51b3030 	ldr	r3, [fp, #-48]	; 0xffffffd0
    7e48:	e1a02c23 	lsr	r2, r3, #24
    7e4c:	e55b301d 	ldrb	r3, [fp, #-29]	; 0xffffffe3
    7e50:	e0223003 	eor	r3, r2, r3
    7e54:	e20320ff 	and	r2, r3, #255	; 0xff
    7e58:	e59f3058 	ldr	r3, [pc, #88]	; 7eb8 <crc32+0x18c>
    7e5c:	e7933102 	ldr	r3, [r3, r2, lsl #2]
    7e60:	e0213003 	eor	r3, r1, r3
    7e64:	e50b3030 	str	r3, [fp, #-48]	; 0xffffffd0
    7e68:	e51b301c 	ldr	r3, [fp, #-28]	; 0xffffffe4
    7e6c:	e2833001 	add	r3, r3, #1
    7e70:	e50b301c 	str	r3, [fp, #-28]	; 0xffffffe4
    7e74:	e51b302c 	ldr	r3, [fp, #-44]	; 0xffffffd4
    7e78:	e3530000 	cmp	r3, #0
    7e7c:	03a03000 	moveq	r3, #0
    7e80:	13a03001 	movne	r3, #1
    7e84:	e20320ff 	and	r2, r3, #255	; 0xff
    7e88:	e51b302c 	ldr	r3, [fp, #-44]	; 0xffffffd4
    7e8c:	e2433001 	sub	r3, r3, #1
    7e90:	e50b302c 	str	r3, [fp, #-44]	; 0xffffffd4
    7e94:	e3520000 	cmp	r2, #0
    7e98:	1affffde 	bne	7e18 <crc32+0xec>
    7e9c:	e51b3030 	ldr	r3, [fp, #-48]	; 0xffffffd0
    7ea0:	e1a00003 	mov	r0, r3
    7ea4:	e24bd00c 	sub	sp, fp, #12
    7ea8:	e89d6800 	ldm	sp, {fp, sp, lr}
    7eac:	e12fff1e 	bx	lr
    7eb0:	81002d94 	.word	0x81002d94
    7eb4:	04c11db7 	.word	0x04c11db7
    7eb8:	81002da8 	.word	0x81002da8
    7ebc:	81002d8c 	.word	0x81002d8c

00007ec0 <process_query>:
    7ec0:	e1a0c00d 	mov	ip, sp
    7ec4:	e92dd800 	push	{fp, ip, lr, pc}
    7ec8:	e24cb004 	sub	fp, ip, #4
    7ecc:	e24dd020 	sub	sp, sp, #32
    7ed0:	e50b0028 	str	r0, [fp, #-40]	; 0xffffffd8
    7ed4:	e59f21e8 	ldr	r2, [pc, #488]	; 80c4 <process_query+0x204>
    7ed8:	e3a03000 	mov	r3, #0
    7edc:	e5c23000 	strb	r3, [r2]
    7ee0:	e51b3028 	ldr	r3, [fp, #-40]	; 0xffffffd8
    7ee4:	e5d33000 	ldrb	r3, [r3]
    7ee8:	e3530043 	cmp	r3, #67	; 0x43
    7eec:	1a00004b 	bne	8020 <process_query+0x160>
    7ef0:	e51b3028 	ldr	r3, [fp, #-40]	; 0xffffffd8
    7ef4:	e2833001 	add	r3, r3, #1
    7ef8:	e5d33000 	ldrb	r3, [r3]
    7efc:	e3530052 	cmp	r3, #82	; 0x52
    7f00:	1a000046 	bne	8020 <process_query+0x160>
    7f04:	e51b3028 	ldr	r3, [fp, #-40]	; 0xffffffd8
    7f08:	e2833002 	add	r3, r3, #2
    7f0c:	e5d33000 	ldrb	r3, [r3]
    7f10:	e3530043 	cmp	r3, #67	; 0x43
    7f14:	1a000041 	bne	8020 <process_query+0x160>
    7f18:	e51b3028 	ldr	r3, [fp, #-40]	; 0xffffffd8
    7f1c:	e2833003 	add	r3, r3, #3
    7f20:	e5d33000 	ldrb	r3, [r3]
    7f24:	e353003a 	cmp	r3, #58	; 0x3a
    7f28:	1a00003c 	bne	8020 <process_query+0x160>
    7f2c:	e51b3028 	ldr	r3, [fp, #-40]	; 0xffffffd8
    7f30:	e2833004 	add	r3, r3, #4
    7f34:	e50b3028 	str	r3, [fp, #-40]	; 0xffffffd8
    7f38:	e24b3028 	sub	r3, fp, #40	; 0x28
    7f3c:	e24b2020 	sub	r2, fp, #32
    7f40:	e1a00003 	mov	r0, r3
    7f44:	e1a01002 	mov	r1, r2
    7f48:	ebfff9fc 	bl	6740 <__hexToAddr>
    7f4c:	e1a03000 	mov	r3, r0
    7f50:	e3530000 	cmp	r3, #0
    7f54:	0a000057 	beq	80b8 <process_query+0x1f8>
    7f58:	e51b1028 	ldr	r1, [fp, #-40]	; 0xffffffd8
    7f5c:	e5d13000 	ldrb	r3, [r1]
    7f60:	e353002c 	cmp	r3, #44	; 0x2c
    7f64:	13a03000 	movne	r3, #0
    7f68:	03a03001 	moveq	r3, #1
    7f6c:	e20320ff 	and	r2, r3, #255	; 0xff
    7f70:	e2813001 	add	r3, r1, #1
    7f74:	e50b3028 	str	r3, [fp, #-40]	; 0xffffffd8
    7f78:	e3520000 	cmp	r2, #0
    7f7c:	0a00004d 	beq	80b8 <process_query+0x1f8>
    7f80:	e24b3028 	sub	r3, fp, #40	; 0x28
    7f84:	e24b2024 	sub	r2, fp, #36	; 0x24
    7f88:	e1a00003 	mov	r0, r3
    7f8c:	e1a01002 	mov	r1, r2
    7f90:	ebfff9bb 	bl	6684 <__hexToInt>
    7f94:	e1a03000 	mov	r3, r0
    7f98:	e3530000 	cmp	r3, #0
    7f9c:	0a000045 	beq	80b8 <process_query+0x1f8>
    7fa0:	e51b2020 	ldr	r2, [fp, #-32]	; 0xffffffe0
    7fa4:	e51b3024 	ldr	r3, [fp, #-36]	; 0xffffffdc
    7fa8:	e1a00002 	mov	r0, r2
    7fac:	e1a01003 	mov	r1, r3
    7fb0:	e3e02000 	mvn	r2, #0
    7fb4:	ebffff5c 	bl	7d2c <crc32>
    7fb8:	e1a03000 	mov	r3, r0
    7fbc:	e50b301c 	str	r3, [fp, #-28]	; 0xffffffe4
    7fc0:	e59f3100 	ldr	r3, [pc, #256]	; 80c8 <process_query+0x208>
    7fc4:	e5933000 	ldr	r3, [r3]
    7fc8:	e3530000 	cmp	r3, #0
    7fcc:	0a000004 	beq	7fe4 <process_query+0x124>
    7fd0:	e59f00ec 	ldr	r0, [pc, #236]	; 80c4 <process_query+0x204>
    7fd4:	e59f10f0 	ldr	r1, [pc, #240]	; 80cc <process_query+0x20c>
    7fd8:	e3a02004 	mov	r2, #4
    7fdc:	eb001462 	bl	d16c <_memcpy>
    7fe0:	ea000034 	b	80b8 <process_query+0x1f8>
    7fe4:	e59f00e4 	ldr	r0, [pc, #228]	; 80d0 <process_query+0x210>
    7fe8:	e51b101c 	ldr	r1, [fp, #-28]	; 0xffffffe4
    7fec:	e3a02020 	mov	r2, #32
    7ff0:	ebfffa01 	bl	67fc <__intToHex>
    7ff4:	e1a03000 	mov	r3, r0
    7ff8:	e50b3018 	str	r3, [fp, #-24]	; 0xffffffe8
    7ffc:	e59f20c0 	ldr	r2, [pc, #192]	; 80c4 <process_query+0x204>
    8000:	e3a03043 	mov	r3, #67	; 0x43
    8004:	e5c23000 	strb	r3, [r2]
    8008:	e51b3018 	ldr	r3, [fp, #-24]	; 0xffffffe8
    800c:	e2831001 	add	r1, r3, #1
    8010:	e59f20ac 	ldr	r2, [pc, #172]	; 80c4 <process_query+0x204>
    8014:	e3a03000 	mov	r3, #0
    8018:	e7c23001 	strb	r3, [r2, r1]
    801c:	ea000025 	b	80b8 <process_query+0x1f8>
    8020:	e51b3028 	ldr	r3, [fp, #-40]	; 0xffffffd8
    8024:	e5d33000 	ldrb	r3, [r3]
    8028:	e54b3011 	strb	r3, [fp, #-17]	; 0xffffffef
    802c:	e51b3028 	ldr	r3, [fp, #-40]	; 0xffffffd8
    8030:	e2833001 	add	r3, r3, #1
    8034:	e50b3010 	str	r3, [fp, #-16]
    8038:	e55b3011 	ldrb	r3, [fp, #-17]	; 0xffffffef
    803c:	e50b302c 	str	r3, [fp, #-44]	; 0xffffffd4
    8040:	e51b302c 	ldr	r3, [fp, #-44]	; 0xffffffd4
    8044:	e353004c 	cmp	r3, #76	; 0x4c
    8048:	0a000006 	beq	8068 <process_query+0x1a8>
    804c:	e51b302c 	ldr	r3, [fp, #-44]	; 0xffffffd4
    8050:	e3530050 	cmp	r3, #80	; 0x50
    8054:	0a000008 	beq	807c <process_query+0x1bc>
    8058:	e51b302c 	ldr	r3, [fp, #-44]	; 0xffffffd4
    805c:	e3530043 	cmp	r3, #67	; 0x43
    8060:	0a00000a 	beq	8090 <process_query+0x1d0>
    8064:	ea00000e 	b	80a4 <process_query+0x1e4>
    8068:	e51b0010 	ldr	r0, [fp, #-16]
    806c:	e59f1050 	ldr	r1, [pc, #80]	; 80c4 <process_query+0x204>
    8070:	e3a02f4b 	mov	r2, #300	; 0x12c
    8074:	eb0003c3 	bl	8f88 <stub_pkt_getthreadlist>
    8078:	ea00000e 	b	80b8 <process_query+0x1f8>
    807c:	e51b0010 	ldr	r0, [fp, #-16]
    8080:	e59f103c 	ldr	r1, [pc, #60]	; 80c4 <process_query+0x204>
    8084:	e3a02f4b 	mov	r2, #300	; 0x12c
    8088:	eb00042e 	bl	9148 <stub_pkt_getthreadinfo>
    808c:	ea000009 	b	80b8 <process_query+0x1f8>
    8090:	e51b0010 	ldr	r0, [fp, #-16]
    8094:	e59f1028 	ldr	r1, [pc, #40]	; 80c4 <process_query+0x204>
    8098:	e3a02b02 	mov	r2, #2048	; 0x800
    809c:	eb000298 	bl	8b04 <stub_pkt_currthread>
    80a0:	ea000004 	b	80b8 <process_query+0x1f8>
    80a4:	e51b3028 	ldr	r3, [fp, #-40]	; 0xffffffd8
    80a8:	e1a00003 	mov	r0, r3
    80ac:	e59f1010 	ldr	r1, [pc, #16]	; 80c4 <process_query+0x204>
    80b0:	e3a02f4b 	mov	r2, #300	; 0x12c
    80b4:	eb000854 	bl	a20c <__process_target_query>
    80b8:	e24bd00c 	sub	sp, fp, #12
    80bc:	e89d6800 	ldm	sp, {fp, sp, lr}
    80c0:	e12fff1e 	bx	lr
    80c4:	81004568 	.word	0x81004568
    80c8:	81002d8c 	.word	0x81002d8c
    80cc:	00015ae4 	.word	0x00015ae4
    80d0:	81004569 	.word	0x81004569

000080d4 <process_set>:
    80d4:	e1a0c00d 	mov	ip, sp
    80d8:	e92dd800 	push	{fp, ip, lr, pc}
    80dc:	e24cb004 	sub	fp, ip, #4
    80e0:	e24dd010 	sub	sp, sp, #16
    80e4:	e50b0018 	str	r0, [fp, #-24]	; 0xffffffe8
    80e8:	e51b3018 	ldr	r3, [fp, #-24]	; 0xffffffe8
    80ec:	e5d33000 	ldrb	r3, [r3]
    80f0:	e54b300d 	strb	r3, [fp, #-13]
    80f4:	e55b300d 	ldrb	r3, [fp, #-13]
    80f8:	e3530070 	cmp	r3, #112	; 0x70
    80fc:	1a000004 	bne	8114 <process_set+0x40>
    8100:	e51b0018 	ldr	r0, [fp, #-24]	; 0xffffffe8
    8104:	e59f1024 	ldr	r1, [pc, #36]	; 8130 <process_set+0x5c>
    8108:	e3a02f4b 	mov	r2, #300	; 0x12c
    810c:	eb0002f4 	bl	8ce4 <stub_pkt_changethread>
    8110:	ea000003 	b	8124 <process_set+0x50>
    8114:	e51b0018 	ldr	r0, [fp, #-24]	; 0xffffffe8
    8118:	e59f1010 	ldr	r1, [pc, #16]	; 8130 <process_set+0x5c>
    811c:	e3a02f4b 	mov	r2, #300	; 0x12c
    8120:	eb000845 	bl	a23c <__process_target_set>
    8124:	e24bd00c 	sub	sp, fp, #12
    8128:	e89d6800 	ldm	sp, {fp, sp, lr}
    812c:	e12fff1e 	bx	lr
    8130:	81004568 	.word	0x81004568

00008134 <stub_copy_registers>:
    8134:	e1a0c00d 	mov	ip, sp
    8138:	e92dd800 	push	{fp, ip, lr, pc}
    813c:	e24cb004 	sub	fp, ip, #4
    8140:	e24dd010 	sub	sp, sp, #16
    8144:	e50b0018 	str	r0, [fp, #-24]	; 0xffffffe8
    8148:	e50b101c 	str	r1, [fp, #-28]	; 0xffffffe4
    814c:	e51b3018 	ldr	r3, [fp, #-24]	; 0xffffffe8
    8150:	e2833068 	add	r3, r3, #104	; 0x68
    8154:	e50b3010 	str	r3, [fp, #-16]
    8158:	ea000009 	b	8184 <stub_copy_registers+0x50>
    815c:	e51b301c 	ldr	r3, [fp, #-28]	; 0xffffffe4
    8160:	e5932000 	ldr	r2, [r3]
    8164:	e51b3018 	ldr	r3, [fp, #-24]	; 0xffffffe8
    8168:	e5832000 	str	r2, [r3]
    816c:	e51b3018 	ldr	r3, [fp, #-24]	; 0xffffffe8
    8170:	e2833004 	add	r3, r3, #4
    8174:	e50b3018 	str	r3, [fp, #-24]	; 0xffffffe8
    8178:	e51b301c 	ldr	r3, [fp, #-28]	; 0xffffffe4
    817c:	e2833004 	add	r3, r3, #4
    8180:	e50b301c 	str	r3, [fp, #-28]	; 0xffffffe4
    8184:	e51b2018 	ldr	r2, [fp, #-24]	; 0xffffffe8
    8188:	e51b3010 	ldr	r3, [fp, #-16]
    818c:	e1520003 	cmp	r2, r3
    8190:	3afffff1 	bcc	815c <stub_copy_registers+0x28>
    8194:	e24bd00c 	sub	sp, fp, #12
    8198:	e89d6800 	ldm	sp, {fp, sp, lr}
    819c:	e12fff1e 	bx	lr

000081a0 <stub_pack_nak>:
    81a0:	e1a0c00d 	mov	ip, sp
    81a4:	e92dd800 	push	{fp, ip, lr, pc}
    81a8:	e24cb004 	sub	fp, ip, #4
    81ac:	e24dd008 	sub	sp, sp, #8
    81b0:	e50b0010 	str	r0, [fp, #-16]
    81b4:	e51b2010 	ldr	r2, [fp, #-16]
    81b8:	e3a03045 	mov	r3, #69	; 0x45
    81bc:	e5c23000 	strb	r3, [r2]
    81c0:	e51b3010 	ldr	r3, [fp, #-16]
    81c4:	e2833001 	add	r3, r3, #1
    81c8:	e50b3010 	str	r3, [fp, #-16]
    81cc:	e51b2010 	ldr	r2, [fp, #-16]
    81d0:	e3a03030 	mov	r3, #48	; 0x30
    81d4:	e5c23000 	strb	r3, [r2]
    81d8:	e51b3010 	ldr	r3, [fp, #-16]
    81dc:	e2833001 	add	r3, r3, #1
    81e0:	e50b3010 	str	r3, [fp, #-16]
    81e4:	e51b2010 	ldr	r2, [fp, #-16]
    81e8:	e3a03032 	mov	r3, #50	; 0x32
    81ec:	e5c23000 	strb	r3, [r2]
    81f0:	e51b3010 	ldr	r3, [fp, #-16]
    81f4:	e2833001 	add	r3, r3, #1
    81f8:	e50b3010 	str	r3, [fp, #-16]
    81fc:	e51b3010 	ldr	r3, [fp, #-16]
    8200:	e1a00003 	mov	r0, r3
    8204:	e24bd00c 	sub	sp, fp, #12
    8208:	e89d6800 	ldm	sp, {fp, sp, lr}
    820c:	e12fff1e 	bx	lr

00008210 <stub_pack_ack>:
    8210:	e1a0c00d 	mov	ip, sp
    8214:	e92dd800 	push	{fp, ip, lr, pc}
    8218:	e24cb004 	sub	fp, ip, #4
    821c:	e24dd008 	sub	sp, sp, #8
    8220:	e50b0010 	str	r0, [fp, #-16]
    8224:	e51b2010 	ldr	r2, [fp, #-16]
    8228:	e3a0304f 	mov	r3, #79	; 0x4f
    822c:	e5c23000 	strb	r3, [r2]
    8230:	e51b3010 	ldr	r3, [fp, #-16]
    8234:	e2833001 	add	r3, r3, #1
    8238:	e50b3010 	str	r3, [fp, #-16]
    823c:	e51b2010 	ldr	r2, [fp, #-16]
    8240:	e3a0304b 	mov	r3, #75	; 0x4b
    8244:	e5c23000 	strb	r3, [r2]
    8248:	e51b3010 	ldr	r3, [fp, #-16]
    824c:	e2833001 	add	r3, r3, #1
    8250:	e50b3010 	str	r3, [fp, #-16]
    8254:	e51b3010 	ldr	r3, [fp, #-16]
    8258:	e1a00003 	mov	r0, r3
    825c:	e24bd00c 	sub	sp, fp, #12
    8260:	e89d6800 	ldm	sp, {fp, sp, lr}
    8264:	e12fff1e 	bx	lr

00008268 <stub_unpack_int>:
    8268:	e1a0c00d 	mov	ip, sp
    826c:	e92dd800 	push	{fp, ip, lr, pc}
    8270:	e24cb004 	sub	fp, ip, #4
    8274:	e24dd010 	sub	sp, sp, #16
    8278:	e50b0018 	str	r0, [fp, #-24]	; 0xffffffe8
    827c:	e50b101c 	str	r1, [fp, #-28]	; 0xffffffe4
    8280:	e3a03000 	mov	r3, #0
    8284:	e50b3014 	str	r3, [fp, #-20]	; 0xffffffec
    8288:	ea000015 	b	82e4 <stub_unpack_int+0x7c>
    828c:	e51b3018 	ldr	r3, [fp, #-24]	; 0xffffffe8
    8290:	e5d32000 	ldrb	r2, [r3]
    8294:	e51b3018 	ldr	r3, [fp, #-24]	; 0xffffffe8
    8298:	e2833001 	add	r3, r3, #1
    829c:	e50b3018 	str	r3, [fp, #-24]	; 0xffffffe8
    82a0:	e1a00002 	mov	r0, r2
    82a4:	ebfff5da 	bl	5a14 <stubhex>
    82a8:	e1a03000 	mov	r3, r0
    82ac:	e50b3010 	str	r3, [fp, #-16]
    82b0:	e51b2014 	ldr	r2, [fp, #-20]	; 0xffffffec
    82b4:	e51b3010 	ldr	r3, [fp, #-16]
    82b8:	e1823003 	orr	r3, r2, r3
    82bc:	e50b3014 	str	r3, [fp, #-20]	; 0xffffffec
    82c0:	e51b301c 	ldr	r3, [fp, #-28]	; 0xffffffe4
    82c4:	e2433001 	sub	r3, r3, #1
    82c8:	e50b301c 	str	r3, [fp, #-28]	; 0xffffffe4
    82cc:	e51b301c 	ldr	r3, [fp, #-28]	; 0xffffffe4
    82d0:	e3530000 	cmp	r3, #0
    82d4:	0a000002 	beq	82e4 <stub_unpack_int+0x7c>
    82d8:	e51b3014 	ldr	r3, [fp, #-20]	; 0xffffffec
    82dc:	e1a03203 	lsl	r3, r3, #4
    82e0:	e50b3014 	str	r3, [fp, #-20]	; 0xffffffec
    82e4:	e51b301c 	ldr	r3, [fp, #-28]	; 0xffffffe4
    82e8:	e3530000 	cmp	r3, #0
    82ec:	1affffe6 	bne	828c <stub_unpack_int+0x24>
    82f0:	e51b3014 	ldr	r3, [fp, #-20]	; 0xffffffec
    82f4:	e1a00003 	mov	r0, r3
    82f8:	e24bd00c 	sub	sp, fp, #12
    82fc:	e89d6800 	ldm	sp, {fp, sp, lr}
    8300:	e12fff1e 	bx	lr

00008304 <unpack_byte>:
    8304:	e1a0c00d 	mov	ip, sp
    8308:	e92dd800 	push	{fp, ip, lr, pc}
    830c:	e24cb004 	sub	fp, ip, #4
    8310:	e24dd008 	sub	sp, sp, #8
    8314:	e50b0010 	str	r0, [fp, #-16]
    8318:	e50b1014 	str	r1, [fp, #-20]	; 0xffffffec
    831c:	e51b0010 	ldr	r0, [fp, #-16]
    8320:	e3a01002 	mov	r1, #2
    8324:	ebffffcf 	bl	8268 <stub_unpack_int>
    8328:	e1a02000 	mov	r2, r0
    832c:	e51b3014 	ldr	r3, [fp, #-20]	; 0xffffffec
    8330:	e5832000 	str	r2, [r3]
    8334:	e51b3010 	ldr	r3, [fp, #-16]
    8338:	e2833002 	add	r3, r3, #2
    833c:	e1a00003 	mov	r0, r3
    8340:	e24bd00c 	sub	sp, fp, #12
    8344:	e89d6800 	ldm	sp, {fp, sp, lr}
    8348:	e12fff1e 	bx	lr

0000834c <unpack_int>:
    834c:	e1a0c00d 	mov	ip, sp
    8350:	e92dd800 	push	{fp, ip, lr, pc}
    8354:	e24cb004 	sub	fp, ip, #4
    8358:	e24dd008 	sub	sp, sp, #8
    835c:	e50b0010 	str	r0, [fp, #-16]
    8360:	e50b1014 	str	r1, [fp, #-20]	; 0xffffffec
    8364:	e51b0010 	ldr	r0, [fp, #-16]
    8368:	e3a01008 	mov	r1, #8
    836c:	ebffffbd 	bl	8268 <stub_unpack_int>
    8370:	e1a02000 	mov	r2, r0
    8374:	e51b3014 	ldr	r3, [fp, #-20]	; 0xffffffec
    8378:	e5832000 	str	r2, [r3]
    837c:	e51b3010 	ldr	r3, [fp, #-16]
    8380:	e2833008 	add	r3, r3, #8
    8384:	e1a00003 	mov	r0, r3
    8388:	e24bd00c 	sub	sp, fp, #12
    838c:	e89d6800 	ldm	sp, {fp, sp, lr}
    8390:	e12fff1e 	bx	lr

00008394 <ishex>:
    8394:	e1a0c00d 	mov	ip, sp
    8398:	e92dd800 	push	{fp, ip, lr, pc}
    839c:	e24cb004 	sub	fp, ip, #4
    83a0:	e24dd010 	sub	sp, sp, #16
    83a4:	e1a03000 	mov	r3, r0
    83a8:	e50b1014 	str	r1, [fp, #-20]	; 0xffffffec
    83ac:	e54b300d 	strb	r3, [fp, #-13]
    83b0:	e55b300d 	ldrb	r3, [fp, #-13]
    83b4:	e3530060 	cmp	r3, #96	; 0x60
    83b8:	9a000009 	bls	83e4 <ishex+0x50>
    83bc:	e55b300d 	ldrb	r3, [fp, #-13]
    83c0:	e3530066 	cmp	r3, #102	; 0x66
    83c4:	8a000006 	bhi	83e4 <ishex+0x50>
    83c8:	e55b300d 	ldrb	r3, [fp, #-13]
    83cc:	e2432057 	sub	r2, r3, #87	; 0x57
    83d0:	e51b3014 	ldr	r3, [fp, #-20]	; 0xffffffec
    83d4:	e5832000 	str	r2, [r3]
    83d8:	e3a03001 	mov	r3, #1
    83dc:	e50b3018 	str	r3, [fp, #-24]	; 0xffffffe8
    83e0:	ea00001b 	b	8454 <ishex+0xc0>
    83e4:	e55b300d 	ldrb	r3, [fp, #-13]
    83e8:	e3530040 	cmp	r3, #64	; 0x40
    83ec:	9a000009 	bls	8418 <ishex+0x84>
    83f0:	e55b300d 	ldrb	r3, [fp, #-13]
    83f4:	e3530046 	cmp	r3, #70	; 0x46
    83f8:	8a000006 	bhi	8418 <ishex+0x84>
    83fc:	e55b300d 	ldrb	r3, [fp, #-13]
    8400:	e2432037 	sub	r2, r3, #55	; 0x37
    8404:	e51b3014 	ldr	r3, [fp, #-20]	; 0xffffffec
    8408:	e5832000 	str	r2, [r3]
    840c:	e3a03001 	mov	r3, #1
    8410:	e50b3018 	str	r3, [fp, #-24]	; 0xffffffe8
    8414:	ea00000e 	b	8454 <ishex+0xc0>
    8418:	e55b300d 	ldrb	r3, [fp, #-13]
    841c:	e353002f 	cmp	r3, #47	; 0x2f
    8420:	9a000009 	bls	844c <ishex+0xb8>
    8424:	e55b300d 	ldrb	r3, [fp, #-13]
    8428:	e3530039 	cmp	r3, #57	; 0x39
    842c:	8a000006 	bhi	844c <ishex+0xb8>
    8430:	e55b300d 	ldrb	r3, [fp, #-13]
    8434:	e2432030 	sub	r2, r3, #48	; 0x30
    8438:	e51b3014 	ldr	r3, [fp, #-20]	; 0xffffffec
    843c:	e5832000 	str	r2, [r3]
    8440:	e3a03001 	mov	r3, #1
    8444:	e50b3018 	str	r3, [fp, #-24]	; 0xffffffe8
    8448:	ea000001 	b	8454 <ishex+0xc0>
    844c:	e3a03000 	mov	r3, #0
    8450:	e50b3018 	str	r3, [fp, #-24]	; 0xffffffe8
    8454:	e51b3018 	ldr	r3, [fp, #-24]	; 0xffffffe8
    8458:	e1a00003 	mov	r0, r3
    845c:	e24bd00c 	sub	sp, fp, #12
    8460:	e89d6800 	ldm	sp, {fp, sp, lr}
    8464:	e12fff1e 	bx	lr

00008468 <unpack_nibble>:
    8468:	e1a0c00d 	mov	ip, sp
    846c:	e92dd800 	push	{fp, ip, lr, pc}
    8470:	e24cb004 	sub	fp, ip, #4
    8474:	e24dd008 	sub	sp, sp, #8
    8478:	e50b0010 	str	r0, [fp, #-16]
    847c:	e50b1014 	str	r1, [fp, #-20]	; 0xffffffec
    8480:	e51b3010 	ldr	r3, [fp, #-16]
    8484:	e5d32000 	ldrb	r2, [r3]
    8488:	e51b3010 	ldr	r3, [fp, #-16]
    848c:	e2833001 	add	r3, r3, #1
    8490:	e50b3010 	str	r3, [fp, #-16]
    8494:	e1a00002 	mov	r0, r2
    8498:	e51b1014 	ldr	r1, [fp, #-20]	; 0xffffffec
    849c:	ebffffbc 	bl	8394 <ishex>
    84a0:	e51b3010 	ldr	r3, [fp, #-16]
    84a4:	e1a00003 	mov	r0, r3
    84a8:	e24bd00c 	sub	sp, fp, #12
    84ac:	e89d6800 	ldm	sp, {fp, sp, lr}
    84b0:	e12fff1e 	bx	lr

000084b4 <pack_hex_byte>:
    84b4:	e1a0c00d 	mov	ip, sp
    84b8:	e92dd800 	push	{fp, ip, lr, pc}
    84bc:	e24cb004 	sub	fp, ip, #4
    84c0:	e24dd008 	sub	sp, sp, #8
    84c4:	e50b0010 	str	r0, [fp, #-16]
    84c8:	e1a03001 	mov	r3, r1
    84cc:	e54b3011 	strb	r3, [fp, #-17]	; 0xffffffef
    84d0:	e55b3011 	ldrb	r3, [fp, #-17]	; 0xffffffef
    84d4:	e1a03223 	lsr	r3, r3, #4
    84d8:	e20330ff 	and	r3, r3, #255	; 0xff
    84dc:	e1a02003 	mov	r2, r3
    84e0:	e59f304c 	ldr	r3, [pc, #76]	; 8534 <pack_hex_byte+0x80>
    84e4:	e7d33002 	ldrb	r3, [r3, r2]
    84e8:	e51b2010 	ldr	r2, [fp, #-16]
    84ec:	e5c23000 	strb	r3, [r2]
    84f0:	e51b3010 	ldr	r3, [fp, #-16]
    84f4:	e2833001 	add	r3, r3, #1
    84f8:	e50b3010 	str	r3, [fp, #-16]
    84fc:	e55b3011 	ldrb	r3, [fp, #-17]	; 0xffffffef
    8500:	e203200f 	and	r2, r3, #15
    8504:	e59f3028 	ldr	r3, [pc, #40]	; 8534 <pack_hex_byte+0x80>
    8508:	e7d33002 	ldrb	r3, [r3, r2]
    850c:	e51b2010 	ldr	r2, [fp, #-16]
    8510:	e5c23000 	strb	r3, [r2]
    8514:	e51b3010 	ldr	r3, [fp, #-16]
    8518:	e2833001 	add	r3, r3, #1
    851c:	e50b3010 	str	r3, [fp, #-16]
    8520:	e51b3010 	ldr	r3, [fp, #-16]
    8524:	e1a00003 	mov	r0, r3
    8528:	e24bd00c 	sub	sp, fp, #12
    852c:	e89d6800 	ldm	sp, {fp, sp, lr}
    8530:	e12fff1e 	bx	lr
    8534:	00015af4 	.word	0x00015af4

00008538 <unpack_varlen_hex>:
    8538:	e1a0c00d 	mov	ip, sp
    853c:	e92dd800 	push	{fp, ip, lr, pc}
    8540:	e24cb004 	sub	fp, ip, #4
    8544:	e24dd010 	sub	sp, sp, #16
    8548:	e50b0018 	str	r0, [fp, #-24]	; 0xffffffe8
    854c:	e50b101c 	str	r1, [fp, #-28]	; 0xffffffe4
    8550:	e3a03000 	mov	r3, #0
    8554:	e50b3010 	str	r3, [fp, #-16]
    8558:	ea00000a 	b	8588 <unpack_varlen_hex+0x50>
    855c:	e51b3018 	ldr	r3, [fp, #-24]	; 0xffffffe8
    8560:	e2833001 	add	r3, r3, #1
    8564:	e50b3018 	str	r3, [fp, #-24]	; 0xffffffe8
    8568:	e51b3010 	ldr	r3, [fp, #-16]
    856c:	e1a03203 	lsl	r3, r3, #4
    8570:	e50b3010 	str	r3, [fp, #-16]
    8574:	e51b3014 	ldr	r3, [fp, #-20]	; 0xffffffec
    8578:	e203200f 	and	r2, r3, #15
    857c:	e51b3010 	ldr	r3, [fp, #-16]
    8580:	e1833002 	orr	r3, r3, r2
    8584:	e50b3010 	str	r3, [fp, #-16]
    8588:	e51b3018 	ldr	r3, [fp, #-24]	; 0xffffffe8
    858c:	e5d33000 	ldrb	r3, [r3]
    8590:	e24b2014 	sub	r2, fp, #20
    8594:	e1a00003 	mov	r0, r3
    8598:	e1a01002 	mov	r1, r2
    859c:	ebffff7c 	bl	8394 <ishex>
    85a0:	e1a03000 	mov	r3, r0
    85a4:	e3530000 	cmp	r3, #0
    85a8:	1affffeb 	bne	855c <unpack_varlen_hex+0x24>
    85ac:	e51b201c 	ldr	r2, [fp, #-28]	; 0xffffffe4
    85b0:	e51b3010 	ldr	r3, [fp, #-16]
    85b4:	e5823000 	str	r3, [r2]
    85b8:	e51b3018 	ldr	r3, [fp, #-24]	; 0xffffffe8
    85bc:	e1a00003 	mov	r0, r3
    85c0:	e24bd00c 	sub	sp, fp, #12
    85c4:	e89d6800 	ldm	sp, {fp, sp, lr}
    85c8:	e12fff1e 	bx	lr

000085cc <unpack_threadid>:
    85cc:	e1a0c00d 	mov	ip, sp
    85d0:	e92dd800 	push	{fp, ip, lr, pc}
    85d4:	e24cb004 	sub	fp, ip, #4
    85d8:	e24dd018 	sub	sp, sp, #24
    85dc:	e50b0020 	str	r0, [fp, #-32]	; 0xffffffe0
    85e0:	e50b1024 	str	r1, [fp, #-36]	; 0xffffffdc
    85e4:	e51b3020 	ldr	r3, [fp, #-32]	; 0xffffffe0
    85e8:	e2833010 	add	r3, r3, #16
    85ec:	e50b3018 	str	r3, [fp, #-24]	; 0xffffffe8
    85f0:	e51b3024 	ldr	r3, [fp, #-36]	; 0xffffffdc
    85f4:	e50b301c 	str	r3, [fp, #-28]	; 0xffffffe4
    85f8:	ea00001e 	b	8678 <unpack_threadid+0xac>
    85fc:	e51b3020 	ldr	r3, [fp, #-32]	; 0xffffffe0
    8600:	e5d32000 	ldrb	r2, [r3]
    8604:	e51b3020 	ldr	r3, [fp, #-32]	; 0xffffffe0
    8608:	e2833001 	add	r3, r3, #1
    860c:	e50b3020 	str	r3, [fp, #-32]	; 0xffffffe0
    8610:	e1a00002 	mov	r0, r2
    8614:	ebfff4fe 	bl	5a14 <stubhex>
    8618:	e1a03000 	mov	r3, r0
    861c:	e50b3014 	str	r3, [fp, #-20]	; 0xffffffec
    8620:	e51b3020 	ldr	r3, [fp, #-32]	; 0xffffffe0
    8624:	e5d32000 	ldrb	r2, [r3]
    8628:	e51b3020 	ldr	r3, [fp, #-32]	; 0xffffffe0
    862c:	e2833001 	add	r3, r3, #1
    8630:	e50b3020 	str	r3, [fp, #-32]	; 0xffffffe0
    8634:	e1a00002 	mov	r0, r2
    8638:	ebfff4f5 	bl	5a14 <stubhex>
    863c:	e1a03000 	mov	r3, r0
    8640:	e50b3010 	str	r3, [fp, #-16]
    8644:	e51b3014 	ldr	r3, [fp, #-20]	; 0xffffffec
    8648:	e1a03203 	lsl	r3, r3, #4
    864c:	e20320ff 	and	r2, r3, #255	; 0xff
    8650:	e51b3010 	ldr	r3, [fp, #-16]
    8654:	e20330ff 	and	r3, r3, #255	; 0xff
    8658:	e1823003 	orr	r3, r2, r3
    865c:	e20330ff 	and	r3, r3, #255	; 0xff
    8660:	e20330ff 	and	r3, r3, #255	; 0xff
    8664:	e51b201c 	ldr	r2, [fp, #-28]	; 0xffffffe4
    8668:	e5c23000 	strb	r3, [r2]
    866c:	e51b301c 	ldr	r3, [fp, #-28]	; 0xffffffe4
    8670:	e2833001 	add	r3, r3, #1
    8674:	e50b301c 	str	r3, [fp, #-28]	; 0xffffffe4
    8678:	e51b2020 	ldr	r2, [fp, #-32]	; 0xffffffe0
    867c:	e51b3018 	ldr	r3, [fp, #-24]	; 0xffffffe8
    8680:	e1520003 	cmp	r2, r3
    8684:	3affffdc 	bcc	85fc <unpack_threadid+0x30>
    8688:	e51b3020 	ldr	r3, [fp, #-32]	; 0xffffffe0
    868c:	e1a00003 	mov	r0, r3
    8690:	e24bd00c 	sub	sp, fp, #12
    8694:	e89d6800 	ldm	sp, {fp, sp, lr}
    8698:	e12fff1e 	bx	lr

0000869c <pack_int>:
    869c:	e1a0c00d 	mov	ip, sp
    86a0:	e92dd800 	push	{fp, ip, lr, pc}
    86a4:	e24cb004 	sub	fp, ip, #4
    86a8:	e24dd008 	sub	sp, sp, #8
    86ac:	e50b0010 	str	r0, [fp, #-16]
    86b0:	e50b1014 	str	r1, [fp, #-20]	; 0xffffffec
    86b4:	e51b3014 	ldr	r3, [fp, #-20]	; 0xffffffec
    86b8:	e1a03c23 	lsr	r3, r3, #24
    86bc:	e20330ff 	and	r3, r3, #255	; 0xff
    86c0:	e51b0010 	ldr	r0, [fp, #-16]
    86c4:	e1a01003 	mov	r1, r3
    86c8:	ebffff79 	bl	84b4 <pack_hex_byte>
    86cc:	e1a03000 	mov	r3, r0
    86d0:	e50b3010 	str	r3, [fp, #-16]
    86d4:	e51b3014 	ldr	r3, [fp, #-20]	; 0xffffffec
    86d8:	e1a03843 	asr	r3, r3, #16
    86dc:	e20330ff 	and	r3, r3, #255	; 0xff
    86e0:	e51b0010 	ldr	r0, [fp, #-16]
    86e4:	e1a01003 	mov	r1, r3
    86e8:	ebffff71 	bl	84b4 <pack_hex_byte>
    86ec:	e1a03000 	mov	r3, r0
    86f0:	e50b3010 	str	r3, [fp, #-16]
    86f4:	e51b3014 	ldr	r3, [fp, #-20]	; 0xffffffec
    86f8:	e1a03443 	asr	r3, r3, #8
    86fc:	e20330ff 	and	r3, r3, #255	; 0xff
    8700:	e51b0010 	ldr	r0, [fp, #-16]
    8704:	e1a01003 	mov	r1, r3
    8708:	ebffff69 	bl	84b4 <pack_hex_byte>
    870c:	e1a03000 	mov	r3, r0
    8710:	e50b3010 	str	r3, [fp, #-16]
    8714:	e51b3014 	ldr	r3, [fp, #-20]	; 0xffffffec
    8718:	e20330ff 	and	r3, r3, #255	; 0xff
    871c:	e51b0010 	ldr	r0, [fp, #-16]
    8720:	e1a01003 	mov	r1, r3
    8724:	ebffff62 	bl	84b4 <pack_hex_byte>
    8728:	e1a03000 	mov	r3, r0
    872c:	e50b3010 	str	r3, [fp, #-16]
    8730:	e51b3010 	ldr	r3, [fp, #-16]
    8734:	e1a00003 	mov	r0, r3
    8738:	e24bd00c 	sub	sp, fp, #12
    873c:	e89d6800 	ldm	sp, {fp, sp, lr}
    8740:	e12fff1e 	bx	lr

00008744 <pack_string>:
    8744:	e1a0c00d 	mov	ip, sp
    8748:	e92dd800 	push	{fp, ip, lr, pc}
    874c:	e24cb004 	sub	fp, ip, #4
    8750:	e24dd018 	sub	sp, sp, #24
    8754:	e50b0020 	str	r0, [fp, #-32]	; 0xffffffe0
    8758:	e50b1024 	str	r1, [fp, #-36]	; 0xffffffdc
    875c:	e3a03000 	mov	r3, #0
    8760:	e50b3014 	str	r3, [fp, #-20]	; 0xffffffec
    8764:	e51b3024 	ldr	r3, [fp, #-36]	; 0xffffffdc
    8768:	e50b3010 	str	r3, [fp, #-16]
    876c:	ea000002 	b	877c <pack_string+0x38>
    8770:	e51b3014 	ldr	r3, [fp, #-20]	; 0xffffffec
    8774:	e2833001 	add	r3, r3, #1
    8778:	e50b3014 	str	r3, [fp, #-20]	; 0xffffffec
    877c:	e51b3010 	ldr	r3, [fp, #-16]
    8780:	e5d33000 	ldrb	r3, [r3]
    8784:	e3530000 	cmp	r3, #0
    8788:	03a03000 	moveq	r3, #0
    878c:	13a03001 	movne	r3, #1
    8790:	e20320ff 	and	r2, r3, #255	; 0xff
    8794:	e51b3010 	ldr	r3, [fp, #-16]
    8798:	e2833001 	add	r3, r3, #1
    879c:	e50b3010 	str	r3, [fp, #-16]
    87a0:	e3520000 	cmp	r2, #0
    87a4:	1afffff1 	bne	8770 <pack_string+0x2c>
    87a8:	e51b3014 	ldr	r3, [fp, #-20]	; 0xffffffec
    87ac:	e35300c8 	cmp	r3, #200	; 0xc8
    87b0:	da000001 	ble	87bc <pack_string+0x78>
    87b4:	e3a030c8 	mov	r3, #200	; 0xc8
    87b8:	e50b3014 	str	r3, [fp, #-20]	; 0xffffffec
    87bc:	e51b3014 	ldr	r3, [fp, #-20]	; 0xffffffec
    87c0:	e20330ff 	and	r3, r3, #255	; 0xff
    87c4:	e51b0020 	ldr	r0, [fp, #-32]	; 0xffffffe0
    87c8:	e1a01003 	mov	r1, r3
    87cc:	ebffff38 	bl	84b4 <pack_hex_byte>
    87d0:	e1a03000 	mov	r3, r0
    87d4:	e50b3020 	str	r3, [fp, #-32]	; 0xffffffe0
    87d8:	ea000013 	b	882c <pack_string+0xe8>
    87dc:	e51b3024 	ldr	r3, [fp, #-36]	; 0xffffffdc
    87e0:	e5d33000 	ldrb	r3, [r3]
    87e4:	e54b3015 	strb	r3, [fp, #-21]	; 0xffffffeb
    87e8:	e51b3024 	ldr	r3, [fp, #-36]	; 0xffffffdc
    87ec:	e2833001 	add	r3, r3, #1
    87f0:	e50b3024 	str	r3, [fp, #-36]	; 0xffffffdc
    87f4:	e55b3015 	ldrb	r3, [fp, #-21]	; 0xffffffeb
    87f8:	e3530000 	cmp	r3, #0
    87fc:	0a000002 	beq	880c <pack_string+0xc8>
    8800:	e55b3015 	ldrb	r3, [fp, #-21]	; 0xffffffeb
    8804:	e3530023 	cmp	r3, #35	; 0x23
    8808:	1a000001 	bne	8814 <pack_string+0xd0>
    880c:	e3a0302a 	mov	r3, #42	; 0x2a
    8810:	e54b3015 	strb	r3, [fp, #-21]	; 0xffffffeb
    8814:	e51b2020 	ldr	r2, [fp, #-32]	; 0xffffffe0
    8818:	e55b3015 	ldrb	r3, [fp, #-21]	; 0xffffffeb
    881c:	e5c23000 	strb	r3, [r2]
    8820:	e51b3020 	ldr	r3, [fp, #-32]	; 0xffffffe0
    8824:	e2833001 	add	r3, r3, #1
    8828:	e50b3020 	str	r3, [fp, #-32]	; 0xffffffe0
    882c:	e51b3014 	ldr	r3, [fp, #-20]	; 0xffffffec
    8830:	e3530000 	cmp	r3, #0
    8834:	d3a03000 	movle	r3, #0
    8838:	c3a03001 	movgt	r3, #1
    883c:	e20320ff 	and	r2, r3, #255	; 0xff
    8840:	e51b3014 	ldr	r3, [fp, #-20]	; 0xffffffec
    8844:	e2433001 	sub	r3, r3, #1
    8848:	e50b3014 	str	r3, [fp, #-20]	; 0xffffffec
    884c:	e3520000 	cmp	r2, #0
    8850:	1affffe1 	bne	87dc <pack_string+0x98>
    8854:	e51b3020 	ldr	r3, [fp, #-32]	; 0xffffffe0
    8858:	e1a00003 	mov	r0, r3
    885c:	e24bd00c 	sub	sp, fp, #12
    8860:	e89d6800 	ldm	sp, {fp, sp, lr}
    8864:	e12fff1e 	bx	lr

00008868 <pack_threadid>:
    8868:	e1a0c00d 	mov	ip, sp
    886c:	e92dd800 	push	{fp, ip, lr, pc}
    8870:	e24cb004 	sub	fp, ip, #4
    8874:	e24dd010 	sub	sp, sp, #16
    8878:	e50b0018 	str	r0, [fp, #-24]	; 0xffffffe8
    887c:	e50b101c 	str	r1, [fp, #-28]	; 0xffffffe4
    8880:	e51b301c 	ldr	r3, [fp, #-28]	; 0xffffffe4
    8884:	e50b3010 	str	r3, [fp, #-16]
    8888:	e51b3018 	ldr	r3, [fp, #-24]	; 0xffffffe8
    888c:	e2833010 	add	r3, r3, #16
    8890:	e50b3014 	str	r3, [fp, #-20]	; 0xffffffec
    8894:	ea000009 	b	88c0 <pack_threadid+0x58>
    8898:	e51b3010 	ldr	r3, [fp, #-16]
    889c:	e5d32000 	ldrb	r2, [r3]
    88a0:	e51b3010 	ldr	r3, [fp, #-16]
    88a4:	e2833001 	add	r3, r3, #1
    88a8:	e50b3010 	str	r3, [fp, #-16]
    88ac:	e51b0018 	ldr	r0, [fp, #-24]	; 0xffffffe8
    88b0:	e1a01002 	mov	r1, r2
    88b4:	ebfffefe 	bl	84b4 <pack_hex_byte>
    88b8:	e1a03000 	mov	r3, r0
    88bc:	e50b3018 	str	r3, [fp, #-24]	; 0xffffffe8
    88c0:	e51b2018 	ldr	r2, [fp, #-24]	; 0xffffffe8
    88c4:	e51b3014 	ldr	r3, [fp, #-20]	; 0xffffffec
    88c8:	e1520003 	cmp	r2, r3
    88cc:	3afffff1 	bcc	8898 <pack_threadid+0x30>
    88d0:	e51b3018 	ldr	r3, [fp, #-24]	; 0xffffffe8
    88d4:	e1a00003 	mov	r0, r3
    88d8:	e24bd00c 	sub	sp, fp, #12
    88dc:	e89d6800 	ldm	sp, {fp, sp, lr}
    88e0:	e12fff1e 	bx	lr

000088e4 <int_to_threadref>:
    88e4:	e1a0c00d 	mov	ip, sp
    88e8:	e92dd800 	push	{fp, ip, lr, pc}
    88ec:	e24cb004 	sub	fp, ip, #4
    88f0:	e24dd010 	sub	sp, sp, #16
    88f4:	e50b0018 	str	r0, [fp, #-24]	; 0xffffffe8
    88f8:	e50b101c 	str	r1, [fp, #-28]	; 0xffffffe4
    88fc:	e51b3018 	ldr	r3, [fp, #-24]	; 0xffffffe8
    8900:	e50b3014 	str	r3, [fp, #-20]	; 0xffffffec
    8904:	e3a03004 	mov	r3, #4
    8908:	e50b3010 	str	r3, [fp, #-16]
    890c:	ea000005 	b	8928 <int_to_threadref+0x44>
    8910:	e51b2014 	ldr	r2, [fp, #-20]	; 0xffffffec
    8914:	e3a03000 	mov	r3, #0
    8918:	e5c23000 	strb	r3, [r2]
    891c:	e51b3014 	ldr	r3, [fp, #-20]	; 0xffffffec
    8920:	e2833001 	add	r3, r3, #1
    8924:	e50b3014 	str	r3, [fp, #-20]	; 0xffffffec
    8928:	e51b3010 	ldr	r3, [fp, #-16]
    892c:	e3530000 	cmp	r3, #0
    8930:	03a03000 	moveq	r3, #0
    8934:	13a03001 	movne	r3, #1
    8938:	e20320ff 	and	r2, r3, #255	; 0xff
    893c:	e51b3010 	ldr	r3, [fp, #-16]
    8940:	e2433001 	sub	r3, r3, #1
    8944:	e50b3010 	str	r3, [fp, #-16]
    8948:	e3520000 	cmp	r2, #0
    894c:	1affffef 	bne	8910 <int_to_threadref+0x2c>
    8950:	e51b301c 	ldr	r3, [fp, #-28]	; 0xffffffe4
    8954:	e1a03c23 	lsr	r3, r3, #24
    8958:	e20330ff 	and	r3, r3, #255	; 0xff
    895c:	e51b2014 	ldr	r2, [fp, #-20]	; 0xffffffec
    8960:	e5c23000 	strb	r3, [r2]
    8964:	e51b3014 	ldr	r3, [fp, #-20]	; 0xffffffec
    8968:	e2833001 	add	r3, r3, #1
    896c:	e50b3014 	str	r3, [fp, #-20]	; 0xffffffec
    8970:	e51b301c 	ldr	r3, [fp, #-28]	; 0xffffffe4
    8974:	e1a03843 	asr	r3, r3, #16
    8978:	e20330ff 	and	r3, r3, #255	; 0xff
    897c:	e51b2014 	ldr	r2, [fp, #-20]	; 0xffffffec
    8980:	e5c23000 	strb	r3, [r2]
    8984:	e51b3014 	ldr	r3, [fp, #-20]	; 0xffffffec
    8988:	e2833001 	add	r3, r3, #1
    898c:	e50b3014 	str	r3, [fp, #-20]	; 0xffffffec
    8990:	e51b301c 	ldr	r3, [fp, #-28]	; 0xffffffe4
    8994:	e1a03443 	asr	r3, r3, #8
    8998:	e20330ff 	and	r3, r3, #255	; 0xff
    899c:	e51b2014 	ldr	r2, [fp, #-20]	; 0xffffffec
    89a0:	e5c23000 	strb	r3, [r2]
    89a4:	e51b3014 	ldr	r3, [fp, #-20]	; 0xffffffec
    89a8:	e2833001 	add	r3, r3, #1
    89ac:	e50b3014 	str	r3, [fp, #-20]	; 0xffffffec
    89b0:	e51b301c 	ldr	r3, [fp, #-28]	; 0xffffffe4
    89b4:	e20330ff 	and	r3, r3, #255	; 0xff
    89b8:	e51b2014 	ldr	r2, [fp, #-20]	; 0xffffffec
    89bc:	e5c23000 	strb	r3, [r2]
    89c0:	e51b3014 	ldr	r3, [fp, #-20]	; 0xffffffec
    89c4:	e2833001 	add	r3, r3, #1
    89c8:	e50b3014 	str	r3, [fp, #-20]	; 0xffffffec
    89cc:	e24bd00c 	sub	sp, fp, #12
    89d0:	e89d6800 	ldm	sp, {fp, sp, lr}
    89d4:	e12fff1e 	bx	lr

000089d8 <threadref_to_int>:
    89d8:	e1a0c00d 	mov	ip, sp
    89dc:	e92dd800 	push	{fp, ip, lr, pc}
    89e0:	e24cb004 	sub	fp, ip, #4
    89e4:	e24dd018 	sub	sp, sp, #24
    89e8:	e50b0020 	str	r0, [fp, #-32]	; 0xffffffe0
    89ec:	e3a03000 	mov	r3, #0
    89f0:	e50b3018 	str	r3, [fp, #-24]	; 0xffffffe8
    89f4:	e51b3020 	ldr	r3, [fp, #-32]	; 0xffffffe0
    89f8:	e50b3014 	str	r3, [fp, #-20]	; 0xffffffec
    89fc:	e51b3014 	ldr	r3, [fp, #-20]	; 0xffffffec
    8a00:	e2833004 	add	r3, r3, #4
    8a04:	e50b3014 	str	r3, [fp, #-20]	; 0xffffffec
    8a08:	e3a03004 	mov	r3, #4
    8a0c:	e50b3010 	str	r3, [fp, #-16]
    8a10:	ea000008 	b	8a38 <threadref_to_int+0x60>
    8a14:	e51b3018 	ldr	r3, [fp, #-24]	; 0xffffffe8
    8a18:	e1a02403 	lsl	r2, r3, #8
    8a1c:	e51b3014 	ldr	r3, [fp, #-20]	; 0xffffffec
    8a20:	e5d33000 	ldrb	r3, [r3]
    8a24:	e1823003 	orr	r3, r2, r3
    8a28:	e50b3018 	str	r3, [fp, #-24]	; 0xffffffe8
    8a2c:	e51b3014 	ldr	r3, [fp, #-20]	; 0xffffffec
    8a30:	e2833001 	add	r3, r3, #1
    8a34:	e50b3014 	str	r3, [fp, #-20]	; 0xffffffec
    8a38:	e51b3010 	ldr	r3, [fp, #-16]
    8a3c:	e3530000 	cmp	r3, #0
    8a40:	d3a03000 	movle	r3, #0
    8a44:	c3a03001 	movgt	r3, #1
    8a48:	e20320ff 	and	r2, r3, #255	; 0xff
    8a4c:	e51b3010 	ldr	r3, [fp, #-16]
    8a50:	e2433001 	sub	r3, r3, #1
    8a54:	e50b3010 	str	r3, [fp, #-16]
    8a58:	e3520000 	cmp	r2, #0
    8a5c:	1affffec 	bne	8a14 <threadref_to_int+0x3c>
    8a60:	e51b3018 	ldr	r3, [fp, #-24]	; 0xffffffe8
    8a64:	e1a00003 	mov	r0, r3
    8a68:	e24bd00c 	sub	sp, fp, #12
    8a6c:	e89d6800 	ldm	sp, {fp, sp, lr}
    8a70:	e12fff1e 	bx	lr

00008a74 <copy_threadref>:
    8a74:	e1a0c00d 	mov	ip, sp
    8a78:	e92dd800 	push	{fp, ip, lr, pc}
    8a7c:	e24cb004 	sub	fp, ip, #4
    8a80:	e24dd018 	sub	sp, sp, #24
    8a84:	e50b0020 	str	r0, [fp, #-32]	; 0xffffffe0
    8a88:	e50b1024 	str	r1, [fp, #-36]	; 0xffffffdc
    8a8c:	e51b3024 	ldr	r3, [fp, #-36]	; 0xffffffdc
    8a90:	e50b3014 	str	r3, [fp, #-20]	; 0xffffffec
    8a94:	e51b3020 	ldr	r3, [fp, #-32]	; 0xffffffe0
    8a98:	e50b3010 	str	r3, [fp, #-16]
    8a9c:	e3a03008 	mov	r3, #8
    8aa0:	e50b3018 	str	r3, [fp, #-24]	; 0xffffffe8
    8aa4:	ea000009 	b	8ad0 <copy_threadref+0x5c>
    8aa8:	e51b3014 	ldr	r3, [fp, #-20]	; 0xffffffec
    8aac:	e5d33000 	ldrb	r3, [r3]
    8ab0:	e51b2010 	ldr	r2, [fp, #-16]
    8ab4:	e5c23000 	strb	r3, [r2]
    8ab8:	e51b3010 	ldr	r3, [fp, #-16]
    8abc:	e2833001 	add	r3, r3, #1
    8ac0:	e50b3010 	str	r3, [fp, #-16]
    8ac4:	e51b3014 	ldr	r3, [fp, #-20]	; 0xffffffec
    8ac8:	e2833001 	add	r3, r3, #1
    8acc:	e50b3014 	str	r3, [fp, #-20]	; 0xffffffec
    8ad0:	e51b3018 	ldr	r3, [fp, #-24]	; 0xffffffe8
    8ad4:	e3530000 	cmp	r3, #0
    8ad8:	03a03000 	moveq	r3, #0
    8adc:	13a03001 	movne	r3, #1
    8ae0:	e20320ff 	and	r2, r3, #255	; 0xff
    8ae4:	e51b3018 	ldr	r3, [fp, #-24]	; 0xffffffe8
    8ae8:	e2433001 	sub	r3, r3, #1
    8aec:	e50b3018 	str	r3, [fp, #-24]	; 0xffffffe8
    8af0:	e3520000 	cmp	r2, #0
    8af4:	1affffeb 	bne	8aa8 <copy_threadref+0x34>
    8af8:	e24bd00c 	sub	sp, fp, #12
    8afc:	e89d6800 	ldm	sp, {fp, sp, lr}
    8b00:	e12fff1e 	bx	lr

00008b04 <stub_pkt_currthread>:
    8b04:	e1a0c00d 	mov	ip, sp
    8b08:	e92dd800 	push	{fp, ip, lr, pc}
    8b0c:	e24cb004 	sub	fp, ip, #4
    8b10:	e24dd020 	sub	sp, sp, #32
    8b14:	e50b0020 	str	r0, [fp, #-32]	; 0xffffffe0
    8b18:	e50b1024 	str	r1, [fp, #-36]	; 0xffffffdc
    8b1c:	e50b2028 	str	r2, [fp, #-40]	; 0xffffffd8
    8b20:	e51b3024 	ldr	r3, [fp, #-36]	; 0xffffffdc
    8b24:	e50b3010 	str	r3, [fp, #-16]
    8b28:	e24b3018 	sub	r3, fp, #24
    8b2c:	e1a00003 	mov	r0, r3
    8b30:	eb0005fb 	bl	a324 <dbg_currthread>
    8b34:	e1a03000 	mov	r3, r0
    8b38:	e3530000 	cmp	r3, #0
    8b3c:	0a000015 	beq	8b98 <stub_pkt_currthread+0x94>
    8b40:	e51b2024 	ldr	r2, [fp, #-36]	; 0xffffffdc
    8b44:	e3a03051 	mov	r3, #81	; 0x51
    8b48:	e5c23000 	strb	r3, [r2]
    8b4c:	e51b3024 	ldr	r3, [fp, #-36]	; 0xffffffdc
    8b50:	e2833001 	add	r3, r3, #1
    8b54:	e50b3024 	str	r3, [fp, #-36]	; 0xffffffdc
    8b58:	e51b2024 	ldr	r2, [fp, #-36]	; 0xffffffdc
    8b5c:	e3a03043 	mov	r3, #67	; 0x43
    8b60:	e5c23000 	strb	r3, [r2]
    8b64:	e51b3024 	ldr	r3, [fp, #-36]	; 0xffffffdc
    8b68:	e2833001 	add	r3, r3, #1
    8b6c:	e50b3024 	str	r3, [fp, #-36]	; 0xffffffdc
    8b70:	e24b3018 	sub	r3, fp, #24
    8b74:	e1a00003 	mov	r0, r3
    8b78:	ebffff96 	bl	89d8 <threadref_to_int>
    8b7c:	e1a03000 	mov	r3, r0
    8b80:	e51b0024 	ldr	r0, [fp, #-36]	; 0xffffffdc
    8b84:	e1a01003 	mov	r1, r3
    8b88:	ebfffec3 	bl	869c <pack_int>
    8b8c:	e1a03000 	mov	r3, r0
    8b90:	e50b3024 	str	r3, [fp, #-36]	; 0xffffffdc
    8b94:	ea000003 	b	8ba8 <stub_pkt_currthread+0xa4>
    8b98:	e51b0024 	ldr	r0, [fp, #-36]	; 0xffffffdc
    8b9c:	ebfffd7f 	bl	81a0 <stub_pack_nak>
    8ba0:	e1a03000 	mov	r3, r0
    8ba4:	e50b3024 	str	r3, [fp, #-36]	; 0xffffffdc
    8ba8:	e51b3024 	ldr	r3, [fp, #-36]	; 0xffffffdc
    8bac:	e3a02000 	mov	r2, #0
    8bb0:	e5c32000 	strb	r2, [r3]
    8bb4:	e24bd00c 	sub	sp, fp, #12
    8bb8:	e89d6800 	ldm	sp, {fp, sp, lr}
    8bbc:	e12fff1e 	bx	lr

00008bc0 <thread_alive>:
    8bc0:	e1a0c00d 	mov	ip, sp
    8bc4:	e92dd800 	push	{fp, ip, lr, pc}
    8bc8:	e24cb004 	sub	fp, ip, #4
    8bcc:	e24dd028 	sub	sp, sp, #40	; 0x28
    8bd0:	e50b0030 	str	r0, [fp, #-48]	; 0xffffffd0
    8bd4:	e24b3014 	sub	r3, fp, #20
    8bd8:	e1a00003 	mov	r0, r3
    8bdc:	e51b1030 	ldr	r1, [fp, #-48]	; 0xffffffd0
    8be0:	ebffff3f 	bl	88e4 <int_to_threadref>
    8be4:	e24b3014 	sub	r3, fp, #20
    8be8:	e24b202c 	sub	r2, fp, #44	; 0x2c
    8bec:	e1a00003 	mov	r0, r3
    8bf0:	e1a01002 	mov	r1, r2
    8bf4:	eb000618 	bl	a45c <dbg_threadinfo>
    8bf8:	e1a03000 	mov	r3, r0
    8bfc:	e3530000 	cmp	r3, #0
    8c00:	0a000005 	beq	8c1c <thread_alive+0x5c>
    8c04:	e51b3024 	ldr	r3, [fp, #-36]	; 0xffffffdc
    8c08:	e3530000 	cmp	r3, #0
    8c0c:	0a000002 	beq	8c1c <thread_alive+0x5c>
    8c10:	e3a03001 	mov	r3, #1
    8c14:	e50b3034 	str	r3, [fp, #-52]	; 0xffffffcc
    8c18:	ea000001 	b	8c24 <thread_alive+0x64>
    8c1c:	e3a03000 	mov	r3, #0
    8c20:	e50b3034 	str	r3, [fp, #-52]	; 0xffffffcc
    8c24:	e51b3034 	ldr	r3, [fp, #-52]	; 0xffffffcc
    8c28:	e1a00003 	mov	r0, r3
    8c2c:	e24bd00c 	sub	sp, fp, #12
    8c30:	e89d6800 	ldm	sp, {fp, sp, lr}
    8c34:	e12fff1e 	bx	lr

00008c38 <stub_pkt_thread_alive>:
    8c38:	e1a0c00d 	mov	ip, sp
    8c3c:	e92dd800 	push	{fp, ip, lr, pc}
    8c40:	e24cb004 	sub	fp, ip, #4
    8c44:	e24dd018 	sub	sp, sp, #24
    8c48:	e50b0018 	str	r0, [fp, #-24]	; 0xffffffe8
    8c4c:	e50b101c 	str	r1, [fp, #-28]	; 0xffffffe4
    8c50:	e50b2020 	str	r2, [fp, #-32]	; 0xffffffe0
    8c54:	e51b3018 	ldr	r3, [fp, #-24]	; 0xffffffe8
    8c58:	e50b3010 	str	r3, [fp, #-16]
    8c5c:	e24b3014 	sub	r3, fp, #20
    8c60:	e51b0018 	ldr	r0, [fp, #-24]	; 0xffffffe8
    8c64:	e1a01003 	mov	r1, r3
    8c68:	ebfffe32 	bl	8538 <unpack_varlen_hex>
    8c6c:	e1a03000 	mov	r3, r0
    8c70:	e50b3018 	str	r3, [fp, #-24]	; 0xffffffe8
    8c74:	e51b2018 	ldr	r2, [fp, #-24]	; 0xffffffe8
    8c78:	e51b3010 	ldr	r3, [fp, #-16]
    8c7c:	e1520003 	cmp	r2, r3
    8c80:	0a00000d 	beq	8cbc <stub_pkt_thread_alive+0x84>
    8c84:	e51b3014 	ldr	r3, [fp, #-20]	; 0xffffffec
    8c88:	e1a00003 	mov	r0, r3
    8c8c:	ebffffcb 	bl	8bc0 <thread_alive>
    8c90:	e1a03000 	mov	r3, r0
    8c94:	e3530000 	cmp	r3, #0
    8c98:	0a000007 	beq	8cbc <stub_pkt_thread_alive+0x84>
    8c9c:	e51b001c 	ldr	r0, [fp, #-28]	; 0xffffffe4
    8ca0:	ebfffd5a 	bl	8210 <stub_pack_ack>
    8ca4:	e1a03000 	mov	r3, r0
    8ca8:	e50b301c 	str	r3, [fp, #-28]	; 0xffffffe4
    8cac:	e51b201c 	ldr	r2, [fp, #-28]	; 0xffffffe4
    8cb0:	e3a03000 	mov	r3, #0
    8cb4:	e5c23000 	strb	r3, [r2]
    8cb8:	ea000006 	b	8cd8 <stub_pkt_thread_alive+0xa0>
    8cbc:	e51b001c 	ldr	r0, [fp, #-28]	; 0xffffffe4
    8cc0:	ebfffd36 	bl	81a0 <stub_pack_nak>
    8cc4:	e1a03000 	mov	r3, r0
    8cc8:	e50b301c 	str	r3, [fp, #-28]	; 0xffffffe4
    8ccc:	e51b201c 	ldr	r2, [fp, #-28]	; 0xffffffe4
    8cd0:	e3a03000 	mov	r3, #0
    8cd4:	e5c23000 	strb	r3, [r2]
    8cd8:	e24bd00c 	sub	sp, fp, #12
    8cdc:	e89d6800 	ldm	sp, {fp, sp, lr}
    8ce0:	e12fff1e 	bx	lr

00008ce4 <stub_pkt_changethread>:
    8ce4:	e1a0c00d 	mov	ip, sp
    8ce8:	e92dd800 	push	{fp, ip, lr, pc}
    8cec:	e24cb004 	sub	fp, ip, #4
    8cf0:	e24dd028 	sub	sp, sp, #40	; 0x28
    8cf4:	e50b0020 	str	r0, [fp, #-32]	; 0xffffffe0
    8cf8:	e50b1024 	str	r1, [fp, #-36]	; 0xffffffdc
    8cfc:	e50b2028 	str	r2, [fp, #-40]	; 0xffffffd8
    8d00:	e3e03000 	mvn	r3, #0
    8d04:	e50b301c 	str	r3, [fp, #-28]	; 0xffffffe4
    8d08:	e51b3020 	ldr	r3, [fp, #-32]	; 0xffffffe0
    8d0c:	e5d33000 	ldrb	r3, [r3]
    8d10:	e54b300d 	strb	r3, [fp, #-13]
    8d14:	e55b300d 	ldrb	r3, [fp, #-13]
    8d18:	e50b3030 	str	r3, [fp, #-48]	; 0xffffffd0
    8d1c:	e51b3020 	ldr	r3, [fp, #-32]	; 0xffffffe0
    8d20:	e2833001 	add	r3, r3, #1
    8d24:	e50b3020 	str	r3, [fp, #-32]	; 0xffffffe0
    8d28:	e51b3030 	ldr	r3, [fp, #-48]	; 0xffffffd0
    8d2c:	e3530067 	cmp	r3, #103	; 0x67
    8d30:	0a00003a 	beq	8e20 <stub_pkt_changethread+0x13c>
    8d34:	e51b3030 	ldr	r3, [fp, #-48]	; 0xffffffd0
    8d38:	e3530070 	cmp	r3, #112	; 0x70
    8d3c:	0a000003 	beq	8d50 <stub_pkt_changethread+0x6c>
    8d40:	e51b3030 	ldr	r3, [fp, #-48]	; 0xffffffd0
    8d44:	e3530063 	cmp	r3, #99	; 0x63
    8d48:	0a00000d 	beq	8d84 <stub_pkt_changethread+0xa0>
    8d4c:	ea000050 	b	8e94 <stub_pkt_changethread+0x1b0>
    8d50:	e24b301c 	sub	r3, fp, #28
    8d54:	e51b0020 	ldr	r0, [fp, #-32]	; 0xffffffe0
    8d58:	e1a01003 	mov	r1, r3
    8d5c:	ebfffdc1 	bl	8468 <unpack_nibble>
    8d60:	e1a03000 	mov	r3, r0
    8d64:	e50b3020 	str	r3, [fp, #-32]	; 0xffffffe0
    8d68:	e24b3015 	sub	r3, fp, #21
    8d6c:	e51b0020 	ldr	r0, [fp, #-32]	; 0xffffffe0
    8d70:	e1a01003 	mov	r1, r3
    8d74:	ebfffe14 	bl	85cc <unpack_threadid>
    8d78:	e1a03000 	mov	r3, r0
    8d7c:	e50b3020 	str	r3, [fp, #-32]	; 0xffffffe0
    8d80:	ea000047 	b	8ea4 <stub_pkt_changethread+0x1c0>
    8d84:	e51b3020 	ldr	r3, [fp, #-32]	; 0xffffffe0
    8d88:	e5d33000 	ldrb	r3, [r3]
    8d8c:	e353002d 	cmp	r3, #45	; 0x2d
    8d90:	1a000008 	bne	8db8 <stub_pkt_changethread+0xd4>
    8d94:	e51b3020 	ldr	r3, [fp, #-32]	; 0xffffffe0
    8d98:	e2833001 	add	r3, r3, #1
    8d9c:	e5d33000 	ldrb	r3, [r3]
    8da0:	e3530031 	cmp	r3, #49	; 0x31
    8da4:	1a000003 	bne	8db8 <stub_pkt_changethread+0xd4>
    8da8:	e59f21c4 	ldr	r2, [pc, #452]	; 8f74 <stub_pkt_changethread+0x290>
    8dac:	e3a03000 	mov	r3, #0
    8db0:	e5823000 	str	r3, [r2]
    8db4:	ea000004 	b	8dcc <stub_pkt_changethread+0xe8>
    8db8:	e51b0020 	ldr	r0, [fp, #-32]	; 0xffffffe0
    8dbc:	e59f11b0 	ldr	r1, [pc, #432]	; 8f74 <stub_pkt_changethread+0x290>
    8dc0:	ebfffddc 	bl	8538 <unpack_varlen_hex>
    8dc4:	e1a03000 	mov	r3, r0
    8dc8:	e50b3020 	str	r3, [fp, #-32]	; 0xffffffe0
    8dcc:	e59f31a0 	ldr	r3, [pc, #416]	; 8f74 <stub_pkt_changethread+0x290>
    8dd0:	e5933000 	ldr	r3, [r3]
    8dd4:	e3530000 	cmp	r3, #0
    8dd8:	0a000006 	beq	8df8 <stub_pkt_changethread+0x114>
    8ddc:	e59f3190 	ldr	r3, [pc, #400]	; 8f74 <stub_pkt_changethread+0x290>
    8de0:	e5933000 	ldr	r3, [r3]
    8de4:	e1a00003 	mov	r0, r3
    8de8:	ebffff74 	bl	8bc0 <thread_alive>
    8dec:	e1a03000 	mov	r3, r0
    8df0:	e3530000 	cmp	r3, #0
    8df4:	0a000004 	beq	8e0c <stub_pkt_changethread+0x128>
    8df8:	e51b0024 	ldr	r0, [fp, #-36]	; 0xffffffdc
    8dfc:	ebfffd03 	bl	8210 <stub_pack_ack>
    8e00:	e1a03000 	mov	r3, r0
    8e04:	e50b3024 	str	r3, [fp, #-36]	; 0xffffffdc
    8e08:	ea000025 	b	8ea4 <stub_pkt_changethread+0x1c0>
    8e0c:	e51b0024 	ldr	r0, [fp, #-36]	; 0xffffffdc
    8e10:	ebfffce2 	bl	81a0 <stub_pack_nak>
    8e14:	e1a03000 	mov	r3, r0
    8e18:	e50b3024 	str	r3, [fp, #-36]	; 0xffffffdc
    8e1c:	ea000020 	b	8ea4 <stub_pkt_changethread+0x1c0>
    8e20:	e51b0020 	ldr	r0, [fp, #-32]	; 0xffffffe0
    8e24:	e59f114c 	ldr	r1, [pc, #332]	; 8f78 <stub_pkt_changethread+0x294>
    8e28:	ebfffdc2 	bl	8538 <unpack_varlen_hex>
    8e2c:	e1a03000 	mov	r3, r0
    8e30:	e50b3020 	str	r3, [fp, #-32]	; 0xffffffe0
    8e34:	e59f313c 	ldr	r3, [pc, #316]	; 8f78 <stub_pkt_changethread+0x294>
    8e38:	e5932000 	ldr	r2, [r3]
    8e3c:	e24b3015 	sub	r3, fp, #21
    8e40:	e1a00003 	mov	r0, r3
    8e44:	e1a01002 	mov	r1, r2
    8e48:	ebfffea5 	bl	88e4 <int_to_threadref>
    8e4c:	e59f3124 	ldr	r3, [pc, #292]	; 8f78 <stub_pkt_changethread+0x294>
    8e50:	e5933000 	ldr	r3, [r3]
    8e54:	e50b302c 	str	r3, [fp, #-44]	; 0xffffffd4
    8e58:	e51b302c 	ldr	r3, [fp, #-44]	; 0xffffffd4
    8e5c:	e3730001 	cmn	r3, #1
    8e60:	0a000005 	beq	8e7c <stub_pkt_changethread+0x198>
    8e64:	e51b302c 	ldr	r3, [fp, #-44]	; 0xffffffd4
    8e68:	e3530000 	cmp	r3, #0
    8e6c:	1a000005 	bne	8e88 <stub_pkt_changethread+0x1a4>
    8e70:	e3a03002 	mov	r3, #2
    8e74:	e50b301c 	str	r3, [fp, #-28]	; 0xffffffe4
    8e78:	ea000009 	b	8ea4 <stub_pkt_changethread+0x1c0>
    8e7c:	e3a03002 	mov	r3, #2
    8e80:	e50b301c 	str	r3, [fp, #-28]	; 0xffffffe4
    8e84:	ea000006 	b	8ea4 <stub_pkt_changethread+0x1c0>
    8e88:	e3a03001 	mov	r3, #1
    8e8c:	e50b301c 	str	r3, [fp, #-28]	; 0xffffffe4
    8e90:	ea000003 	b	8ea4 <stub_pkt_changethread+0x1c0>
    8e94:	e51b0024 	ldr	r0, [fp, #-36]	; 0xffffffdc
    8e98:	ebfffcc0 	bl	81a0 <stub_pack_nak>
    8e9c:	e1a03000 	mov	r3, r0
    8ea0:	e50b3024 	str	r3, [fp, #-36]	; 0xffffffdc
    8ea4:	e51b301c 	ldr	r3, [fp, #-28]	; 0xffffffe4
    8ea8:	e2833001 	add	r3, r3, #1
    8eac:	e3530003 	cmp	r3, #3
    8eb0:	979ff103 	ldrls	pc, [pc, r3, lsl #2]
    8eb4:	ea000024 	b	8f4c <stub_pkt_changethread+0x268>
    8eb8:	00008f5c 	.word	0x00008f5c
    8ebc:	00008ec8 	.word	0x00008ec8
    8ec0:	00008ed8 	.word	0x00008ed8
    8ec4:	00008f38 	.word	0x00008f38
    8ec8:	e59f20ac 	ldr	r2, [pc, #172]	; 8f7c <stub_pkt_changethread+0x298>
    8ecc:	e59f30ac 	ldr	r3, [pc, #172]	; 8f80 <stub_pkt_changethread+0x29c>
    8ed0:	e5823000 	str	r3, [r2]
    8ed4:	ea000020 	b	8f5c <stub_pkt_changethread+0x278>
    8ed8:	e59f00a4 	ldr	r0, [pc, #164]	; 8f84 <stub_pkt_changethread+0x2a0>
    8edc:	e59f109c 	ldr	r1, [pc, #156]	; 8f80 <stub_pkt_changethread+0x29c>
    8ee0:	ebfffc93 	bl	8134 <stub_copy_registers>
    8ee4:	e24b3015 	sub	r3, fp, #21
    8ee8:	e1a00003 	mov	r0, r3
    8eec:	e3a0101a 	mov	r1, #26
    8ef0:	e59f208c 	ldr	r2, [pc, #140]	; 8f84 <stub_pkt_changethread+0x2a0>
    8ef4:	eb00056c 	bl	a4ac <dbg_getthreadreg>
    8ef8:	e1a03000 	mov	r3, r0
    8efc:	e3530000 	cmp	r3, #0
    8f00:	0a000007 	beq	8f24 <stub_pkt_changethread+0x240>
    8f04:	e59f3070 	ldr	r3, [pc, #112]	; 8f7c <stub_pkt_changethread+0x298>
    8f08:	e59f2074 	ldr	r2, [pc, #116]	; 8f84 <stub_pkt_changethread+0x2a0>
    8f0c:	e5832000 	str	r2, [r3]
    8f10:	e51b0024 	ldr	r0, [fp, #-36]	; 0xffffffdc
    8f14:	ebfffcbd 	bl	8210 <stub_pack_ack>
    8f18:	e1a03000 	mov	r3, r0
    8f1c:	e50b3024 	str	r3, [fp, #-36]	; 0xffffffdc
    8f20:	ea00000d 	b	8f5c <stub_pkt_changethread+0x278>
    8f24:	e51b0024 	ldr	r0, [fp, #-36]	; 0xffffffdc
    8f28:	ebfffc9c 	bl	81a0 <stub_pack_nak>
    8f2c:	e1a03000 	mov	r3, r0
    8f30:	e50b3024 	str	r3, [fp, #-36]	; 0xffffffdc
    8f34:	ea000008 	b	8f5c <stub_pkt_changethread+0x278>
    8f38:	e51b0024 	ldr	r0, [fp, #-36]	; 0xffffffdc
    8f3c:	ebfffcb3 	bl	8210 <stub_pack_ack>
    8f40:	e1a03000 	mov	r3, r0
    8f44:	e50b3024 	str	r3, [fp, #-36]	; 0xffffffdc
    8f48:	ea000003 	b	8f5c <stub_pkt_changethread+0x278>
    8f4c:	e51b0024 	ldr	r0, [fp, #-36]	; 0xffffffdc
    8f50:	ebfffc92 	bl	81a0 <stub_pack_nak>
    8f54:	e1a03000 	mov	r3, r0
    8f58:	e50b3024 	str	r3, [fp, #-36]	; 0xffffffdc
    8f5c:	e51b3024 	ldr	r3, [fp, #-36]	; 0xffffffdc
    8f60:	e3a02000 	mov	r2, #0
    8f64:	e5c32000 	strb	r2, [r3]
    8f68:	e24bd00c 	sub	sp, fp, #12
    8f6c:	e89d6800 	ldm	sp, {fp, sp, lr}
    8f70:	e12fff1e 	bx	lr
    8f74:	81005570 	.word	0x81005570
    8f78:	8100556c 	.word	0x8100556c
    8f7c:	810002c4 	.word	0x810002c4
    8f80:	81005574 	.word	0x81005574
    8f84:	81005620 	.word	0x81005620

00008f88 <stub_pkt_getthreadlist>:
    8f88:	e1a0c00d 	mov	ip, sp
    8f8c:	e92dd800 	push	{fp, ip, lr, pc}
    8f90:	e24cb004 	sub	fp, ip, #4
    8f94:	e24dd030 	sub	sp, sp, #48	; 0x30
    8f98:	e50b0030 	str	r0, [fp, #-48]	; 0xffffffd0
    8f9c:	e50b1034 	str	r1, [fp, #-52]	; 0xffffffcc
    8fa0:	e50b2038 	str	r2, [fp, #-56]	; 0xffffffc8
    8fa4:	e3a03000 	mov	r3, #0
    8fa8:	e50b3010 	str	r3, [fp, #-16]
    8fac:	e24b3024 	sub	r3, fp, #36	; 0x24
    8fb0:	e51b0030 	ldr	r0, [fp, #-48]	; 0xffffffd0
    8fb4:	e1a01003 	mov	r1, r3
    8fb8:	ebfffd2a 	bl	8468 <unpack_nibble>
    8fbc:	e1a03000 	mov	r3, r0
    8fc0:	e50b3030 	str	r3, [fp, #-48]	; 0xffffffd0
    8fc4:	e24b3028 	sub	r3, fp, #40	; 0x28
    8fc8:	e51b0030 	ldr	r0, [fp, #-48]	; 0xffffffd0
    8fcc:	e1a01003 	mov	r1, r3
    8fd0:	ebfffccb 	bl	8304 <unpack_byte>
    8fd4:	e1a03000 	mov	r3, r0
    8fd8:	e50b3030 	str	r3, [fp, #-48]	; 0xffffffd0
    8fdc:	e51b0030 	ldr	r0, [fp, #-48]	; 0xffffffd0
    8fe0:	e59f1158 	ldr	r1, [pc, #344]	; 9140 <stub_pkt_getthreadlist+0x1b8>
    8fe4:	ebfffd78 	bl	85cc <unpack_threadid>
    8fe8:	e1a03000 	mov	r3, r0
    8fec:	e50b3030 	str	r3, [fp, #-48]	; 0xffffffd0
    8ff0:	e51b3038 	ldr	r3, [fp, #-56]	; 0xffffffc8
    8ff4:	e243201a 	sub	r2, r3, #26
    8ff8:	e51b3034 	ldr	r3, [fp, #-52]	; 0xffffffcc
    8ffc:	e0833002 	add	r3, r3, r2
    9000:	e50b3018 	str	r3, [fp, #-24]	; 0xffffffe8
    9004:	e51b2034 	ldr	r2, [fp, #-52]	; 0xffffffcc
    9008:	e3a03051 	mov	r3, #81	; 0x51
    900c:	e5c23000 	strb	r3, [r2]
    9010:	e51b3034 	ldr	r3, [fp, #-52]	; 0xffffffcc
    9014:	e2833001 	add	r3, r3, #1
    9018:	e50b3034 	str	r3, [fp, #-52]	; 0xffffffcc
    901c:	e51b2034 	ldr	r2, [fp, #-52]	; 0xffffffcc
    9020:	e3a0304d 	mov	r3, #77	; 0x4d
    9024:	e5c23000 	strb	r3, [r2]
    9028:	e51b3034 	ldr	r3, [fp, #-52]	; 0xffffffcc
    902c:	e2833001 	add	r3, r3, #1
    9030:	e50b3034 	str	r3, [fp, #-52]	; 0xffffffcc
    9034:	e51b3034 	ldr	r3, [fp, #-52]	; 0xffffffcc
    9038:	e50b3020 	str	r3, [fp, #-32]	; 0xffffffe0
    903c:	e51b0034 	ldr	r0, [fp, #-52]	; 0xffffffcc
    9040:	e3a01000 	mov	r1, #0
    9044:	ebfffd1a 	bl	84b4 <pack_hex_byte>
    9048:	e1a03000 	mov	r3, r0
    904c:	e50b3034 	str	r3, [fp, #-52]	; 0xffffffcc
    9050:	e51b3034 	ldr	r3, [fp, #-52]	; 0xffffffcc
    9054:	e50b301c 	str	r3, [fp, #-28]	; 0xffffffe4
    9058:	e51b2034 	ldr	r2, [fp, #-52]	; 0xffffffcc
    905c:	e3a03030 	mov	r3, #48	; 0x30
    9060:	e5c23000 	strb	r3, [r2]
    9064:	e51b3034 	ldr	r3, [fp, #-52]	; 0xffffffcc
    9068:	e2833001 	add	r3, r3, #1
    906c:	e50b3034 	str	r3, [fp, #-52]	; 0xffffffcc
    9070:	e51b0034 	ldr	r0, [fp, #-52]	; 0xffffffcc
    9074:	e59f10c4 	ldr	r1, [pc, #196]	; 9140 <stub_pkt_getthreadlist+0x1b8>
    9078:	ebfffdfa 	bl	8868 <pack_threadid>
    907c:	e1a03000 	mov	r3, r0
    9080:	e50b3034 	str	r3, [fp, #-52]	; 0xffffffcc
    9084:	ea00001a 	b	90f4 <stub_pkt_getthreadlist+0x16c>
    9088:	e51b3024 	ldr	r3, [fp, #-36]	; 0xffffffdc
    908c:	e1a00003 	mov	r0, r3
    9090:	e59f10a8 	ldr	r1, [pc, #168]	; 9140 <stub_pkt_getthreadlist+0x1b8>
    9094:	e59f20a8 	ldr	r2, [pc, #168]	; 9144 <stub_pkt_getthreadlist+0x1bc>
    9098:	eb0004d7 	bl	a3fc <dbg_threadlist>
    909c:	e1a03000 	mov	r3, r0
    90a0:	e50b3014 	str	r3, [fp, #-20]	; 0xffffffec
    90a4:	e3a03000 	mov	r3, #0
    90a8:	e50b3024 	str	r3, [fp, #-36]	; 0xffffffdc
    90ac:	e51b3014 	ldr	r3, [fp, #-20]	; 0xffffffec
    90b0:	e3530000 	cmp	r3, #0
    90b4:	1a000003 	bne	90c8 <stub_pkt_getthreadlist+0x140>
    90b8:	e51b301c 	ldr	r3, [fp, #-28]	; 0xffffffe4
    90bc:	e3a02031 	mov	r2, #49	; 0x31
    90c0:	e5c32000 	strb	r2, [r3]
    90c4:	ea000012 	b	9114 <stub_pkt_getthreadlist+0x18c>
    90c8:	e51b3010 	ldr	r3, [fp, #-16]
    90cc:	e2833001 	add	r3, r3, #1
    90d0:	e50b3010 	str	r3, [fp, #-16]
    90d4:	e51b0034 	ldr	r0, [fp, #-52]	; 0xffffffcc
    90d8:	e59f1064 	ldr	r1, [pc, #100]	; 9144 <stub_pkt_getthreadlist+0x1bc>
    90dc:	ebfffde1 	bl	8868 <pack_threadid>
    90e0:	e1a03000 	mov	r3, r0
    90e4:	e50b3034 	str	r3, [fp, #-52]	; 0xffffffcc
    90e8:	e59f0050 	ldr	r0, [pc, #80]	; 9140 <stub_pkt_getthreadlist+0x1b8>
    90ec:	e59f1050 	ldr	r1, [pc, #80]	; 9144 <stub_pkt_getthreadlist+0x1bc>
    90f0:	ebfffe5f 	bl	8a74 <copy_threadref>
    90f4:	e51b2034 	ldr	r2, [fp, #-52]	; 0xffffffcc
    90f8:	e51b3018 	ldr	r3, [fp, #-24]	; 0xffffffe8
    90fc:	e1520003 	cmp	r2, r3
    9100:	2a000003 	bcs	9114 <stub_pkt_getthreadlist+0x18c>
    9104:	e51b2028 	ldr	r2, [fp, #-40]	; 0xffffffd8
    9108:	e51b3010 	ldr	r3, [fp, #-16]
    910c:	e1530002 	cmp	r3, r2
    9110:	baffffdc 	blt	9088 <stub_pkt_getthreadlist+0x100>
    9114:	e51b3010 	ldr	r3, [fp, #-16]
    9118:	e20330ff 	and	r3, r3, #255	; 0xff
    911c:	e51b0020 	ldr	r0, [fp, #-32]	; 0xffffffe0
    9120:	e1a01003 	mov	r1, r3
    9124:	ebfffce2 	bl	84b4 <pack_hex_byte>
    9128:	e51b2034 	ldr	r2, [fp, #-52]	; 0xffffffcc
    912c:	e3a03000 	mov	r3, #0
    9130:	e5c23000 	strb	r3, [r2]
    9134:	e24bd00c 	sub	sp, fp, #12
    9138:	e89d6800 	ldm	sp, {fp, sp, lr}
    913c:	e12fff1e 	bx	lr
    9140:	810031b0 	.word	0x810031b0
    9144:	810031a8 	.word	0x810031a8

00009148 <stub_pkt_getthreadinfo>:
    9148:	e1a0c00d 	mov	ip, sp
    914c:	e92dd800 	push	{fp, ip, lr, pc}
    9150:	e24cb004 	sub	fp, ip, #4
    9154:	e24dd038 	sub	sp, sp, #56	; 0x38
    9158:	e50b0038 	str	r0, [fp, #-56]	; 0xffffffc8
    915c:	e50b103c 	str	r1, [fp, #-60]	; 0xffffffc4
    9160:	e50b2040 	str	r2, [fp, #-64]	; 0xffffffc0
    9164:	e3a03000 	mov	r3, #0
    9168:	e50b302c 	str	r3, [fp, #-44]	; 0xffffffd4
    916c:	e3a03000 	mov	r3, #0
    9170:	e50b3028 	str	r3, [fp, #-40]	; 0xffffffd8
    9174:	e3a03000 	mov	r3, #0
    9178:	e50b3024 	str	r3, [fp, #-36]	; 0xffffffdc
    917c:	e3a03000 	mov	r3, #0
    9180:	e50b3020 	str	r3, [fp, #-32]	; 0xffffffe0
    9184:	e24b3014 	sub	r3, fp, #20
    9188:	e51b0038 	ldr	r0, [fp, #-56]	; 0xffffffc8
    918c:	e1a01003 	mov	r1, r3
    9190:	ebfffc6d 	bl	834c <unpack_int>
    9194:	e1a03000 	mov	r3, r0
    9198:	e50b3038 	str	r3, [fp, #-56]	; 0xffffffc8
    919c:	e24b301c 	sub	r3, fp, #28
    91a0:	e51b0038 	ldr	r0, [fp, #-56]	; 0xffffffc8
    91a4:	e1a01003 	mov	r1, r3
    91a8:	ebfffd07 	bl	85cc <unpack_threadid>
    91ac:	e1a03000 	mov	r3, r0
    91b0:	e50b3038 	str	r3, [fp, #-56]	; 0xffffffc8
    91b4:	e24b301c 	sub	r3, fp, #28
    91b8:	e24b2034 	sub	r2, fp, #52	; 0x34
    91bc:	e1a00003 	mov	r0, r3
    91c0:	e1a01002 	mov	r1, r2
    91c4:	eb0004a4 	bl	a45c <dbg_threadinfo>
    91c8:	e1a03000 	mov	r3, r0
    91cc:	e50b3010 	str	r3, [fp, #-16]
    91d0:	e51b3010 	ldr	r3, [fp, #-16]
    91d4:	e3530000 	cmp	r3, #0
    91d8:	0a000063 	beq	936c <stub_pkt_getthreadinfo+0x224>
    91dc:	e51b203c 	ldr	r2, [fp, #-60]	; 0xffffffc4
    91e0:	e3a03071 	mov	r3, #113	; 0x71
    91e4:	e5c23000 	strb	r3, [r2]
    91e8:	e51b303c 	ldr	r3, [fp, #-60]	; 0xffffffc4
    91ec:	e2833001 	add	r3, r3, #1
    91f0:	e50b303c 	str	r3, [fp, #-60]	; 0xffffffc4
    91f4:	e51b203c 	ldr	r2, [fp, #-60]	; 0xffffffc4
    91f8:	e3a03070 	mov	r3, #112	; 0x70
    91fc:	e5c23000 	strb	r3, [r2]
    9200:	e51b303c 	ldr	r3, [fp, #-60]	; 0xffffffc4
    9204:	e2833001 	add	r3, r3, #1
    9208:	e50b303c 	str	r3, [fp, #-60]	; 0xffffffc4
    920c:	e51b3014 	ldr	r3, [fp, #-20]	; 0xffffffec
    9210:	e51b003c 	ldr	r0, [fp, #-60]	; 0xffffffc4
    9214:	e1a01003 	mov	r1, r3
    9218:	ebfffd1f 	bl	869c <pack_int>
    921c:	e1a03000 	mov	r3, r0
    9220:	e50b303c 	str	r3, [fp, #-60]	; 0xffffffc4
    9224:	e24b3034 	sub	r3, fp, #52	; 0x34
    9228:	e51b003c 	ldr	r0, [fp, #-60]	; 0xffffffc4
    922c:	e1a01003 	mov	r1, r3
    9230:	ebfffd8c 	bl	8868 <pack_threadid>
    9234:	e1a03000 	mov	r3, r0
    9238:	e50b303c 	str	r3, [fp, #-60]	; 0xffffffc4
    923c:	e51b3014 	ldr	r3, [fp, #-20]	; 0xffffffec
    9240:	e2033002 	and	r3, r3, #2
    9244:	e3530000 	cmp	r3, #0
    9248:	0a000010 	beq	9290 <stub_pkt_getthreadinfo+0x148>
    924c:	e51b003c 	ldr	r0, [fp, #-60]	; 0xffffffc4
    9250:	e3a01002 	mov	r1, #2
    9254:	ebfffd10 	bl	869c <pack_int>
    9258:	e1a03000 	mov	r3, r0
    925c:	e50b303c 	str	r3, [fp, #-60]	; 0xffffffc4
    9260:	e51b003c 	ldr	r0, [fp, #-60]	; 0xffffffc4
    9264:	e3a01002 	mov	r1, #2
    9268:	ebfffc91 	bl	84b4 <pack_hex_byte>
    926c:	e1a03000 	mov	r3, r0
    9270:	e50b303c 	str	r3, [fp, #-60]	; 0xffffffc4
    9274:	e51b302c 	ldr	r3, [fp, #-44]	; 0xffffffd4
    9278:	e20330ff 	and	r3, r3, #255	; 0xff
    927c:	e51b003c 	ldr	r0, [fp, #-60]	; 0xffffffc4
    9280:	e1a01003 	mov	r1, r3
    9284:	ebfffc8a 	bl	84b4 <pack_hex_byte>
    9288:	e1a03000 	mov	r3, r0
    928c:	e50b303c 	str	r3, [fp, #-60]	; 0xffffffc4
    9290:	e51b3014 	ldr	r3, [fp, #-20]	; 0xffffffec
    9294:	e2033004 	and	r3, r3, #4
    9298:	e3530000 	cmp	r3, #0
    929c:	0a00000d 	beq	92d8 <stub_pkt_getthreadinfo+0x190>
    92a0:	e51b3028 	ldr	r3, [fp, #-40]	; 0xffffffd8
    92a4:	e3530000 	cmp	r3, #0
    92a8:	0a00000a 	beq	92d8 <stub_pkt_getthreadinfo+0x190>
    92ac:	e51b003c 	ldr	r0, [fp, #-60]	; 0xffffffc4
    92b0:	e3a01004 	mov	r1, #4
    92b4:	ebfffcf8 	bl	869c <pack_int>
    92b8:	e1a03000 	mov	r3, r0
    92bc:	e50b303c 	str	r3, [fp, #-60]	; 0xffffffc4
    92c0:	e51b3028 	ldr	r3, [fp, #-40]	; 0xffffffd8
    92c4:	e51b003c 	ldr	r0, [fp, #-60]	; 0xffffffc4
    92c8:	e1a01003 	mov	r1, r3
    92cc:	ebfffd1c 	bl	8744 <pack_string>
    92d0:	e1a03000 	mov	r3, r0
    92d4:	e50b303c 	str	r3, [fp, #-60]	; 0xffffffc4
    92d8:	e51b3014 	ldr	r3, [fp, #-20]	; 0xffffffec
    92dc:	e2033008 	and	r3, r3, #8
    92e0:	e3530000 	cmp	r3, #0
    92e4:	0a00000d 	beq	9320 <stub_pkt_getthreadinfo+0x1d8>
    92e8:	e51b3024 	ldr	r3, [fp, #-36]	; 0xffffffdc
    92ec:	e3530000 	cmp	r3, #0
    92f0:	0a00000a 	beq	9320 <stub_pkt_getthreadinfo+0x1d8>
    92f4:	e51b003c 	ldr	r0, [fp, #-60]	; 0xffffffc4
    92f8:	e3a01008 	mov	r1, #8
    92fc:	ebfffce6 	bl	869c <pack_int>
    9300:	e1a03000 	mov	r3, r0
    9304:	e50b303c 	str	r3, [fp, #-60]	; 0xffffffc4
    9308:	e51b3024 	ldr	r3, [fp, #-36]	; 0xffffffdc
    930c:	e51b003c 	ldr	r0, [fp, #-60]	; 0xffffffc4
    9310:	e1a01003 	mov	r1, r3
    9314:	ebfffd0a 	bl	8744 <pack_string>
    9318:	e1a03000 	mov	r3, r0
    931c:	e50b303c 	str	r3, [fp, #-60]	; 0xffffffc4
    9320:	e51b3014 	ldr	r3, [fp, #-20]	; 0xffffffec
    9324:	e2033010 	and	r3, r3, #16
    9328:	e3530000 	cmp	r3, #0
    932c:	0a000012 	beq	937c <stub_pkt_getthreadinfo+0x234>
    9330:	e51b3020 	ldr	r3, [fp, #-32]	; 0xffffffe0
    9334:	e3530000 	cmp	r3, #0
    9338:	0a00000f 	beq	937c <stub_pkt_getthreadinfo+0x234>
    933c:	e51b003c 	ldr	r0, [fp, #-60]	; 0xffffffc4
    9340:	e3a01010 	mov	r1, #16
    9344:	ebfffcd4 	bl	869c <pack_int>
    9348:	e1a03000 	mov	r3, r0
    934c:	e50b303c 	str	r3, [fp, #-60]	; 0xffffffc4
    9350:	e51b3020 	ldr	r3, [fp, #-32]	; 0xffffffe0
    9354:	e51b003c 	ldr	r0, [fp, #-60]	; 0xffffffc4
    9358:	e1a01003 	mov	r1, r3
    935c:	ebfffcf8 	bl	8744 <pack_string>
    9360:	e1a03000 	mov	r3, r0
    9364:	e50b303c 	str	r3, [fp, #-60]	; 0xffffffc4
    9368:	ea000003 	b	937c <stub_pkt_getthreadinfo+0x234>
    936c:	e51b003c 	ldr	r0, [fp, #-60]	; 0xffffffc4
    9370:	ebfffb8a 	bl	81a0 <stub_pack_nak>
    9374:	e1a03000 	mov	r3, r0
    9378:	e50b303c 	str	r3, [fp, #-60]	; 0xffffffc4
    937c:	e51b303c 	ldr	r3, [fp, #-60]	; 0xffffffc4
    9380:	e3a02000 	mov	r2, #0
    9384:	e5c32000 	strb	r2, [r3]
    9388:	e24bd00c 	sub	sp, fp, #12
    938c:	e89d6800 	ldm	sp, {fp, sp, lr}
    9390:	e12fff1e 	bx	lr

00009394 <stub_lock_scheduler>:
    9394:	e1a0c00d 	mov	ip, sp
    9398:	e92dd800 	push	{fp, ip, lr, pc}
    939c:	e24cb004 	sub	fp, ip, #4
    93a0:	e24dd018 	sub	sp, sp, #24
    93a4:	e50b0018 	str	r0, [fp, #-24]	; 0xffffffe8
    93a8:	e50b101c 	str	r1, [fp, #-28]	; 0xffffffe4
    93ac:	e50b2020 	str	r2, [fp, #-32]	; 0xffffffe0
    93b0:	e24b3014 	sub	r3, fp, #20
    93b4:	e1a00003 	mov	r0, r3
    93b8:	e51b1020 	ldr	r1, [fp, #-32]	; 0xffffffe0
    93bc:	ebfffd48 	bl	88e4 <int_to_threadref>
    93c0:	e24b3014 	sub	r3, fp, #20
    93c4:	e1a00003 	mov	r0, r3
    93c8:	e51b1018 	ldr	r1, [fp, #-24]	; 0xffffffe8
    93cc:	e51b201c 	ldr	r2, [fp, #-28]	; 0xffffffe4
    93d0:	eb00044d 	bl	a50c <dbg_scheduler>
    93d4:	e1a03000 	mov	r3, r0
    93d8:	e1a00003 	mov	r0, r3
    93dc:	e24bd00c 	sub	sp, fp, #12
    93e0:	e89d6800 	ldm	sp, {fp, sp, lr}
    93e4:	e12fff1e 	bx	lr

000093e8 <putDebugChar>:
    93e8:	e1a0c00d 	mov	ip, sp
    93ec:	e92dd800 	push	{fp, ip, lr, pc}
    93f0:	e24cb004 	sub	fp, ip, #4
    93f4:	e24dd010 	sub	sp, sp, #16
    93f8:	e50b0018 	str	r0, [fp, #-24]	; 0xffffffe8
    93fc:	eb00000a 	bl	942c <__call_vv_CYGNUM_CALL_IF_DEBUG_PROCS>
    9400:	e1a03000 	mov	r3, r0
    9404:	e50b3010 	str	r3, [fp, #-16]
    9408:	e51b2010 	ldr	r2, [fp, #-16]
    940c:	e51b3018 	ldr	r3, [fp, #-24]	; 0xffffffe8
    9410:	e20330ff 	and	r3, r3, #255	; 0xff
    9414:	e1a00002 	mov	r0, r2
    9418:	e1a01003 	mov	r1, r3
    941c:	eb00000c 	bl	9454 <__call_COMM_IF_PUTC>
    9420:	e24bd00c 	sub	sp, fp, #12
    9424:	e89d6800 	ldm	sp, {fp, sp, lr}
    9428:	e12fff1e 	bx	lr

0000942c <__call_vv_CYGNUM_CALL_IF_DEBUG_PROCS>:
    942c:	e1a0c00d 	mov	ip, sp
    9430:	e92dd800 	push	{fp, ip, lr, pc}
    9434:	e24cb004 	sub	fp, ip, #4
    9438:	e59f3010 	ldr	r3, [pc, #16]	; 9450 <__call_vv_CYGNUM_CALL_IF_DEBUG_PROCS+0x24>
    943c:	e5933018 	ldr	r3, [r3, #24]
    9440:	e1a00003 	mov	r0, r3
    9444:	e24bd00c 	sub	sp, fp, #12
    9448:	e89d6800 	ldm	sp, {fp, sp, lr}
    944c:	e12fff1e 	bx	lr
    9450:	40000050 	.word	0x40000050

00009454 <__call_COMM_IF_PUTC>:
    9454:	e1a0c00d 	mov	ip, sp
    9458:	e92dd800 	push	{fp, ip, lr, pc}
    945c:	e24cb004 	sub	fp, ip, #4
    9460:	e24dd010 	sub	sp, sp, #16
    9464:	e50b0018 	str	r0, [fp, #-24]	; 0xffffffe8
    9468:	e1a03001 	mov	r3, r1
    946c:	e54b3019 	strb	r3, [fp, #-25]	; 0xffffffe7
    9470:	e51b3018 	ldr	r3, [fp, #-24]	; 0xffffffe8
    9474:	e5933000 	ldr	r3, [r3]
    9478:	e50b3010 	str	r3, [fp, #-16]
    947c:	e51b3018 	ldr	r3, [fp, #-24]	; 0xffffffe8
    9480:	e283300c 	add	r3, r3, #12
    9484:	e5933000 	ldr	r3, [r3]
    9488:	e1a02003 	mov	r2, r3
    948c:	e55b3019 	ldrb	r3, [fp, #-25]	; 0xffffffe7
    9490:	e51b0010 	ldr	r0, [fp, #-16]
    9494:	e1a01003 	mov	r1, r3
    9498:	e1a0e00f 	mov	lr, pc
    949c:	e12fff12 	bx	r2
    94a0:	e24bd00c 	sub	sp, fp, #12
    94a4:	e89d6800 	ldm	sp, {fp, sp, lr}
    94a8:	e12fff1e 	bx	lr

000094ac <getDebugChar>:
    94ac:	e1a0c00d 	mov	ip, sp
    94b0:	e92dd800 	push	{fp, ip, lr, pc}
    94b4:	e24cb004 	sub	fp, ip, #4
    94b8:	e24dd008 	sub	sp, sp, #8
    94bc:	ebffffda 	bl	942c <__call_vv_CYGNUM_CALL_IF_DEBUG_PROCS>
    94c0:	e1a03000 	mov	r3, r0
    94c4:	e50b3010 	str	r3, [fp, #-16]
    94c8:	e51b3010 	ldr	r3, [fp, #-16]
    94cc:	e1a00003 	mov	r0, r3
    94d0:	eb000004 	bl	94e8 <__call_COMM_IF_GETC>
    94d4:	e1a03000 	mov	r3, r0
    94d8:	e1a00003 	mov	r0, r3
    94dc:	e24bd00c 	sub	sp, fp, #12
    94e0:	e89d6800 	ldm	sp, {fp, sp, lr}
    94e4:	e12fff1e 	bx	lr

000094e8 <__call_COMM_IF_GETC>:
    94e8:	e1a0c00d 	mov	ip, sp
    94ec:	e92dd800 	push	{fp, ip, lr, pc}
    94f0:	e24cb004 	sub	fp, ip, #4
    94f4:	e24dd010 	sub	sp, sp, #16
    94f8:	e50b0018 	str	r0, [fp, #-24]	; 0xffffffe8
    94fc:	e51b3018 	ldr	r3, [fp, #-24]	; 0xffffffe8
    9500:	e5933000 	ldr	r3, [r3]
    9504:	e50b3010 	str	r3, [fp, #-16]
    9508:	e51b3018 	ldr	r3, [fp, #-24]	; 0xffffffe8
    950c:	e2833010 	add	r3, r3, #16
    9510:	e5933000 	ldr	r3, [r3]
    9514:	e51b0010 	ldr	r0, [fp, #-16]
    9518:	e1a0e00f 	mov	lr, pc
    951c:	e12fff13 	bx	r3
    9520:	e1a03000 	mov	r3, r0
    9524:	e54b3011 	strb	r3, [fp, #-17]	; 0xffffffef
    9528:	e55b3011 	ldrb	r3, [fp, #-17]	; 0xffffffef
    952c:	e1a00003 	mov	r0, r3
    9530:	e24bd00c 	sub	sp, fp, #12
    9534:	e89d6800 	ldm	sp, {fp, sp, lr}
    9538:	e12fff1e 	bx	lr

0000953c <hal_flush_output>:
    953c:	e1a0c00d 	mov	ip, sp
    9540:	e92dd800 	push	{fp, ip, lr, pc}
    9544:	e24cb004 	sub	fp, ip, #4
    9548:	e24dd008 	sub	sp, sp, #8
    954c:	ebffffb6 	bl	942c <__call_vv_CYGNUM_CALL_IF_DEBUG_PROCS>
    9550:	e1a03000 	mov	r3, r0
    9554:	e50b3014 	str	r3, [fp, #-20]	; 0xffffffec
    9558:	e51b3014 	ldr	r3, [fp, #-20]	; 0xffffffec
    955c:	e5933014 	ldr	r3, [r3, #20]
    9560:	e1a02003 	mov	r2, r3
    9564:	e51b3014 	ldr	r3, [fp, #-20]	; 0xffffffec
    9568:	e5933000 	ldr	r3, [r3]
    956c:	e1a00003 	mov	r0, r3
    9570:	e3a01008 	mov	r1, #8
    9574:	e1a0e00f 	mov	lr, pc
    9578:	e12fff12 	bx	r2
    957c:	e1a03000 	mov	r3, r0
    9580:	e50b3010 	str	r3, [fp, #-16]
    9584:	e24bd00c 	sub	sp, fp, #12
    9588:	e89d6800 	ldm	sp, {fp, sp, lr}
    958c:	e12fff1e 	bx	lr

00009590 <__set_baud_rate>:
    9590:	e1a0c00d 	mov	ip, sp
    9594:	e92dd800 	push	{fp, ip, lr, pc}
    9598:	e24cb004 	sub	fp, ip, #4
    959c:	e24dd010 	sub	sp, sp, #16
    95a0:	e50b0018 	str	r0, [fp, #-24]	; 0xffffffe8
    95a4:	ebffffa0 	bl	942c <__call_vv_CYGNUM_CALL_IF_DEBUG_PROCS>
    95a8:	e1a03000 	mov	r3, r0
    95ac:	e50b3014 	str	r3, [fp, #-20]	; 0xffffffec
    95b0:	e51b3014 	ldr	r3, [fp, #-20]	; 0xffffffec
    95b4:	e5933014 	ldr	r3, [r3, #20]
    95b8:	e1a0c003 	mov	ip, r3
    95bc:	e51b3014 	ldr	r3, [fp, #-20]	; 0xffffffec
    95c0:	e5933000 	ldr	r3, [r3]
    95c4:	e1a00003 	mov	r0, r3
    95c8:	e3a01000 	mov	r1, #0
    95cc:	e51b2018 	ldr	r2, [fp, #-24]	; 0xffffffe8
    95d0:	e1a0e00f 	mov	lr, pc
    95d4:	e12fff1c 	bx	ip
    95d8:	e1a03000 	mov	r3, r0
    95dc:	e50b3010 	str	r3, [fp, #-16]
    95e0:	e24bd00c 	sub	sp, fp, #12
    95e4:	e89d6800 	ldm	sp, {fp, sp, lr}
    95e8:	e12fff1e 	bx	lr

000095ec <interruptible>:
    95ec:	e1a0c00d 	mov	ip, sp
    95f0:	e92dd800 	push	{fp, ip, lr, pc}
    95f4:	e24cb004 	sub	fp, ip, #4
    95f8:	e24dd018 	sub	sp, sp, #24
    95fc:	e50b0020 	str	r0, [fp, #-32]	; 0xffffffe0
    9600:	e51b3020 	ldr	r3, [fp, #-32]	; 0xffffffe0
    9604:	e3530000 	cmp	r3, #0
    9608:	0a00001a 	beq	9678 <interruptible+0x8c>
    960c:	e59f30cc 	ldr	r3, [pc, #204]	; 96e0 <interruptible+0xf4>
    9610:	e5933000 	ldr	r3, [r3]
    9614:	e2432001 	sub	r2, r3, #1
    9618:	e59f30c0 	ldr	r3, [pc, #192]	; 96e0 <interruptible+0xf4>
    961c:	e5832000 	str	r2, [r3]
    9620:	e59f30b8 	ldr	r3, [pc, #184]	; 96e0 <interruptible+0xf4>
    9624:	e5933000 	ldr	r3, [r3]
    9628:	e3530000 	cmp	r3, #0
    962c:	ca000028 	bgt	96d4 <interruptible+0xe8>
    9630:	e59f20a8 	ldr	r2, [pc, #168]	; 96e0 <interruptible+0xf4>
    9634:	e3a03000 	mov	r3, #0
    9638:	e5823000 	str	r3, [r2]
    963c:	ebffff7a 	bl	942c <__call_vv_CYGNUM_CALL_IF_DEBUG_PROCS>
    9640:	e1a03000 	mov	r3, r0
    9644:	e50b301c 	str	r3, [fp, #-28]	; 0xffffffe4
    9648:	e51b301c 	ldr	r3, [fp, #-28]	; 0xffffffe4
    964c:	e5933014 	ldr	r3, [r3, #20]
    9650:	e1a02003 	mov	r2, r3
    9654:	e51b301c 	ldr	r3, [fp, #-28]	; 0xffffffe4
    9658:	e5933000 	ldr	r3, [r3]
    965c:	e1a00003 	mov	r0, r3
    9660:	e3a01005 	mov	r1, #5
    9664:	e1a0e00f 	mov	lr, pc
    9668:	e12fff12 	bx	r2
    966c:	e1a03000 	mov	r3, r0
    9670:	e50b3018 	str	r3, [fp, #-24]	; 0xffffffe8
    9674:	ea000016 	b	96d4 <interruptible+0xe8>
    9678:	e59f3060 	ldr	r3, [pc, #96]	; 96e0 <interruptible+0xf4>
    967c:	e5933000 	ldr	r3, [r3]
    9680:	e2832001 	add	r2, r3, #1
    9684:	e59f3054 	ldr	r3, [pc, #84]	; 96e0 <interruptible+0xf4>
    9688:	e5832000 	str	r2, [r3]
    968c:	e59f304c 	ldr	r3, [pc, #76]	; 96e0 <interruptible+0xf4>
    9690:	e5933000 	ldr	r3, [r3]
    9694:	e3530001 	cmp	r3, #1
    9698:	1a00000d 	bne	96d4 <interruptible+0xe8>
    969c:	ebffff62 	bl	942c <__call_vv_CYGNUM_CALL_IF_DEBUG_PROCS>
    96a0:	e1a03000 	mov	r3, r0
    96a4:	e50b3014 	str	r3, [fp, #-20]	; 0xffffffec
    96a8:	e51b3014 	ldr	r3, [fp, #-20]	; 0xffffffec
    96ac:	e5933014 	ldr	r3, [r3, #20]
    96b0:	e1a02003 	mov	r2, r3
    96b4:	e51b3014 	ldr	r3, [fp, #-20]	; 0xffffffec
    96b8:	e5933000 	ldr	r3, [r3]
    96bc:	e1a00003 	mov	r0, r3
    96c0:	e3a01004 	mov	r1, #4
    96c4:	e1a0e00f 	mov	lr, pc
    96c8:	e12fff12 	bx	r2
    96cc:	e1a03000 	mov	r3, r0
    96d0:	e50b3010 	str	r3, [fp, #-16]
    96d4:	e24bd00c 	sub	sp, fp, #12
    96d8:	e89d6800 	ldm	sp, {fp, sp, lr}
    96dc:	e12fff1e 	bx	lr
    96e0:	810031b8 	.word	0x810031b8

000096e4 <return_from_stub>:
    96e4:	e1a0c00d 	mov	ip, sp
    96e8:	e92dd800 	push	{fp, ip, lr, pc}
    96ec:	e24cb004 	sub	fp, ip, #4
    96f0:	e24dd008 	sub	sp, sp, #8
    96f4:	e50b0010 	str	r0, [fp, #-16]
    96f8:	e51b0010 	ldr	r0, [fp, #-16]
    96fc:	eb000002 	bl	970c <__call_vv_CYGNUM_CALL_IF_MONITOR_RETURN>
    9700:	e24bd00c 	sub	sp, fp, #12
    9704:	e89d6800 	ldm	sp, {fp, sp, lr}
    9708:	e12fff1e 	bx	lr

0000970c <__call_vv_CYGNUM_CALL_IF_MONITOR_RETURN>:
    970c:	e1a0c00d 	mov	ip, sp
    9710:	e92dd800 	push	{fp, ip, lr, pc}
    9714:	e24cb004 	sub	fp, ip, #4
    9718:	e24dd008 	sub	sp, sp, #8
    971c:	e50b0010 	str	r0, [fp, #-16]
    9720:	e59f3018 	ldr	r3, [pc, #24]	; 9740 <__call_vv_CYGNUM_CALL_IF_MONITOR_RETURN+0x34>
    9724:	e5933054 	ldr	r3, [r3, #84]	; 0x54
    9728:	e51b0010 	ldr	r0, [fp, #-16]
    972c:	e1a0e00f 	mov	lr, pc
    9730:	e12fff13 	bx	r3
    9734:	e24bd00c 	sub	sp, fp, #12
    9738:	e89d6800 	ldm	sp, {fp, sp, lr}
    973c:	e12fff1e 	bx	lr
    9740:	40000050 	.word	0x40000050

00009744 <handle_exception_exit>:
    9744:	e1a0c00d 	mov	ip, sp
    9748:	e92dd800 	push	{fp, ip, lr, pc}
    974c:	e24cb004 	sub	fp, ip, #4
    9750:	e59f3010 	ldr	r3, [pc, #16]	; 9768 <handle_exception_exit+0x24>
    9754:	e1a00003 	mov	r0, r3
    9758:	eb00220f 	bl	11f9c <set_pc>
    975c:	e24bd00c 	sub	sp, fp, #12
    9760:	e89d6800 	ldm	sp, {fp, sp, lr}
    9764:	e12fff1e 	bx	lr
    9768:	000096e4 	.word	0x000096e4

0000976c <handle_exception_cleanup>:
    976c:	e1a0c00d 	mov	ip, sp
    9770:	e92dd800 	push	{fp, ip, lr, pc}
    9774:	e24cb004 	sub	fp, ip, #4
    9778:	e24dd010 	sub	sp, sp, #16
    977c:	e3a00000 	mov	r0, #0
    9780:	ebffff99 	bl	95ec <interruptible>
    9784:	e59f3174 	ldr	r3, [pc, #372]	; 9900 <handle_exception_cleanup+0x194>
    9788:	e50b3018 	str	r3, [fp, #-24]	; 0xffffffe8
    978c:	e3a03000 	mov	r3, #0
    9790:	e50b3014 	str	r3, [fp, #-20]	; 0xffffffec
    9794:	ea000009 	b	97c0 <handle_exception_cleanup+0x54>
    9798:	e51b1014 	ldr	r1, [fp, #-20]	; 0xffffffec
    979c:	e59f3160 	ldr	r3, [pc, #352]	; 9904 <handle_exception_cleanup+0x198>
    97a0:	e5932000 	ldr	r2, [r3]
    97a4:	e51b3014 	ldr	r3, [fp, #-20]	; 0xffffffec
    97a8:	e7922103 	ldr	r2, [r2, r3, lsl #2]
    97ac:	e51b3018 	ldr	r3, [fp, #-24]	; 0xffffffe8
    97b0:	e7832101 	str	r2, [r3, r1, lsl #2]
    97b4:	e51b3014 	ldr	r3, [fp, #-20]	; 0xffffffec
    97b8:	e2833001 	add	r3, r3, #1
    97bc:	e50b3014 	str	r3, [fp, #-20]	; 0xffffffec
    97c0:	e51b3014 	ldr	r3, [fp, #-20]	; 0xffffffec
    97c4:	e353000a 	cmp	r3, #10
    97c8:	dafffff2 	ble	9798 <handle_exception_cleanup+0x2c>
    97cc:	e59f3130 	ldr	r3, [pc, #304]	; 9904 <handle_exception_cleanup+0x198>
    97d0:	e5933000 	ldr	r3, [r3]
    97d4:	e593202c 	ldr	r2, [r3, #44]	; 0x2c
    97d8:	e51b3018 	ldr	r3, [fp, #-24]	; 0xffffffe8
    97dc:	e583202c 	str	r2, [r3, #44]	; 0x2c
    97e0:	e59f311c 	ldr	r3, [pc, #284]	; 9904 <handle_exception_cleanup+0x198>
    97e4:	e5933000 	ldr	r3, [r3]
    97e8:	e5932030 	ldr	r2, [r3, #48]	; 0x30
    97ec:	e51b3018 	ldr	r3, [fp, #-24]	; 0xffffffe8
    97f0:	e5832030 	str	r2, [r3, #48]	; 0x30
    97f4:	e59f3108 	ldr	r3, [pc, #264]	; 9904 <handle_exception_cleanup+0x198>
    97f8:	e5933000 	ldr	r3, [r3]
    97fc:	e5932034 	ldr	r2, [r3, #52]	; 0x34
    9800:	e51b3018 	ldr	r3, [fp, #-24]	; 0xffffffe8
    9804:	e5832034 	str	r2, [r3, #52]	; 0x34
    9808:	e59f30f4 	ldr	r3, [pc, #244]	; 9904 <handle_exception_cleanup+0x198>
    980c:	e5933000 	ldr	r3, [r3]
    9810:	e5932038 	ldr	r2, [r3, #56]	; 0x38
    9814:	e51b3018 	ldr	r3, [fp, #-24]	; 0xffffffe8
    9818:	e5832038 	str	r2, [r3, #56]	; 0x38
    981c:	e59f30e0 	ldr	r3, [pc, #224]	; 9904 <handle_exception_cleanup+0x198>
    9820:	e5933000 	ldr	r3, [r3]
    9824:	e593203c 	ldr	r2, [r3, #60]	; 0x3c
    9828:	e51b3018 	ldr	r3, [fp, #-24]	; 0xffffffe8
    982c:	e583203c 	str	r2, [r3, #60]	; 0x3c
    9830:	e59f30cc 	ldr	r3, [pc, #204]	; 9904 <handle_exception_cleanup+0x198>
    9834:	e5933000 	ldr	r3, [r3]
    9838:	e5932040 	ldr	r2, [r3, #64]	; 0x40
    983c:	e51b3018 	ldr	r3, [fp, #-24]	; 0xffffffe8
    9840:	e58320a4 	str	r2, [r3, #164]	; 0xa4
    9844:	e51b3018 	ldr	r3, [fp, #-24]	; 0xffffffe8
    9848:	e2833040 	add	r3, r3, #64	; 0x40
    984c:	e50b3010 	str	r3, [fp, #-16]
    9850:	e3a03000 	mov	r3, #0
    9854:	e50b3014 	str	r3, [fp, #-20]	; 0xffffffec
    9858:	ea000008 	b	9880 <handle_exception_cleanup+0x114>
    985c:	e51b2010 	ldr	r2, [fp, #-16]
    9860:	e3a03000 	mov	r3, #0
    9864:	e5823000 	str	r3, [r2]
    9868:	e51b3010 	ldr	r3, [fp, #-16]
    986c:	e2833004 	add	r3, r3, #4
    9870:	e50b3010 	str	r3, [fp, #-16]
    9874:	e51b3014 	ldr	r3, [fp, #-20]	; 0xffffffec
    9878:	e2833001 	add	r3, r3, #1
    987c:	e50b3014 	str	r3, [fp, #-20]	; 0xffffffec
    9880:	e51b3014 	ldr	r3, [fp, #-20]	; 0xffffffec
    9884:	e3530017 	cmp	r3, #23
    9888:	dafffff3 	ble	985c <handle_exception_cleanup+0xf0>
    988c:	e51b2018 	ldr	r2, [fp, #-24]	; 0xffffffe8
    9890:	e3a03000 	mov	r3, #0
    9894:	e58230a0 	str	r3, [r2, #160]	; 0xa0
    9898:	e59f2068 	ldr	r2, [pc, #104]	; 9908 <handle_exception_cleanup+0x19c>
    989c:	e59f305c 	ldr	r3, [pc, #92]	; 9900 <handle_exception_cleanup+0x194>
    98a0:	e5823000 	str	r3, [r2]
    98a4:	e59f3060 	ldr	r3, [pc, #96]	; 990c <handle_exception_cleanup+0x1a0>
    98a8:	e5933000 	ldr	r3, [r3]
    98ac:	e3530000 	cmp	r3, #0
    98b0:	0a000007 	beq	98d4 <handle_exception_cleanup+0x168>
    98b4:	e59f3050 	ldr	r3, [pc, #80]	; 990c <handle_exception_cleanup+0x1a0>
    98b8:	e3a02000 	mov	r2, #0
    98bc:	e5832000 	str	r2, [r3]
    98c0:	e3a0000f 	mov	r0, #15
    98c4:	eb0021ee 	bl	12084 <get_register>
    98c8:	e1a03000 	mov	r3, r0
    98cc:	e1a00003 	mov	r0, r3
    98d0:	eb002709 	bl	134fc <cyg_hal_gdb_remove_break>
    98d4:	e3a0000f 	mov	r0, #15
    98d8:	eb0021e9 	bl	12084 <get_register>
    98dc:	e1a03000 	mov	r3, r0
    98e0:	e1a00003 	mov	r0, r3
    98e4:	eb002704 	bl	134fc <cyg_hal_gdb_remove_break>
    98e8:	e1a02000 	mov	r2, r0
    98ec:	e59f301c 	ldr	r3, [pc, #28]	; 9910 <handle_exception_cleanup+0x1a4>
    98f0:	e5832000 	str	r2, [r3]
    98f4:	e24bd00c 	sub	sp, fp, #12
    98f8:	e89d6800 	ldm	sp, {fp, sp, lr}
    98fc:	e12fff1e 	bx	lr
    9900:	81005574 	.word	0x81005574
    9904:	8100561c 	.word	0x8100561c
    9908:	810002c4 	.word	0x810002c4
    990c:	81004424 	.word	0x81004424
    9910:	810056c8 	.word	0x810056c8

00009914 <handle_exception_init>:
    9914:	e1a0c00d 	mov	ip, sp
    9918:	e92dd800 	push	{fp, ip, lr, pc}
    991c:	e24cb004 	sub	fp, ip, #4
    9920:	e24dd008 	sub	sp, sp, #8
    9924:	e59f30cc 	ldr	r3, [pc, #204]	; 99f8 <handle_exception_init+0xe4>
    9928:	e50b3014 	str	r3, [fp, #-20]	; 0xffffffec
    992c:	e3a03000 	mov	r3, #0
    9930:	e50b3010 	str	r3, [fp, #-16]
    9934:	ea000009 	b	9960 <handle_exception_init+0x4c>
    9938:	e59f30bc 	ldr	r3, [pc, #188]	; 99fc <handle_exception_init+0xe8>
    993c:	e5931000 	ldr	r1, [r3]
    9940:	e51b0010 	ldr	r0, [fp, #-16]
    9944:	e51b2010 	ldr	r2, [fp, #-16]
    9948:	e51b3014 	ldr	r3, [fp, #-20]	; 0xffffffec
    994c:	e7933102 	ldr	r3, [r3, r2, lsl #2]
    9950:	e7813100 	str	r3, [r1, r0, lsl #2]
    9954:	e51b3010 	ldr	r3, [fp, #-16]
    9958:	e2833001 	add	r3, r3, #1
    995c:	e50b3010 	str	r3, [fp, #-16]
    9960:	e51b3010 	ldr	r3, [fp, #-16]
    9964:	e353000a 	cmp	r3, #10
    9968:	dafffff2 	ble	9938 <handle_exception_init+0x24>
    996c:	e59f3088 	ldr	r3, [pc, #136]	; 99fc <handle_exception_init+0xe8>
    9970:	e5932000 	ldr	r2, [r3]
    9974:	e51b3014 	ldr	r3, [fp, #-20]	; 0xffffffec
    9978:	e593302c 	ldr	r3, [r3, #44]	; 0x2c
    997c:	e582302c 	str	r3, [r2, #44]	; 0x2c
    9980:	e59f3074 	ldr	r3, [pc, #116]	; 99fc <handle_exception_init+0xe8>
    9984:	e5932000 	ldr	r2, [r3]
    9988:	e51b3014 	ldr	r3, [fp, #-20]	; 0xffffffec
    998c:	e5933030 	ldr	r3, [r3, #48]	; 0x30
    9990:	e5823030 	str	r3, [r2, #48]	; 0x30
    9994:	e59f3060 	ldr	r3, [pc, #96]	; 99fc <handle_exception_init+0xe8>
    9998:	e5932000 	ldr	r2, [r3]
    999c:	e51b3014 	ldr	r3, [fp, #-20]	; 0xffffffec
    99a0:	e5933034 	ldr	r3, [r3, #52]	; 0x34
    99a4:	e5823034 	str	r3, [r2, #52]	; 0x34
    99a8:	e59f304c 	ldr	r3, [pc, #76]	; 99fc <handle_exception_init+0xe8>
    99ac:	e5932000 	ldr	r2, [r3]
    99b0:	e51b3014 	ldr	r3, [fp, #-20]	; 0xffffffec
    99b4:	e5933038 	ldr	r3, [r3, #56]	; 0x38
    99b8:	e5823038 	str	r3, [r2, #56]	; 0x38
    99bc:	e59f3038 	ldr	r3, [pc, #56]	; 99fc <handle_exception_init+0xe8>
    99c0:	e5932000 	ldr	r2, [r3]
    99c4:	e51b3014 	ldr	r3, [fp, #-20]	; 0xffffffec
    99c8:	e593303c 	ldr	r3, [r3, #60]	; 0x3c
    99cc:	e582303c 	str	r3, [r2, #60]	; 0x3c
    99d0:	e59f3024 	ldr	r3, [pc, #36]	; 99fc <handle_exception_init+0xe8>
    99d4:	e5932000 	ldr	r2, [r3]
    99d8:	e51b3014 	ldr	r3, [fp, #-20]	; 0xffffffec
    99dc:	e59330a4 	ldr	r3, [r3, #164]	; 0xa4
    99e0:	e5823040 	str	r3, [r2, #64]	; 0x40
    99e4:	e3a00001 	mov	r0, #1
    99e8:	ebfffeff 	bl	95ec <interruptible>
    99ec:	e24bd00c 	sub	sp, fp, #12
    99f0:	e89d6800 	ldm	sp, {fp, sp, lr}
    99f4:	e12fff1e 	bx	lr
    99f8:	81005574 	.word	0x81005574
    99fc:	8100561c 	.word	0x8100561c

00009a00 <cyg_hal_process_signal>:
    9a00:	e1a0c00d 	mov	ip, sp
    9a04:	e92dd800 	push	{fp, ip, lr, pc}
    9a08:	e24cb004 	sub	fp, ip, #4
    9a0c:	e24dd008 	sub	sp, sp, #8
    9a10:	e50b0010 	str	r0, [fp, #-16]
    9a14:	e3a03000 	mov	r3, #0
    9a18:	e1a00003 	mov	r0, r3
    9a1c:	e24bd00c 	sub	sp, fp, #12
    9a20:	e89d6800 	ldm	sp, {fp, sp, lr}
    9a24:	e12fff1e 	bx	lr

00009a28 <__install_traps>:
    9a28:	e1a0c00d 	mov	ip, sp
    9a2c:	e92dd800 	push	{fp, ip, lr, pc}
    9a30:	e24cb004 	sub	fp, ip, #4
    9a34:	e59f2034 	ldr	r2, [pc, #52]	; 9a70 <__install_traps+0x48>
    9a38:	e59f3034 	ldr	r3, [pc, #52]	; 9a74 <__install_traps+0x4c>
    9a3c:	e5823000 	str	r3, [r2]
    9a40:	e59f2030 	ldr	r2, [pc, #48]	; 9a78 <__install_traps+0x50>
    9a44:	e59f3030 	ldr	r3, [pc, #48]	; 9a7c <__install_traps+0x54>
    9a48:	e5823000 	str	r3, [r2]
    9a4c:	e59f202c 	ldr	r2, [pc, #44]	; 9a80 <__install_traps+0x58>
    9a50:	e59f302c 	ldr	r3, [pc, #44]	; 9a84 <__install_traps+0x5c>
    9a54:	e5823000 	str	r3, [r2]
    9a58:	e59f2028 	ldr	r2, [pc, #40]	; 9a88 <__install_traps+0x60>
    9a5c:	e59f3028 	ldr	r3, [pc, #40]	; 9a8c <__install_traps+0x64>
    9a60:	e5823000 	str	r3, [r2]
    9a64:	e24bd00c 	sub	sp, fp, #12
    9a68:	e89d6800 	ldm	sp, {fp, sp, lr}
    9a6c:	e12fff1e 	bx	lr
    9a70:	81002d80 	.word	0x81002d80
    9a74:	00009a00 	.word	0x00009a00
    9a78:	810002b8 	.word	0x810002b8
    9a7c:	00009744 	.word	0x00009744
    9a80:	81002d88 	.word	0x81002d88
    9a84:	0000976c 	.word	0x0000976c
    9a88:	81002d84 	.word	0x81002d84
    9a8c:	00009914 	.word	0x00009914

00009a90 <initHardware>:
    9a90:	e1a0c00d 	mov	ip, sp
    9a94:	e92dd800 	push	{fp, ip, lr, pc}
    9a98:	e24cb004 	sub	fp, ip, #4
    9a9c:	e59f3024 	ldr	r3, [pc, #36]	; 9ac8 <initHardware+0x38>
    9aa0:	e5933000 	ldr	r3, [r3]
    9aa4:	e3530000 	cmp	r3, #0
    9aa8:	1a000003 	bne	9abc <initHardware+0x2c>
    9aac:	e59f2014 	ldr	r2, [pc, #20]	; 9ac8 <initHardware+0x38>
    9ab0:	e3a03001 	mov	r3, #1
    9ab4:	e5823000 	str	r3, [r2]
    9ab8:	ebffef2d 	bl	5774 <cyg_hal_plf_comms_init>
    9abc:	e24bd00c 	sub	sp, fp, #12
    9ac0:	e89d6800 	ldm	sp, {fp, sp, lr}
    9ac4:	e12fff1e 	bx	lr
    9ac8:	810031bc 	.word	0x810031bc

00009acc <__reset>:
    9acc:	e1a0c00d 	mov	ip, sp
    9ad0:	e92dd800 	push	{fp, ip, lr, pc}
    9ad4:	e24cb004 	sub	fp, ip, #4
    9ad8:	e24dd008 	sub	sp, sp, #8
    9adc:	e59f3028 	ldr	r3, [pc, #40]	; 9b0c <__reset+0x40>
    9ae0:	e5933040 	ldr	r3, [r3, #64]	; 0x40
    9ae4:	e50b3010 	str	r3, [fp, #-16]
    9ae8:	e51b3010 	ldr	r3, [fp, #-16]
    9aec:	e3530000 	cmp	r3, #0
    9af0:	0a000002 	beq	9b00 <__reset+0x34>
    9af4:	e51b3010 	ldr	r3, [fp, #-16]
    9af8:	e1a0e00f 	mov	lr, pc
    9afc:	e12fff13 	bx	r3
    9b00:	e24bd00c 	sub	sp, fp, #12
    9b04:	e89d6800 	ldm	sp, {fp, sp, lr}
    9b08:	e12fff1e 	bx	lr
    9b0c:	40000050 	.word	0x40000050

00009b10 <__build_t_packet>:
    9b10:	e1a0c00d 	mov	ip, sp
    9b14:	e92dd800 	push	{fp, ip, lr, pc}
    9b18:	e24cb004 	sub	fp, ip, #4
    9b1c:	e24dd020 	sub	sp, sp, #32
    9b20:	e50b0028 	str	r0, [fp, #-40]	; 0xffffffd8
    9b24:	e50b102c 	str	r1, [fp, #-44]	; 0xffffffd4
    9b28:	e51b302c 	ldr	r3, [fp, #-44]	; 0xffffffd4
    9b2c:	e50b3018 	str	r3, [fp, #-24]	; 0xffffffe8
    9b30:	e3a03000 	mov	r3, #0
    9b34:	e50b3020 	str	r3, [fp, #-32]	; 0xffffffe0
    9b38:	e51b2018 	ldr	r2, [fp, #-24]	; 0xffffffe8
    9b3c:	e3a03054 	mov	r3, #84	; 0x54
    9b40:	e5c23000 	strb	r3, [r2]
    9b44:	e51b3018 	ldr	r3, [fp, #-24]	; 0xffffffe8
    9b48:	e2833001 	add	r3, r3, #1
    9b4c:	e50b3018 	str	r3, [fp, #-24]	; 0xffffffe8
    9b50:	e51b3028 	ldr	r3, [fp, #-40]	; 0xffffffd8
    9b54:	e1a03243 	asr	r3, r3, #4
    9b58:	e1a00003 	mov	r0, r3
    9b5c:	ebffef84 	bl	5974 <__tohex>
    9b60:	e1a03000 	mov	r3, r0
    9b64:	e51b2018 	ldr	r2, [fp, #-24]	; 0xffffffe8
    9b68:	e5c23000 	strb	r3, [r2]
    9b6c:	e51b3018 	ldr	r3, [fp, #-24]	; 0xffffffe8
    9b70:	e2833001 	add	r3, r3, #1
    9b74:	e50b3018 	str	r3, [fp, #-24]	; 0xffffffe8
    9b78:	e51b0028 	ldr	r0, [fp, #-40]	; 0xffffffd8
    9b7c:	ebffef7c 	bl	5974 <__tohex>
    9b80:	e1a03000 	mov	r3, r0
    9b84:	e51b2018 	ldr	r2, [fp, #-24]	; 0xffffffe8
    9b88:	e5c23000 	strb	r3, [r2]
    9b8c:	e51b3018 	ldr	r3, [fp, #-24]	; 0xffffffe8
    9b90:	e2833001 	add	r3, r3, #1
    9b94:	e50b3018 	str	r3, [fp, #-24]	; 0xffffffe8
    9b98:	eb000298 	bl	a600 <dbg_currthread_id>
    9b9c:	e1a03000 	mov	r3, r0
    9ba0:	e50b3024 	str	r3, [fp, #-36]	; 0xffffffdc
    9ba4:	e51b3024 	ldr	r3, [fp, #-36]	; 0xffffffdc
    9ba8:	e3530000 	cmp	r3, #0
    9bac:	0a00005a 	beq	9d1c <__build_t_packet+0x20c>
    9bb0:	e51b2018 	ldr	r2, [fp, #-24]	; 0xffffffe8
    9bb4:	e3a03074 	mov	r3, #116	; 0x74
    9bb8:	e5c23000 	strb	r3, [r2]
    9bbc:	e51b3018 	ldr	r3, [fp, #-24]	; 0xffffffe8
    9bc0:	e2833001 	add	r3, r3, #1
    9bc4:	e50b3018 	str	r3, [fp, #-24]	; 0xffffffe8
    9bc8:	e51b2018 	ldr	r2, [fp, #-24]	; 0xffffffe8
    9bcc:	e3a03068 	mov	r3, #104	; 0x68
    9bd0:	e5c23000 	strb	r3, [r2]
    9bd4:	e51b3018 	ldr	r3, [fp, #-24]	; 0xffffffe8
    9bd8:	e2833001 	add	r3, r3, #1
    9bdc:	e50b3018 	str	r3, [fp, #-24]	; 0xffffffe8
    9be0:	e51b2018 	ldr	r2, [fp, #-24]	; 0xffffffe8
    9be4:	e3a03072 	mov	r3, #114	; 0x72
    9be8:	e5c23000 	strb	r3, [r2]
    9bec:	e51b3018 	ldr	r3, [fp, #-24]	; 0xffffffe8
    9bf0:	e2833001 	add	r3, r3, #1
    9bf4:	e50b3018 	str	r3, [fp, #-24]	; 0xffffffe8
    9bf8:	e51b2018 	ldr	r2, [fp, #-24]	; 0xffffffe8
    9bfc:	e3a03065 	mov	r3, #101	; 0x65
    9c00:	e5c23000 	strb	r3, [r2]
    9c04:	e51b3018 	ldr	r3, [fp, #-24]	; 0xffffffe8
    9c08:	e2833001 	add	r3, r3, #1
    9c0c:	e50b3018 	str	r3, [fp, #-24]	; 0xffffffe8
    9c10:	e51b2018 	ldr	r2, [fp, #-24]	; 0xffffffe8
    9c14:	e3a03061 	mov	r3, #97	; 0x61
    9c18:	e5c23000 	strb	r3, [r2]
    9c1c:	e51b3018 	ldr	r3, [fp, #-24]	; 0xffffffe8
    9c20:	e2833001 	add	r3, r3, #1
    9c24:	e50b3018 	str	r3, [fp, #-24]	; 0xffffffe8
    9c28:	e51b2018 	ldr	r2, [fp, #-24]	; 0xffffffe8
    9c2c:	e3a03064 	mov	r3, #100	; 0x64
    9c30:	e5c23000 	strb	r3, [r2]
    9c34:	e51b3018 	ldr	r3, [fp, #-24]	; 0xffffffe8
    9c38:	e2833001 	add	r3, r3, #1
    9c3c:	e50b3018 	str	r3, [fp, #-24]	; 0xffffffe8
    9c40:	e51b2018 	ldr	r2, [fp, #-24]	; 0xffffffe8
    9c44:	e3a0303a 	mov	r3, #58	; 0x3a
    9c48:	e5c23000 	strb	r3, [r2]
    9c4c:	e51b3018 	ldr	r3, [fp, #-24]	; 0xffffffe8
    9c50:	e2833001 	add	r3, r3, #1
    9c54:	e50b3018 	str	r3, [fp, #-24]	; 0xffffffe8
    9c58:	e24b3024 	sub	r3, fp, #36	; 0x24
    9c5c:	e50b3014 	str	r3, [fp, #-20]	; 0xffffffec
    9c60:	e51b3024 	ldr	r3, [fp, #-36]	; 0xffffffdc
    9c64:	e50b3010 	str	r3, [fp, #-16]
    9c68:	e51b3010 	ldr	r3, [fp, #-16]
    9c6c:	e1a03c23 	lsr	r3, r3, #24
    9c70:	e20330ff 	and	r3, r3, #255	; 0xff
    9c74:	e51b2014 	ldr	r2, [fp, #-20]	; 0xffffffec
    9c78:	e5c23000 	strb	r3, [r2]
    9c7c:	e51b3014 	ldr	r3, [fp, #-20]	; 0xffffffec
    9c80:	e2833001 	add	r3, r3, #1
    9c84:	e50b3014 	str	r3, [fp, #-20]	; 0xffffffec
    9c88:	e51b3010 	ldr	r3, [fp, #-16]
    9c8c:	e1a03843 	asr	r3, r3, #16
    9c90:	e20330ff 	and	r3, r3, #255	; 0xff
    9c94:	e51b2014 	ldr	r2, [fp, #-20]	; 0xffffffec
    9c98:	e5c23000 	strb	r3, [r2]
    9c9c:	e51b3014 	ldr	r3, [fp, #-20]	; 0xffffffec
    9ca0:	e2833001 	add	r3, r3, #1
    9ca4:	e50b3014 	str	r3, [fp, #-20]	; 0xffffffec
    9ca8:	e51b3010 	ldr	r3, [fp, #-16]
    9cac:	e1a03443 	asr	r3, r3, #8
    9cb0:	e20330ff 	and	r3, r3, #255	; 0xff
    9cb4:	e51b2014 	ldr	r2, [fp, #-20]	; 0xffffffec
    9cb8:	e5c23000 	strb	r3, [r2]
    9cbc:	e51b3014 	ldr	r3, [fp, #-20]	; 0xffffffec
    9cc0:	e2833001 	add	r3, r3, #1
    9cc4:	e50b3014 	str	r3, [fp, #-20]	; 0xffffffec
    9cc8:	e51b3010 	ldr	r3, [fp, #-16]
    9ccc:	e20330ff 	and	r3, r3, #255	; 0xff
    9cd0:	e51b2014 	ldr	r2, [fp, #-20]	; 0xffffffec
    9cd4:	e5c23000 	strb	r3, [r2]
    9cd8:	e51b3014 	ldr	r3, [fp, #-20]	; 0xffffffec
    9cdc:	e2833001 	add	r3, r3, #1
    9ce0:	e50b3014 	str	r3, [fp, #-20]	; 0xffffffec
    9ce4:	e24b3024 	sub	r3, fp, #36	; 0x24
    9ce8:	e1a00003 	mov	r0, r3
    9cec:	e51b1018 	ldr	r1, [fp, #-24]	; 0xffffffe8
    9cf0:	e3a02004 	mov	r2, #4
    9cf4:	e3a03000 	mov	r3, #0
    9cf8:	ebfff107 	bl	611c <__mem2hex>
    9cfc:	e1a03000 	mov	r3, r0
    9d00:	e50b3018 	str	r3, [fp, #-24]	; 0xffffffe8
    9d04:	e51b2018 	ldr	r2, [fp, #-24]	; 0xffffffe8
    9d08:	e3a0303b 	mov	r3, #59	; 0x3b
    9d0c:	e5c23000 	strb	r3, [r2]
    9d10:	e51b3018 	ldr	r3, [fp, #-24]	; 0xffffffe8
    9d14:	e2833001 	add	r3, r3, #1
    9d18:	e50b3018 	str	r3, [fp, #-24]	; 0xffffffe8
    9d1c:	e3a00000 	mov	r0, #0
    9d20:	ebffef13 	bl	5974 <__tohex>
    9d24:	e1a03000 	mov	r3, r0
    9d28:	e51b2018 	ldr	r2, [fp, #-24]	; 0xffffffe8
    9d2c:	e5c23000 	strb	r3, [r2]
    9d30:	e51b3018 	ldr	r3, [fp, #-24]	; 0xffffffe8
    9d34:	e2833001 	add	r3, r3, #1
    9d38:	e50b3018 	str	r3, [fp, #-24]	; 0xffffffe8
    9d3c:	e3a0000f 	mov	r0, #15
    9d40:	ebffef0b 	bl	5974 <__tohex>
    9d44:	e1a03000 	mov	r3, r0
    9d48:	e51b2018 	ldr	r2, [fp, #-24]	; 0xffffffe8
    9d4c:	e5c23000 	strb	r3, [r2]
    9d50:	e51b3018 	ldr	r3, [fp, #-24]	; 0xffffffe8
    9d54:	e2833001 	add	r3, r3, #1
    9d58:	e50b3018 	str	r3, [fp, #-24]	; 0xffffffe8
    9d5c:	e51b2018 	ldr	r2, [fp, #-24]	; 0xffffffe8
    9d60:	e3a0303a 	mov	r3, #58	; 0x3a
    9d64:	e5c23000 	strb	r3, [r2]
    9d68:	e51b3018 	ldr	r3, [fp, #-24]	; 0xffffffe8
    9d6c:	e2833001 	add	r3, r3, #1
    9d70:	e50b3018 	str	r3, [fp, #-24]	; 0xffffffe8
    9d74:	e3a0000f 	mov	r0, #15
    9d78:	eb0020c1 	bl	12084 <get_register>
    9d7c:	e1a03000 	mov	r3, r0
    9d80:	e50b301c 	str	r3, [fp, #-28]	; 0xffffffe4
    9d84:	e24b301c 	sub	r3, fp, #28
    9d88:	e1a00003 	mov	r0, r3
    9d8c:	e51b1018 	ldr	r1, [fp, #-24]	; 0xffffffe8
    9d90:	e3a02004 	mov	r2, #4
    9d94:	e3a03000 	mov	r3, #0
    9d98:	ebfff0df 	bl	611c <__mem2hex>
    9d9c:	e1a03000 	mov	r3, r0
    9da0:	e50b3018 	str	r3, [fp, #-24]	; 0xffffffe8
    9da4:	e24b3020 	sub	r3, fp, #32
    9da8:	e1a00003 	mov	r0, r3
    9dac:	e51b1018 	ldr	r1, [fp, #-24]	; 0xffffffe8
    9db0:	e3a02000 	mov	r2, #0
    9db4:	e3a03000 	mov	r3, #0
    9db8:	ebfff0d7 	bl	611c <__mem2hex>
    9dbc:	e1a03000 	mov	r3, r0
    9dc0:	e50b3018 	str	r3, [fp, #-24]	; 0xffffffe8
    9dc4:	e51b2018 	ldr	r2, [fp, #-24]	; 0xffffffe8
    9dc8:	e3a0303b 	mov	r3, #59	; 0x3b
    9dcc:	e5c23000 	strb	r3, [r2]
    9dd0:	e51b3018 	ldr	r3, [fp, #-24]	; 0xffffffe8
    9dd4:	e2833001 	add	r3, r3, #1
    9dd8:	e50b3018 	str	r3, [fp, #-24]	; 0xffffffe8
    9ddc:	e3a00000 	mov	r0, #0
    9de0:	ebffeee3 	bl	5974 <__tohex>
    9de4:	e1a03000 	mov	r3, r0
    9de8:	e51b2018 	ldr	r2, [fp, #-24]	; 0xffffffe8
    9dec:	e5c23000 	strb	r3, [r2]
    9df0:	e51b3018 	ldr	r3, [fp, #-24]	; 0xffffffe8
    9df4:	e2833001 	add	r3, r3, #1
    9df8:	e50b3018 	str	r3, [fp, #-24]	; 0xffffffe8
    9dfc:	e3a0000d 	mov	r0, #13
    9e00:	ebffeedb 	bl	5974 <__tohex>
    9e04:	e1a03000 	mov	r3, r0
    9e08:	e51b2018 	ldr	r2, [fp, #-24]	; 0xffffffe8
    9e0c:	e5c23000 	strb	r3, [r2]
    9e10:	e51b3018 	ldr	r3, [fp, #-24]	; 0xffffffe8
    9e14:	e2833001 	add	r3, r3, #1
    9e18:	e50b3018 	str	r3, [fp, #-24]	; 0xffffffe8
    9e1c:	e51b2018 	ldr	r2, [fp, #-24]	; 0xffffffe8
    9e20:	e3a0303a 	mov	r3, #58	; 0x3a
    9e24:	e5c23000 	strb	r3, [r2]
    9e28:	e51b3018 	ldr	r3, [fp, #-24]	; 0xffffffe8
    9e2c:	e2833001 	add	r3, r3, #1
    9e30:	e50b3018 	str	r3, [fp, #-24]	; 0xffffffe8
    9e34:	e3a0000d 	mov	r0, #13
    9e38:	eb002091 	bl	12084 <get_register>
    9e3c:	e1a03000 	mov	r3, r0
    9e40:	e50b301c 	str	r3, [fp, #-28]	; 0xffffffe4
    9e44:	e24b301c 	sub	r3, fp, #28
    9e48:	e1a00003 	mov	r0, r3
    9e4c:	e51b1018 	ldr	r1, [fp, #-24]	; 0xffffffe8
    9e50:	e3a02004 	mov	r2, #4
    9e54:	e3a03000 	mov	r3, #0
    9e58:	ebfff0af 	bl	611c <__mem2hex>
    9e5c:	e1a03000 	mov	r3, r0
    9e60:	e50b3018 	str	r3, [fp, #-24]	; 0xffffffe8
    9e64:	e51b2018 	ldr	r2, [fp, #-24]	; 0xffffffe8
    9e68:	e3a0303b 	mov	r3, #59	; 0x3b
    9e6c:	e5c23000 	strb	r3, [r2]
    9e70:	e51b3018 	ldr	r3, [fp, #-24]	; 0xffffffe8
    9e74:	e2833001 	add	r3, r3, #1
    9e78:	e50b3018 	str	r3, [fp, #-24]	; 0xffffffe8
    9e7c:	e51b2018 	ldr	r2, [fp, #-24]	; 0xffffffe8
    9e80:	e3a03000 	mov	r3, #0
    9e84:	e5c23000 	strb	r3, [r2]
    9e88:	e51b3018 	ldr	r3, [fp, #-24]	; 0xffffffe8
    9e8c:	e2833001 	add	r3, r3, #1
    9e90:	e50b3018 	str	r3, [fp, #-24]	; 0xffffffe8
    9e94:	e24bd00c 	sub	sp, fp, #12
    9e98:	e89d6800 	ldm	sp, {fp, sp, lr}
    9e9c:	e12fff1e 	bx	lr

00009ea0 <__instruction_cache>:
    9ea0:	e1a0c00d 	mov	ip, sp
    9ea4:	e92dd800 	push	{fp, ip, lr, pc}
    9ea8:	e24cb004 	sub	fp, ip, #4
    9eac:	e24dd010 	sub	sp, sp, #16
    9eb0:	e1a03000 	mov	r3, r0
    9eb4:	e54b3015 	strb	r3, [fp, #-21]	; 0xffffffeb
    9eb8:	e3a03001 	mov	r3, #1
    9ebc:	e50b3010 	str	r3, [fp, #-16]
    9ec0:	e55b3015 	ldrb	r3, [fp, #-21]	; 0xffffffeb
    9ec4:	e50b301c 	str	r3, [fp, #-28]	; 0xffffffe4
    9ec8:	e51b301c 	ldr	r3, [fp, #-28]	; 0xffffffe4
    9ecc:	e3530001 	cmp	r3, #1
    9ed0:	0a000004 	beq	9ee8 <__instruction_cache+0x48>
    9ed4:	e51b301c 	ldr	r3, [fp, #-28]	; 0xffffffe4
    9ed8:	e3530002 	cmp	r3, #2
    9edc:	1a000001 	bne	9ee8 <__instruction_cache+0x48>
    9ee0:	e3a03000 	mov	r3, #0
    9ee4:	e50b3010 	str	r3, [fp, #-16]
    9ee8:	e3a03000 	mov	r3, #0
    9eec:	e50b3010 	str	r3, [fp, #-16]
    9ef0:	e51b3010 	ldr	r3, [fp, #-16]
    9ef4:	e1a00003 	mov	r0, r3
    9ef8:	e24bd00c 	sub	sp, fp, #12
    9efc:	e89d6800 	ldm	sp, {fp, sp, lr}
    9f00:	e12fff1e 	bx	lr

00009f04 <__data_cache>:
    9f04:	e1a0c00d 	mov	ip, sp
    9f08:	e92dd800 	push	{fp, ip, lr, pc}
    9f0c:	e24cb004 	sub	fp, ip, #4
    9f10:	e24dd010 	sub	sp, sp, #16
    9f14:	e1a03000 	mov	r3, r0
    9f18:	e54b3015 	strb	r3, [fp, #-21]	; 0xffffffeb
    9f1c:	e3a03001 	mov	r3, #1
    9f20:	e50b3010 	str	r3, [fp, #-16]
    9f24:	e55b3015 	ldrb	r3, [fp, #-21]	; 0xffffffeb
    9f28:	e50b301c 	str	r3, [fp, #-28]	; 0xffffffe4
    9f2c:	e51b301c 	ldr	r3, [fp, #-28]	; 0xffffffe4
    9f30:	e3530001 	cmp	r3, #1
    9f34:	0a000004 	beq	9f4c <__data_cache+0x48>
    9f38:	e51b301c 	ldr	r3, [fp, #-28]	; 0xffffffe4
    9f3c:	e3530002 	cmp	r3, #2
    9f40:	1a000001 	bne	9f4c <__data_cache+0x48>
    9f44:	e3a03000 	mov	r3, #0
    9f48:	e50b3010 	str	r3, [fp, #-16]
    9f4c:	e3a03000 	mov	r3, #0
    9f50:	e50b3010 	str	r3, [fp, #-16]
    9f54:	e51b3010 	ldr	r3, [fp, #-16]
    9f58:	e1a00003 	mov	r0, r3
    9f5c:	e24bd00c 	sub	sp, fp, #12
    9f60:	e89d6800 	ldm	sp, {fp, sp, lr}
    9f64:	e12fff1e 	bx	lr

00009f68 <__do_copy_mem>:
    9f68:	e1a0c00d 	mov	ip, sp
    9f6c:	e92dd800 	push	{fp, ip, lr, pc}
    9f70:	e24cb004 	sub	fp, ip, #4
    9f74:	e24dd018 	sub	sp, sp, #24
    9f78:	e50b0020 	str	r0, [fp, #-32]	; 0xffffffe0
    9f7c:	e50b1024 	str	r1, [fp, #-36]	; 0xffffffdc
    9f80:	e59f31b4 	ldr	r3, [pc, #436]	; a13c <__do_copy_mem+0x1d4>
    9f84:	e5933000 	ldr	r3, [r3]
    9f88:	e3530000 	cmp	r3, #0
    9f8c:	0a000064 	beq	a124 <__do_copy_mem+0x1bc>
    9f90:	e59f21a8 	ldr	r2, [pc, #424]	; a140 <__do_copy_mem+0x1d8>
    9f94:	e3a03001 	mov	r3, #1
    9f98:	e5823000 	str	r3, [r2]
    9f9c:	e59f21a0 	ldr	r2, [pc, #416]	; a144 <__do_copy_mem+0x1dc>
    9fa0:	e59f31a0 	ldr	r3, [pc, #416]	; a148 <__do_copy_mem+0x1e0>
    9fa4:	e5823000 	str	r3, [r2]
    9fa8:	ea000056 	b	a108 <__do_copy_mem+0x1a0>
    9fac:	e59f3188 	ldr	r3, [pc, #392]	; a13c <__do_copy_mem+0x1d4>
    9fb0:	e5933000 	ldr	r3, [r3]
    9fb4:	e3530003 	cmp	r3, #3
    9fb8:	9a00001f 	bls	a03c <__do_copy_mem+0xd4>
    9fbc:	e51b3024 	ldr	r3, [fp, #-36]	; 0xffffffdc
    9fc0:	e2033003 	and	r3, r3, #3
    9fc4:	e3530000 	cmp	r3, #0
    9fc8:	1a00001b 	bne	a03c <__do_copy_mem+0xd4>
    9fcc:	e51b3020 	ldr	r3, [fp, #-32]	; 0xffffffe0
    9fd0:	e2033003 	and	r3, r3, #3
    9fd4:	e3530000 	cmp	r3, #0
    9fd8:	1a000017 	bne	a03c <__do_copy_mem+0xd4>
    9fdc:	e51b3024 	ldr	r3, [fp, #-36]	; 0xffffffdc
    9fe0:	e50b301c 	str	r3, [fp, #-28]	; 0xffffffe4
    9fe4:	e51b3020 	ldr	r3, [fp, #-32]	; 0xffffffe0
    9fe8:	e50b3018 	str	r3, [fp, #-24]	; 0xffffffe8
    9fec:	e51b3018 	ldr	r3, [fp, #-24]	; 0xffffffe8
    9ff0:	e5932000 	ldr	r2, [r3]
    9ff4:	e51b301c 	ldr	r3, [fp, #-28]	; 0xffffffe4
    9ff8:	e5832000 	str	r2, [r3]
    9ffc:	e51b301c 	ldr	r3, [fp, #-28]	; 0xffffffe4
    a000:	e2833004 	add	r3, r3, #4
    a004:	e50b301c 	str	r3, [fp, #-28]	; 0xffffffe4
    a008:	e51b3018 	ldr	r3, [fp, #-24]	; 0xffffffe8
    a00c:	e2833004 	add	r3, r3, #4
    a010:	e50b3018 	str	r3, [fp, #-24]	; 0xffffffe8
    a014:	e59f3120 	ldr	r3, [pc, #288]	; a13c <__do_copy_mem+0x1d4>
    a018:	e5933000 	ldr	r3, [r3]
    a01c:	e2432004 	sub	r2, r3, #4
    a020:	e59f3114 	ldr	r3, [pc, #276]	; a13c <__do_copy_mem+0x1d4>
    a024:	e5832000 	str	r2, [r3]
    a028:	e51b301c 	ldr	r3, [fp, #-28]	; 0xffffffe4
    a02c:	e50b3024 	str	r3, [fp, #-36]	; 0xffffffdc
    a030:	e51b3018 	ldr	r3, [fp, #-24]	; 0xffffffe8
    a034:	e50b3020 	str	r3, [fp, #-32]	; 0xffffffe0
    a038:	ea000032 	b	a108 <__do_copy_mem+0x1a0>
    a03c:	e59f30f8 	ldr	r3, [pc, #248]	; a13c <__do_copy_mem+0x1d4>
    a040:	e5933000 	ldr	r3, [r3]
    a044:	e3530001 	cmp	r3, #1
    a048:	9a00001f 	bls	a0cc <__do_copy_mem+0x164>
    a04c:	e51b3024 	ldr	r3, [fp, #-36]	; 0xffffffdc
    a050:	e2033001 	and	r3, r3, #1
    a054:	e3530000 	cmp	r3, #0
    a058:	1a00001b 	bne	a0cc <__do_copy_mem+0x164>
    a05c:	e51b3020 	ldr	r3, [fp, #-32]	; 0xffffffe0
    a060:	e2033001 	and	r3, r3, #1
    a064:	e3530000 	cmp	r3, #0
    a068:	1a000017 	bne	a0cc <__do_copy_mem+0x164>
    a06c:	e51b3024 	ldr	r3, [fp, #-36]	; 0xffffffdc
    a070:	e50b3014 	str	r3, [fp, #-20]	; 0xffffffec
    a074:	e51b3020 	ldr	r3, [fp, #-32]	; 0xffffffe0
    a078:	e50b3010 	str	r3, [fp, #-16]
    a07c:	e51b3010 	ldr	r3, [fp, #-16]
    a080:	e1d320b0 	ldrh	r2, [r3]
    a084:	e51b3014 	ldr	r3, [fp, #-20]	; 0xffffffec
    a088:	e1c320b0 	strh	r2, [r3]
    a08c:	e51b3014 	ldr	r3, [fp, #-20]	; 0xffffffec
    a090:	e2833002 	add	r3, r3, #2
    a094:	e50b3014 	str	r3, [fp, #-20]	; 0xffffffec
    a098:	e51b3010 	ldr	r3, [fp, #-16]
    a09c:	e2833002 	add	r3, r3, #2
    a0a0:	e50b3010 	str	r3, [fp, #-16]
    a0a4:	e59f3090 	ldr	r3, [pc, #144]	; a13c <__do_copy_mem+0x1d4>
    a0a8:	e5933000 	ldr	r3, [r3]
    a0ac:	e2432002 	sub	r2, r3, #2
    a0b0:	e59f3084 	ldr	r3, [pc, #132]	; a13c <__do_copy_mem+0x1d4>
    a0b4:	e5832000 	str	r2, [r3]
    a0b8:	e51b3014 	ldr	r3, [fp, #-20]	; 0xffffffec
    a0bc:	e50b3024 	str	r3, [fp, #-36]	; 0xffffffdc
    a0c0:	e51b3010 	ldr	r3, [fp, #-16]
    a0c4:	e50b3020 	str	r3, [fp, #-32]	; 0xffffffe0
    a0c8:	ea00000e 	b	a108 <__do_copy_mem+0x1a0>
    a0cc:	e51b3020 	ldr	r3, [fp, #-32]	; 0xffffffe0
    a0d0:	e5d33000 	ldrb	r3, [r3]
    a0d4:	e51b2024 	ldr	r2, [fp, #-36]	; 0xffffffdc
    a0d8:	e5c23000 	strb	r3, [r2]
    a0dc:	e51b3024 	ldr	r3, [fp, #-36]	; 0xffffffdc
    a0e0:	e2833001 	add	r3, r3, #1
    a0e4:	e50b3024 	str	r3, [fp, #-36]	; 0xffffffdc
    a0e8:	e51b3020 	ldr	r3, [fp, #-32]	; 0xffffffe0
    a0ec:	e2833001 	add	r3, r3, #1
    a0f0:	e50b3020 	str	r3, [fp, #-32]	; 0xffffffe0
    a0f4:	e59f3040 	ldr	r3, [pc, #64]	; a13c <__do_copy_mem+0x1d4>
    a0f8:	e5933000 	ldr	r3, [r3]
    a0fc:	e2432001 	sub	r2, r3, #1
    a100:	e59f3034 	ldr	r3, [pc, #52]	; a13c <__do_copy_mem+0x1d4>
    a104:	e5832000 	str	r2, [r3]
    a108:	e59f302c 	ldr	r3, [pc, #44]	; a13c <__do_copy_mem+0x1d4>
    a10c:	e5933000 	ldr	r3, [r3]
    a110:	e3530000 	cmp	r3, #0
    a114:	1affffa4 	bne	9fac <__do_copy_mem+0x44>
    a118:	e59f2020 	ldr	r2, [pc, #32]	; a140 <__do_copy_mem+0x1d8>
    a11c:	e3a03000 	mov	r3, #0
    a120:	e5823000 	str	r3, [r2]
    a124:	e59f2018 	ldr	r2, [pc, #24]	; a144 <__do_copy_mem+0x1dc>
    a128:	e3a03000 	mov	r3, #0
    a12c:	e5823000 	str	r3, [r2]
    a130:	e24bd00c 	sub	sp, fp, #12
    a134:	e89d6800 	ldm	sp, {fp, sp, lr}
    a138:	e12fff1e 	bx	lr
    a13c:	810031c4 	.word	0x810031c4
    a140:	81002d8c 	.word	0x81002d8c
    a144:	810031c0 	.word	0x810031c0
    a148:	0000a124 	.word	0x0000a124

0000a14c <__read_mem_safe>:
    a14c:	e1a0c00d 	mov	ip, sp
    a150:	e92dd800 	push	{fp, ip, lr, pc}
    a154:	e24cb004 	sub	fp, ip, #4
    a158:	e24dd010 	sub	sp, sp, #16
    a15c:	e50b0010 	str	r0, [fp, #-16]
    a160:	e50b1014 	str	r1, [fp, #-20]	; 0xffffffec
    a164:	e50b2018 	str	r2, [fp, #-24]	; 0xffffffe8
    a168:	e51b2018 	ldr	r2, [fp, #-24]	; 0xffffffe8
    a16c:	e59f3034 	ldr	r3, [pc, #52]	; a1a8 <__read_mem_safe+0x5c>
    a170:	e5832000 	str	r2, [r3]
    a174:	e51b3014 	ldr	r3, [fp, #-20]	; 0xffffffec
    a178:	e51b2010 	ldr	r2, [fp, #-16]
    a17c:	e1a00003 	mov	r0, r3
    a180:	e1a01002 	mov	r1, r2
    a184:	ebffff77 	bl	9f68 <__do_copy_mem>
    a188:	e51b2018 	ldr	r2, [fp, #-24]	; 0xffffffe8
    a18c:	e59f3014 	ldr	r3, [pc, #20]	; a1a8 <__read_mem_safe+0x5c>
    a190:	e5933000 	ldr	r3, [r3]
    a194:	e0633002 	rsb	r3, r3, r2
    a198:	e1a00003 	mov	r0, r3
    a19c:	e24bd00c 	sub	sp, fp, #12
    a1a0:	e89d6800 	ldm	sp, {fp, sp, lr}
    a1a4:	e12fff1e 	bx	lr
    a1a8:	810031c4 	.word	0x810031c4

0000a1ac <__write_mem_safe>:
    a1ac:	e1a0c00d 	mov	ip, sp
    a1b0:	e92dd800 	push	{fp, ip, lr, pc}
    a1b4:	e24cb004 	sub	fp, ip, #4
    a1b8:	e24dd010 	sub	sp, sp, #16
    a1bc:	e50b0010 	str	r0, [fp, #-16]
    a1c0:	e50b1014 	str	r1, [fp, #-20]	; 0xffffffec
    a1c4:	e50b2018 	str	r2, [fp, #-24]	; 0xffffffe8
    a1c8:	e51b2018 	ldr	r2, [fp, #-24]	; 0xffffffe8
    a1cc:	e59f3034 	ldr	r3, [pc, #52]	; a208 <__write_mem_safe+0x5c>
    a1d0:	e5832000 	str	r2, [r3]
    a1d4:	e51b3010 	ldr	r3, [fp, #-16]
    a1d8:	e51b2014 	ldr	r2, [fp, #-20]	; 0xffffffec
    a1dc:	e1a00003 	mov	r0, r3
    a1e0:	e1a01002 	mov	r1, r2
    a1e4:	ebffff5f 	bl	9f68 <__do_copy_mem>
    a1e8:	e51b2018 	ldr	r2, [fp, #-24]	; 0xffffffe8
    a1ec:	e59f3014 	ldr	r3, [pc, #20]	; a208 <__write_mem_safe+0x5c>
    a1f0:	e5933000 	ldr	r3, [r3]
    a1f4:	e0633002 	rsb	r3, r3, r2
    a1f8:	e1a00003 	mov	r0, r3
    a1fc:	e24bd00c 	sub	sp, fp, #12
    a200:	e89d6800 	ldm	sp, {fp, sp, lr}
    a204:	e12fff1e 	bx	lr
    a208:	810031c4 	.word	0x810031c4

0000a20c <__process_target_query>:
    a20c:	e1a0c00d 	mov	ip, sp
    a210:	e92dd800 	push	{fp, ip, lr, pc}
    a214:	e24cb004 	sub	fp, ip, #4
    a218:	e24dd010 	sub	sp, sp, #16
    a21c:	e50b0010 	str	r0, [fp, #-16]
    a220:	e50b1014 	str	r1, [fp, #-20]	; 0xffffffec
    a224:	e50b2018 	str	r2, [fp, #-24]	; 0xffffffe8
    a228:	e3a03000 	mov	r3, #0
    a22c:	e1a00003 	mov	r0, r3
    a230:	e24bd00c 	sub	sp, fp, #12
    a234:	e89d6800 	ldm	sp, {fp, sp, lr}
    a238:	e12fff1e 	bx	lr

0000a23c <__process_target_set>:
    a23c:	e1a0c00d 	mov	ip, sp
    a240:	e92dd800 	push	{fp, ip, lr, pc}
    a244:	e24cb004 	sub	fp, ip, #4
    a248:	e24dd010 	sub	sp, sp, #16
    a24c:	e50b0010 	str	r0, [fp, #-16]
    a250:	e50b1014 	str	r1, [fp, #-20]	; 0xffffffec
    a254:	e50b2018 	str	r2, [fp, #-24]	; 0xffffffe8
    a258:	e3a03000 	mov	r3, #0
    a25c:	e1a00003 	mov	r0, r3
    a260:	e24bd00c 	sub	sp, fp, #12
    a264:	e89d6800 	ldm	sp, {fp, sp, lr}
    a268:	e12fff1e 	bx	lr

0000a26c <__process_target_packet>:
    a26c:	e1a0c00d 	mov	ip, sp
    a270:	e92dd800 	push	{fp, ip, lr, pc}
    a274:	e24cb004 	sub	fp, ip, #4
    a278:	e24dd010 	sub	sp, sp, #16
    a27c:	e50b0010 	str	r0, [fp, #-16]
    a280:	e50b1014 	str	r1, [fp, #-20]	; 0xffffffec
    a284:	e50b2018 	str	r2, [fp, #-24]	; 0xffffffe8
    a288:	e3a03000 	mov	r3, #0
    a28c:	e1a00003 	mov	r0, r3
    a290:	e24bd00c 	sub	sp, fp, #12
    a294:	e89d6800 	ldm	sp, {fp, sp, lr}
    a298:	e12fff1e 	bx	lr

0000a29c <__set_breakpoint>:
    a29c:	e1a0c00d 	mov	ip, sp
    a2a0:	e92dd800 	push	{fp, ip, lr, pc}
    a2a4:	e24cb004 	sub	fp, ip, #4
    a2a8:	e24dd008 	sub	sp, sp, #8
    a2ac:	e50b0010 	str	r0, [fp, #-16]
    a2b0:	e50b1014 	str	r1, [fp, #-20]	; 0xffffffec
    a2b4:	e3a03001 	mov	r3, #1
    a2b8:	e1a00003 	mov	r0, r3
    a2bc:	e24bd00c 	sub	sp, fp, #12
    a2c0:	e89d6800 	ldm	sp, {fp, sp, lr}
    a2c4:	e12fff1e 	bx	lr

0000a2c8 <__remove_breakpoint>:
    a2c8:	e1a0c00d 	mov	ip, sp
    a2cc:	e92dd800 	push	{fp, ip, lr, pc}
    a2d0:	e24cb004 	sub	fp, ip, #4
    a2d4:	e24dd008 	sub	sp, sp, #8
    a2d8:	e50b0010 	str	r0, [fp, #-16]
    a2dc:	e50b1014 	str	r1, [fp, #-20]	; 0xffffffec
    a2e0:	e3a03001 	mov	r3, #1
    a2e4:	e1a00003 	mov	r0, r3
    a2e8:	e24bd00c 	sub	sp, fp, #12
    a2ec:	e89d6800 	ldm	sp, {fp, sp, lr}
    a2f0:	e12fff1e 	bx	lr

0000a2f4 <init_thread_syscall>:
    a2f4:	e1a0c00d 	mov	ip, sp
    a2f8:	e92dd800 	push	{fp, ip, lr, pc}
    a2fc:	e24cb004 	sub	fp, ip, #4
    a300:	e24dd008 	sub	sp, sp, #8
    a304:	e50b0010 	str	r0, [fp, #-16]
    a308:	e51b2010 	ldr	r2, [fp, #-16]
    a30c:	e59f300c 	ldr	r3, [pc, #12]	; a320 <init_thread_syscall+0x2c>
    a310:	e5832000 	str	r2, [r3]
    a314:	e24bd00c 	sub	sp, fp, #12
    a318:	e89d6800 	ldm	sp, {fp, sp, lr}
    a31c:	e12fff1e 	bx	lr
    a320:	810031c8 	.word	0x810031c8

0000a324 <dbg_currthread>:
    a324:	e1a0c00d 	mov	ip, sp
    a328:	e92dd800 	push	{fp, ip, lr, pc}
    a32c:	e24cb004 	sub	fp, ip, #4
    a330:	e24dd008 	sub	sp, sp, #8
    a334:	e50b0010 	str	r0, [fp, #-16]
    a338:	e59f2020 	ldr	r2, [pc, #32]	; a360 <dbg_currthread+0x3c>
    a33c:	e51b3010 	ldr	r3, [fp, #-16]
    a340:	e5823000 	str	r3, [r2]
    a344:	e3a00002 	mov	r0, #2
    a348:	eb000005 	bl	a364 <dbg_thread_syscall>
    a34c:	e1a03000 	mov	r3, r0
    a350:	e1a00003 	mov	r0, r3
    a354:	e24bd00c 	sub	sp, fp, #12
    a358:	e89d6800 	ldm	sp, {fp, sp, lr}
    a35c:	e12fff1e 	bx	lr
    a360:	810031cc 	.word	0x810031cc

0000a364 <dbg_thread_syscall>:
    a364:	e1a0c00d 	mov	ip, sp
    a368:	e92dd800 	push	{fp, ip, lr, pc}
    a36c:	e24cb004 	sub	fp, ip, #4
    a370:	e24dd010 	sub	sp, sp, #16
    a374:	e1a03000 	mov	r3, r0
    a378:	e54b3015 	strb	r3, [fp, #-21]	; 0xffffffeb
    a37c:	e59f3070 	ldr	r3, [pc, #112]	; a3f4 <dbg_thread_syscall+0x90>
    a380:	e5933000 	ldr	r3, [r3]
    a384:	e3530000 	cmp	r3, #0
    a388:	1a000002 	bne	a398 <dbg_thread_syscall+0x34>
    a38c:	e3a03000 	mov	r3, #0
    a390:	e50b301c 	str	r3, [fp, #-28]	; 0xffffffe4
    a394:	ea000011 	b	a3e0 <dbg_thread_syscall+0x7c>
    a398:	e59f3054 	ldr	r3, [pc, #84]	; a3f4 <dbg_thread_syscall+0x90>
    a39c:	e5933000 	ldr	r3, [r3]
    a3a0:	e5933000 	ldr	r3, [r3]
    a3a4:	e50b3010 	str	r3, [fp, #-16]
    a3a8:	e51b3010 	ldr	r3, [fp, #-16]
    a3ac:	e3530000 	cmp	r3, #0
    a3b0:	1a000002 	bne	a3c0 <dbg_thread_syscall+0x5c>
    a3b4:	e3a03000 	mov	r3, #0
    a3b8:	e50b301c 	str	r3, [fp, #-28]	; 0xffffffe4
    a3bc:	ea000007 	b	a3e0 <dbg_thread_syscall+0x7c>
    a3c0:	e55b3015 	ldrb	r3, [fp, #-21]	; 0xffffffeb
    a3c4:	e51b2010 	ldr	r2, [fp, #-16]
    a3c8:	e1a00003 	mov	r0, r3
    a3cc:	e59f1024 	ldr	r1, [pc, #36]	; a3f8 <dbg_thread_syscall+0x94>
    a3d0:	e1a0e00f 	mov	lr, pc
    a3d4:	e12fff12 	bx	r2
    a3d8:	e1a03000 	mov	r3, r0
    a3dc:	e50b301c 	str	r3, [fp, #-28]	; 0xffffffe4
    a3e0:	e51b301c 	ldr	r3, [fp, #-28]	; 0xffffffe4
    a3e4:	e1a00003 	mov	r0, r3
    a3e8:	e24bd00c 	sub	sp, fp, #12
    a3ec:	e89d6800 	ldm	sp, {fp, sp, lr}
    a3f0:	e12fff1e 	bx	lr
    a3f4:	810031c8 	.word	0x810031c8
    a3f8:	810031cc 	.word	0x810031cc

0000a3fc <dbg_threadlist>:
    a3fc:	e1a0c00d 	mov	ip, sp
    a400:	e92dd800 	push	{fp, ip, lr, pc}
    a404:	e24cb004 	sub	fp, ip, #4
    a408:	e24dd010 	sub	sp, sp, #16
    a40c:	e50b0010 	str	r0, [fp, #-16]
    a410:	e50b1014 	str	r1, [fp, #-20]	; 0xffffffec
    a414:	e50b2018 	str	r2, [fp, #-24]	; 0xffffffe8
    a418:	e59f2038 	ldr	r2, [pc, #56]	; a458 <dbg_threadlist+0x5c>
    a41c:	e51b3010 	ldr	r3, [fp, #-16]
    a420:	e5823000 	str	r3, [r2]
    a424:	e59f202c 	ldr	r2, [pc, #44]	; a458 <dbg_threadlist+0x5c>
    a428:	e51b3014 	ldr	r3, [fp, #-20]	; 0xffffffec
    a42c:	e5823004 	str	r3, [r2, #4]
    a430:	e59f2020 	ldr	r2, [pc, #32]	; a458 <dbg_threadlist+0x5c>
    a434:	e51b3018 	ldr	r3, [fp, #-24]	; 0xffffffe8
    a438:	e5823008 	str	r3, [r2, #8]
    a43c:	e3a00003 	mov	r0, #3
    a440:	ebffffc7 	bl	a364 <dbg_thread_syscall>
    a444:	e1a03000 	mov	r3, r0
    a448:	e1a00003 	mov	r0, r3
    a44c:	e24bd00c 	sub	sp, fp, #12
    a450:	e89d6800 	ldm	sp, {fp, sp, lr}
    a454:	e12fff1e 	bx	lr
    a458:	810031cc 	.word	0x810031cc

0000a45c <dbg_threadinfo>:
    a45c:	e1a0c00d 	mov	ip, sp
    a460:	e92dd800 	push	{fp, ip, lr, pc}
    a464:	e24cb004 	sub	fp, ip, #4
    a468:	e24dd008 	sub	sp, sp, #8
    a46c:	e50b0010 	str	r0, [fp, #-16]
    a470:	e50b1014 	str	r1, [fp, #-20]	; 0xffffffec
    a474:	e59f202c 	ldr	r2, [pc, #44]	; a4a8 <dbg_threadinfo+0x4c>
    a478:	e51b3010 	ldr	r3, [fp, #-16]
    a47c:	e5823000 	str	r3, [r2]
    a480:	e59f2020 	ldr	r2, [pc, #32]	; a4a8 <dbg_threadinfo+0x4c>
    a484:	e51b3014 	ldr	r3, [fp, #-20]	; 0xffffffec
    a488:	e5823004 	str	r3, [r2, #4]
    a48c:	e3a00004 	mov	r0, #4
    a490:	ebffffb3 	bl	a364 <dbg_thread_syscall>
    a494:	e1a03000 	mov	r3, r0
    a498:	e1a00003 	mov	r0, r3
    a49c:	e24bd00c 	sub	sp, fp, #12
    a4a0:	e89d6800 	ldm	sp, {fp, sp, lr}
    a4a4:	e12fff1e 	bx	lr
    a4a8:	810031cc 	.word	0x810031cc

0000a4ac <dbg_getthreadreg>:
    a4ac:	e1a0c00d 	mov	ip, sp
    a4b0:	e92dd800 	push	{fp, ip, lr, pc}
    a4b4:	e24cb004 	sub	fp, ip, #4
    a4b8:	e24dd010 	sub	sp, sp, #16
    a4bc:	e50b0010 	str	r0, [fp, #-16]
    a4c0:	e50b1014 	str	r1, [fp, #-20]	; 0xffffffec
    a4c4:	e50b2018 	str	r2, [fp, #-24]	; 0xffffffe8
    a4c8:	e59f2038 	ldr	r2, [pc, #56]	; a508 <dbg_getthreadreg+0x5c>
    a4cc:	e51b3010 	ldr	r3, [fp, #-16]
    a4d0:	e5823000 	str	r3, [r2]
    a4d4:	e59f202c 	ldr	r2, [pc, #44]	; a508 <dbg_getthreadreg+0x5c>
    a4d8:	e51b3014 	ldr	r3, [fp, #-20]	; 0xffffffec
    a4dc:	e5823004 	str	r3, [r2, #4]
    a4e0:	e59f2020 	ldr	r2, [pc, #32]	; a508 <dbg_getthreadreg+0x5c>
    a4e4:	e51b3018 	ldr	r3, [fp, #-24]	; 0xffffffe8
    a4e8:	e5823008 	str	r3, [r2, #8]
    a4ec:	e3a00005 	mov	r0, #5
    a4f0:	ebffff9b 	bl	a364 <dbg_thread_syscall>
    a4f4:	e1a03000 	mov	r3, r0
    a4f8:	e1a00003 	mov	r0, r3
    a4fc:	e24bd00c 	sub	sp, fp, #12
    a500:	e89d6800 	ldm	sp, {fp, sp, lr}
    a504:	e12fff1e 	bx	lr
    a508:	810031cc 	.word	0x810031cc

0000a50c <dbg_scheduler>:
    a50c:	e1a0c00d 	mov	ip, sp
    a510:	e92dd800 	push	{fp, ip, lr, pc}
    a514:	e24cb004 	sub	fp, ip, #4
    a518:	e24dd010 	sub	sp, sp, #16
    a51c:	e50b0010 	str	r0, [fp, #-16]
    a520:	e50b1014 	str	r1, [fp, #-20]	; 0xffffffec
    a524:	e50b2018 	str	r2, [fp, #-24]	; 0xffffffe8
    a528:	e59f2038 	ldr	r2, [pc, #56]	; a568 <dbg_scheduler+0x5c>
    a52c:	e51b3010 	ldr	r3, [fp, #-16]
    a530:	e5823000 	str	r3, [r2]
    a534:	e59f202c 	ldr	r2, [pc, #44]	; a568 <dbg_scheduler+0x5c>
    a538:	e51b3014 	ldr	r3, [fp, #-20]	; 0xffffffec
    a53c:	e5823004 	str	r3, [r2, #4]
    a540:	e59f2020 	ldr	r2, [pc, #32]	; a568 <dbg_scheduler+0x5c>
    a544:	e51b3018 	ldr	r3, [fp, #-24]	; 0xffffffe8
    a548:	e5823008 	str	r3, [r2, #8]
    a54c:	e3a00007 	mov	r0, #7
    a550:	ebffff83 	bl	a364 <dbg_thread_syscall>
    a554:	e1a03000 	mov	r3, r0
    a558:	e1a00003 	mov	r0, r3
    a55c:	e24bd00c 	sub	sp, fp, #12
    a560:	e89d6800 	ldm	sp, {fp, sp, lr}
    a564:	e12fff1e 	bx	lr
    a568:	810031cc 	.word	0x810031cc

0000a56c <swap32>:
    a56c:	e1a0c00d 	mov	ip, sp
    a570:	e92dd800 	push	{fp, ip, lr, pc}
    a574:	e24cb004 	sub	fp, ip, #4
    a578:	e24dd010 	sub	sp, sp, #16
    a57c:	e50b0018 	str	r0, [fp, #-24]	; 0xffffffe8
    a580:	e3a03000 	mov	r3, #0
    a584:	e50b3010 	str	r3, [fp, #-16]
    a588:	e51b3018 	ldr	r3, [fp, #-24]	; 0xffffffe8
    a58c:	e1a02c23 	lsr	r2, r3, #24
    a590:	e51b3010 	ldr	r3, [fp, #-16]
    a594:	e1833002 	orr	r3, r3, r2
    a598:	e50b3010 	str	r3, [fp, #-16]
    a59c:	e51b3018 	ldr	r3, [fp, #-24]	; 0xffffffe8
    a5a0:	e1a03823 	lsr	r3, r3, #16
    a5a4:	e1a03403 	lsl	r3, r3, #8
    a5a8:	e1a03803 	lsl	r3, r3, #16
    a5ac:	e1a03823 	lsr	r3, r3, #16
    a5b0:	e51b2010 	ldr	r2, [fp, #-16]
    a5b4:	e1823003 	orr	r3, r2, r3
    a5b8:	e50b3010 	str	r3, [fp, #-16]
    a5bc:	e51b3018 	ldr	r3, [fp, #-24]	; 0xffffffe8
    a5c0:	e1a03423 	lsr	r3, r3, #8
    a5c4:	e20330ff 	and	r3, r3, #255	; 0xff
    a5c8:	e1a02803 	lsl	r2, r3, #16
    a5cc:	e51b3010 	ldr	r3, [fp, #-16]
    a5d0:	e1833002 	orr	r3, r3, r2
    a5d4:	e50b3010 	str	r3, [fp, #-16]
    a5d8:	e51b3018 	ldr	r3, [fp, #-24]	; 0xffffffe8
    a5dc:	e1a02c03 	lsl	r2, r3, #24
    a5e0:	e51b3010 	ldr	r3, [fp, #-16]
    a5e4:	e1833002 	orr	r3, r3, r2
    a5e8:	e50b3010 	str	r3, [fp, #-16]
    a5ec:	e51b3010 	ldr	r3, [fp, #-16]
    a5f0:	e1a00003 	mov	r0, r3
    a5f4:	e24bd00c 	sub	sp, fp, #12
    a5f8:	e89d6800 	ldm	sp, {fp, sp, lr}
    a5fc:	e12fff1e 	bx	lr

0000a600 <dbg_currthread_id>:
    a600:	e1a0c00d 	mov	ip, sp
    a604:	e92dd800 	push	{fp, ip, lr, pc}
    a608:	e24cb004 	sub	fp, ip, #4
    a60c:	e24dd010 	sub	sp, sp, #16
    a610:	e24b3014 	sub	r3, fp, #20
    a614:	e1a00003 	mov	r0, r3
    a618:	ebffff41 	bl	a324 <dbg_currthread>
    a61c:	e1a03000 	mov	r3, r0
    a620:	e3530000 	cmp	r3, #0
    a624:	0a000009 	beq	a650 <dbg_currthread_id+0x50>
    a628:	e24b3014 	sub	r3, fp, #20
    a62c:	e2833004 	add	r3, r3, #4
    a630:	e5933000 	ldr	r3, [r3]
    a634:	e1a00003 	mov	r0, r3
    a638:	ebffffcb 	bl	a56c <swap32>
    a63c:	e1a03000 	mov	r3, r0
    a640:	e1a03803 	lsl	r3, r3, #16
    a644:	e1a03823 	lsr	r3, r3, #16
    a648:	e50b3018 	str	r3, [fp, #-24]	; 0xffffffe8
    a64c:	ea000001 	b	a658 <dbg_currthread_id+0x58>
    a650:	e3a03000 	mov	r3, #0
    a654:	e50b3018 	str	r3, [fp, #-24]	; 0xffffffe8
    a658:	e51b3018 	ldr	r3, [fp, #-24]	; 0xffffffe8
    a65c:	e1a00003 	mov	r0, r3
    a660:	e24bd00c 	sub	sp, fp, #12
    a664:	e89d6800 	ldm	sp, {fp, sp, lr}
    a668:	e12fff1e 	bx	lr

0000a66c <delay_us>:
    a66c:	e1a0c00d 	mov	ip, sp
    a670:	e92dd800 	push	{fp, ip, lr, pc}
    a674:	e24cb004 	sub	fp, ip, #4
    a678:	e24dd008 	sub	sp, sp, #8
    a67c:	e50b0010 	str	r0, [fp, #-16]
    a680:	e51b0010 	ldr	r0, [fp, #-16]
    a684:	ebffeb3c 	bl	537c <hal_delay_us>
    a688:	e24bd00c 	sub	sp, fp, #12
    a68c:	e89d6800 	ldm	sp, {fp, sp, lr}
    a690:	e12fff1e 	bx	lr

0000a694 <reset>:
    a694:	e1a0c00d 	mov	ip, sp
    a698:	e92dd800 	push	{fp, ip, lr, pc}
    a69c:	e24cb004 	sub	fp, ip, #4
    a6a0:	ebffec0c 	bl	56d8 <hal_lpc_watchdog_reset>
    a6a4:	e3a03000 	mov	r3, #0
    a6a8:	e1a0f003 	mov	pc, r3

0000a6ac <nop_service>:
    a6ac:	e1a0c00d 	mov	ip, sp
    a6b0:	e92dd800 	push	{fp, ip, lr, pc}
    a6b4:	e24cb004 	sub	fp, ip, #4
    a6b8:	e3a03000 	mov	r3, #0
    a6bc:	e1a00003 	mov	r0, r3
    a6c0:	e24bd00c 	sub	sp, fp, #12
    a6c4:	e89d6800 	ldm	sp, {fp, sp, lr}
    a6c8:	e12fff1e 	bx	lr

0000a6cc <set_debug_comm>:
    a6cc:	e1a0c00d 	mov	ip, sp
    a6d0:	e92dd800 	push	{fp, ip, lr, pc}
    a6d4:	e24cb004 	sub	fp, ip, #4
    a6d8:	e24dd028 	sub	sp, sp, #40	; 0x28
    a6dc:	e50b0030 	str	r0, [fp, #-48]	; 0xffffffd0
    a6e0:	e3a03000 	mov	r3, #0
    a6e4:	e50b3024 	str	r3, [fp, #-36]	; 0xffffffdc
    a6e8:	e3a03001 	mov	r3, #1
    a6ec:	e50b3020 	str	r3, [fp, #-32]	; 0xffffffe0
    a6f0:	e3a03000 	mov	r3, #0
    a6f4:	e50b301c 	str	r3, [fp, #-28]	; 0xffffffe4
    a6f8:	e51b3030 	ldr	r3, [fp, #-48]	; 0xffffffd0
    a6fc:	e50b3034 	str	r3, [fp, #-52]	; 0xffffffcc
    a700:	e51b3034 	ldr	r3, [fp, #-52]	; 0xffffffcc
    a704:	e3730002 	cmn	r3, #2
    a708:	0a00001a 	beq	a778 <set_debug_comm+0xac>
    a70c:	e51b3034 	ldr	r3, [fp, #-52]	; 0xffffffcc
    a710:	e3730001 	cmn	r3, #1
    a714:	0a000003 	beq	a728 <set_debug_comm+0x5c>
    a718:	e51b3034 	ldr	r3, [fp, #-52]	; 0xffffffcc
    a71c:	e3730003 	cmn	r3, #3
    a720:	0a00001b 	beq	a794 <set_debug_comm+0xc8>
    a724:	ea00001f 	b	a7a8 <set_debug_comm+0xdc>
    a728:	e59f3194 	ldr	r3, [pc, #404]	; a8c4 <set_debug_comm+0x1f8>
    a72c:	e5933000 	ldr	r3, [r3]
    a730:	e3530000 	cmp	r3, #0
    a734:	da000004 	ble	a74c <set_debug_comm+0x80>
    a738:	e59f3184 	ldr	r3, [pc, #388]	; a8c4 <set_debug_comm+0x1f8>
    a73c:	e5933000 	ldr	r3, [r3]
    a740:	e2433001 	sub	r3, r3, #1
    a744:	e50b3020 	str	r3, [fp, #-32]	; 0xffffffe0
    a748:	ea00001b 	b	a7bc <set_debug_comm+0xf0>
    a74c:	e59f3170 	ldr	r3, [pc, #368]	; a8c4 <set_debug_comm+0x1f8>
    a750:	e5933000 	ldr	r3, [r3]
    a754:	e3530000 	cmp	r3, #0
    a758:	1a000002 	bne	a768 <set_debug_comm+0x9c>
    a75c:	e3e03002 	mvn	r3, #2
    a760:	e50b3020 	str	r3, [fp, #-32]	; 0xffffffe0
    a764:	ea000014 	b	a7bc <set_debug_comm+0xf0>
    a768:	e59f3154 	ldr	r3, [pc, #340]	; a8c4 <set_debug_comm+0x1f8>
    a76c:	e5933000 	ldr	r3, [r3]
    a770:	e50b3020 	str	r3, [fp, #-32]	; 0xffffffe0
    a774:	ea000010 	b	a7bc <set_debug_comm+0xf0>
    a778:	e59f2148 	ldr	r2, [pc, #328]	; a8c8 <set_debug_comm+0x1fc>
    a77c:	e3a03000 	mov	r3, #0
    a780:	e5823018 	str	r3, [r2, #24]
    a784:	e59f2138 	ldr	r2, [pc, #312]	; a8c4 <set_debug_comm+0x1f8>
    a788:	e51b3030 	ldr	r3, [fp, #-48]	; 0xffffffd0
    a78c:	e5823000 	str	r3, [r2]
    a790:	ea000009 	b	a7bc <set_debug_comm+0xf0>
    a794:	e3a03000 	mov	r3, #0
    a798:	e50b3030 	str	r3, [fp, #-48]	; 0xffffffd0
    a79c:	e3a03001 	mov	r3, #1
    a7a0:	e50b301c 	str	r3, [fp, #-28]	; 0xffffffe4
    a7a4:	ea000004 	b	a7bc <set_debug_comm+0xf0>
    a7a8:	e51b3030 	ldr	r3, [fp, #-48]	; 0xffffffd0
    a7ac:	e2833001 	add	r3, r3, #1
    a7b0:	e50b3030 	str	r3, [fp, #-48]	; 0xffffffd0
    a7b4:	e3a03001 	mov	r3, #1
    a7b8:	e50b301c 	str	r3, [fp, #-28]	; 0xffffffe4
    a7bc:	e51b301c 	ldr	r3, [fp, #-28]	; 0xffffffe4
    a7c0:	e3530000 	cmp	r3, #0
    a7c4:	0a000039 	beq	a8b0 <set_debug_comm+0x1e4>
    a7c8:	eb000040 	bl	a8d0 <__call_vv_CYGNUM_CALL_IF_DEBUG_PROCS>
    a7cc:	e1a03000 	mov	r3, r0
    a7d0:	e50b3028 	str	r3, [fp, #-40]	; 0xffffffd8
    a7d4:	e51b3028 	ldr	r3, [fp, #-40]	; 0xffffffd8
    a7d8:	e3530000 	cmp	r3, #0
    a7dc:	0a00000c 	beq	a814 <set_debug_comm+0x148>
    a7e0:	e51b3028 	ldr	r3, [fp, #-40]	; 0xffffffd8
    a7e4:	e5933014 	ldr	r3, [r3, #20]
    a7e8:	e1a02003 	mov	r2, r3
    a7ec:	e51b3028 	ldr	r3, [fp, #-40]	; 0xffffffd8
    a7f0:	e5933000 	ldr	r3, [r3]
    a7f4:	e1a00003 	mov	r0, r3
    a7f8:	e3a01004 	mov	r1, #4
    a7fc:	e1a0e00f 	mov	lr, pc
    a800:	e12fff12 	bx	r2
    a804:	e1a03000 	mov	r3, r0
    a808:	e50b3018 	str	r3, [fp, #-24]	; 0xffffffe8
    a80c:	e51b3018 	ldr	r3, [fp, #-24]	; 0xffffffe8
    a810:	e50b3024 	str	r3, [fp, #-36]	; 0xffffffdc
    a814:	e59f20a8 	ldr	r2, [pc, #168]	; a8c4 <set_debug_comm+0x1f8>
    a818:	e51b3030 	ldr	r3, [fp, #-48]	; 0xffffffd0
    a81c:	e5823000 	str	r3, [r2]
    a820:	e59f20a4 	ldr	r2, [pc, #164]	; a8cc <set_debug_comm+0x200>
    a824:	e51b3030 	ldr	r3, [fp, #-48]	; 0xffffffd0
    a828:	e1a03283 	lsl	r3, r3, #5
    a82c:	e0823003 	add	r3, r2, r3
    a830:	e1a02003 	mov	r2, r3
    a834:	e59f308c 	ldr	r3, [pc, #140]	; a8c8 <set_debug_comm+0x1fc>
    a838:	e5832018 	str	r2, [r3, #24]
    a83c:	eb000023 	bl	a8d0 <__call_vv_CYGNUM_CALL_IF_DEBUG_PROCS>
    a840:	e1a03000 	mov	r3, r0
    a844:	e50b3028 	str	r3, [fp, #-40]	; 0xffffffd8
    a848:	e51b3024 	ldr	r3, [fp, #-36]	; 0xffffffdc
    a84c:	e3530000 	cmp	r3, #0
    a850:	0a00000b 	beq	a884 <set_debug_comm+0x1b8>
    a854:	e51b3028 	ldr	r3, [fp, #-40]	; 0xffffffd8
    a858:	e5933014 	ldr	r3, [r3, #20]
    a85c:	e1a02003 	mov	r2, r3
    a860:	e51b3028 	ldr	r3, [fp, #-40]	; 0xffffffd8
    a864:	e5933000 	ldr	r3, [r3]
    a868:	e1a00003 	mov	r0, r3
    a86c:	e3a01005 	mov	r1, #5
    a870:	e1a0e00f 	mov	lr, pc
    a874:	e12fff12 	bx	r2
    a878:	e1a03000 	mov	r3, r0
    a87c:	e50b3014 	str	r3, [fp, #-20]	; 0xffffffec
    a880:	ea00000a 	b	a8b0 <set_debug_comm+0x1e4>
    a884:	e51b3028 	ldr	r3, [fp, #-40]	; 0xffffffd8
    a888:	e5933014 	ldr	r3, [r3, #20]
    a88c:	e1a02003 	mov	r2, r3
    a890:	e51b3028 	ldr	r3, [fp, #-40]	; 0xffffffd8
    a894:	e5933000 	ldr	r3, [r3]
    a898:	e1a00003 	mov	r0, r3
    a89c:	e3a01004 	mov	r1, #4
    a8a0:	e1a0e00f 	mov	lr, pc
    a8a4:	e12fff12 	bx	r2
    a8a8:	e1a03000 	mov	r3, r0
    a8ac:	e50b3010 	str	r3, [fp, #-16]
    a8b0:	e51b3020 	ldr	r3, [fp, #-32]	; 0xffffffe0
    a8b4:	e1a00003 	mov	r0, r3
    a8b8:	e24bd00c 	sub	sp, fp, #12
    a8bc:	e89d6800 	ldm	sp, {fp, sp, lr}
    a8c0:	e12fff1e 	bx	lr
    a8c4:	810002c8 	.word	0x810002c8
    a8c8:	40000050 	.word	0x40000050
    a8cc:	810031e0 	.word	0x810031e0

0000a8d0 <__call_vv_CYGNUM_CALL_IF_DEBUG_PROCS>:
    a8d0:	e1a0c00d 	mov	ip, sp
    a8d4:	e92dd800 	push	{fp, ip, lr, pc}
    a8d8:	e24cb004 	sub	fp, ip, #4
    a8dc:	e59f3010 	ldr	r3, [pc, #16]	; a8f4 <__call_vv_CYGNUM_CALL_IF_DEBUG_PROCS+0x24>
    a8e0:	e5933018 	ldr	r3, [r3, #24]
    a8e4:	e1a00003 	mov	r0, r3
    a8e8:	e24bd00c 	sub	sp, fp, #12
    a8ec:	e89d6800 	ldm	sp, {fp, sp, lr}
    a8f0:	e12fff1e 	bx	lr
    a8f4:	40000050 	.word	0x40000050

0000a8f8 <set_console_comm>:
    a8f8:	e1a0c00d 	mov	ip, sp
    a8fc:	e92dd800 	push	{fp, ip, lr, pc}
    a900:	e24cb004 	sub	fp, ip, #4
    a904:	e24dd010 	sub	sp, sp, #16
    a908:	e50b0018 	str	r0, [fp, #-24]	; 0xffffffe8
    a90c:	e3a03001 	mov	r3, #1
    a910:	e50b3014 	str	r3, [fp, #-20]	; 0xffffffec
    a914:	e3a03000 	mov	r3, #0
    a918:	e50b3010 	str	r3, [fp, #-16]
    a91c:	e51b3018 	ldr	r3, [fp, #-24]	; 0xffffffe8
    a920:	e50b301c 	str	r3, [fp, #-28]	; 0xffffffe4
    a924:	e51b301c 	ldr	r3, [fp, #-28]	; 0xffffffe4
    a928:	e3730002 	cmn	r3, #2
    a92c:	0a00001a 	beq	a99c <set_console_comm+0xa4>
    a930:	e51b301c 	ldr	r3, [fp, #-28]	; 0xffffffe4
    a934:	e3730001 	cmn	r3, #1
    a938:	0a000003 	beq	a94c <set_console_comm+0x54>
    a93c:	e51b301c 	ldr	r3, [fp, #-28]	; 0xffffffe4
    a940:	e3730003 	cmn	r3, #3
    a944:	0a00001b 	beq	a9b8 <set_console_comm+0xc0>
    a948:	ea00001f 	b	a9cc <set_console_comm+0xd4>
    a94c:	e59f30d4 	ldr	r3, [pc, #212]	; aa28 <set_console_comm+0x130>
    a950:	e5933000 	ldr	r3, [r3]
    a954:	e3530000 	cmp	r3, #0
    a958:	da000004 	ble	a970 <set_console_comm+0x78>
    a95c:	e59f30c4 	ldr	r3, [pc, #196]	; aa28 <set_console_comm+0x130>
    a960:	e5933000 	ldr	r3, [r3]
    a964:	e2433001 	sub	r3, r3, #1
    a968:	e50b3014 	str	r3, [fp, #-20]	; 0xffffffec
    a96c:	ea00001b 	b	a9e0 <set_console_comm+0xe8>
    a970:	e59f30b0 	ldr	r3, [pc, #176]	; aa28 <set_console_comm+0x130>
    a974:	e5933000 	ldr	r3, [r3]
    a978:	e3530000 	cmp	r3, #0
    a97c:	1a000002 	bne	a98c <set_console_comm+0x94>
    a980:	e3e03002 	mvn	r3, #2
    a984:	e50b3014 	str	r3, [fp, #-20]	; 0xffffffec
    a988:	ea000014 	b	a9e0 <set_console_comm+0xe8>
    a98c:	e59f3094 	ldr	r3, [pc, #148]	; aa28 <set_console_comm+0x130>
    a990:	e5933000 	ldr	r3, [r3]
    a994:	e50b3014 	str	r3, [fp, #-20]	; 0xffffffec
    a998:	ea000010 	b	a9e0 <set_console_comm+0xe8>
    a99c:	e59f2088 	ldr	r2, [pc, #136]	; aa2c <set_console_comm+0x134>
    a9a0:	e3a03000 	mov	r3, #0
    a9a4:	e5823014 	str	r3, [r2, #20]
    a9a8:	e59f2078 	ldr	r2, [pc, #120]	; aa28 <set_console_comm+0x130>
    a9ac:	e51b3018 	ldr	r3, [fp, #-24]	; 0xffffffe8
    a9b0:	e5823000 	str	r3, [r2]
    a9b4:	ea000009 	b	a9e0 <set_console_comm+0xe8>
    a9b8:	e3a03000 	mov	r3, #0
    a9bc:	e50b3018 	str	r3, [fp, #-24]	; 0xffffffe8
    a9c0:	e3a03001 	mov	r3, #1
    a9c4:	e50b3010 	str	r3, [fp, #-16]
    a9c8:	ea000004 	b	a9e0 <set_console_comm+0xe8>
    a9cc:	e51b3018 	ldr	r3, [fp, #-24]	; 0xffffffe8
    a9d0:	e2833001 	add	r3, r3, #1
    a9d4:	e50b3018 	str	r3, [fp, #-24]	; 0xffffffe8
    a9d8:	e3a03001 	mov	r3, #1
    a9dc:	e50b3010 	str	r3, [fp, #-16]
    a9e0:	e51b3010 	ldr	r3, [fp, #-16]
    a9e4:	e3530000 	cmp	r3, #0
    a9e8:	0a000009 	beq	aa14 <set_console_comm+0x11c>
    a9ec:	e59f2034 	ldr	r2, [pc, #52]	; aa28 <set_console_comm+0x130>
    a9f0:	e51b3018 	ldr	r3, [fp, #-24]	; 0xffffffe8
    a9f4:	e5823000 	str	r3, [r2]
    a9f8:	e59f2030 	ldr	r2, [pc, #48]	; aa30 <set_console_comm+0x138>
    a9fc:	e51b3018 	ldr	r3, [fp, #-24]	; 0xffffffe8
    aa00:	e1a03283 	lsl	r3, r3, #5
    aa04:	e0823003 	add	r3, r2, r3
    aa08:	e1a02003 	mov	r2, r3
    aa0c:	e59f3018 	ldr	r3, [pc, #24]	; aa2c <set_console_comm+0x134>
    aa10:	e5832014 	str	r2, [r3, #20]
    aa14:	e51b3014 	ldr	r3, [fp, #-20]	; 0xffffffec
    aa18:	e1a00003 	mov	r0, r3
    aa1c:	e24bd00c 	sub	sp, fp, #12
    aa20:	e89d6800 	ldm	sp, {fp, sp, lr}
    aa24:	e12fff1e 	bx	lr
    aa28:	810002cc 	.word	0x810002cc
    aa2c:	40000050 	.word	0x40000050
    aa30:	810031e0 	.word	0x810031e0

0000aa34 <cyg_hal_diag_mangler_gdb_getc>:
    aa34:	e1a0c00d 	mov	ip, sp
    aa38:	e92dd800 	push	{fp, ip, lr, pc}
    aa3c:	e24cb004 	sub	fp, ip, #4
    aa40:	e24dd010 	sub	sp, sp, #16
    aa44:	e50b0018 	str	r0, [fp, #-24]	; 0xffffffe8
    aa48:	ebffffa0 	bl	a8d0 <__call_vv_CYGNUM_CALL_IF_DEBUG_PROCS>
    aa4c:	e1a03000 	mov	r3, r0
    aa50:	e50b3010 	str	r3, [fp, #-16]
    aa54:	e51b3010 	ldr	r3, [fp, #-16]
    aa58:	e1a00003 	mov	r0, r3
    aa5c:	eb000006 	bl	aa7c <__call_COMM_IF_GETC>
    aa60:	e1a03000 	mov	r3, r0
    aa64:	e54b3011 	strb	r3, [fp, #-17]	; 0xffffffef
    aa68:	e55b3011 	ldrb	r3, [fp, #-17]	; 0xffffffef
    aa6c:	e1a00003 	mov	r0, r3
    aa70:	e24bd00c 	sub	sp, fp, #12
    aa74:	e89d6800 	ldm	sp, {fp, sp, lr}
    aa78:	e12fff1e 	bx	lr

0000aa7c <__call_COMM_IF_GETC>:
    aa7c:	e1a0c00d 	mov	ip, sp
    aa80:	e92dd800 	push	{fp, ip, lr, pc}
    aa84:	e24cb004 	sub	fp, ip, #4
    aa88:	e24dd010 	sub	sp, sp, #16
    aa8c:	e50b0018 	str	r0, [fp, #-24]	; 0xffffffe8
    aa90:	e51b3018 	ldr	r3, [fp, #-24]	; 0xffffffe8
    aa94:	e5933000 	ldr	r3, [r3]
    aa98:	e50b3010 	str	r3, [fp, #-16]
    aa9c:	e51b3018 	ldr	r3, [fp, #-24]	; 0xffffffe8
    aaa0:	e2833010 	add	r3, r3, #16
    aaa4:	e5933000 	ldr	r3, [r3]
    aaa8:	e51b0010 	ldr	r0, [fp, #-16]
    aaac:	e1a0e00f 	mov	lr, pc
    aab0:	e12fff13 	bx	r3
    aab4:	e1a03000 	mov	r3, r0
    aab8:	e54b3011 	strb	r3, [fp, #-17]	; 0xffffffef
    aabc:	e55b3011 	ldrb	r3, [fp, #-17]	; 0xffffffef
    aac0:	e1a00003 	mov	r0, r3
    aac4:	e24bd00c 	sub	sp, fp, #12
    aac8:	e89d6800 	ldm	sp, {fp, sp, lr}
    aacc:	e12fff1e 	bx	lr

0000aad0 <cyg_hal_diag_mangler_gdb_flush>:
    aad0:	e1a0c00d 	mov	ip, sp
    aad4:	e92dd810 	push	{r4, fp, ip, lr, pc}
    aad8:	e24cb004 	sub	fp, ip, #4
    aadc:	e24dd024 	sub	sp, sp, #36	; 0x24
    aae0:	e50b0030 	str	r0, [fp, #-48]	; 0xffffffd0
    aae4:	ebffff79 	bl	a8d0 <__call_vv_CYGNUM_CALL_IF_DEBUG_PROCS>
    aae8:	e1a03000 	mov	r3, r0
    aaec:	e50b3024 	str	r3, [fp, #-36]	; 0xffffffdc
    aaf0:	e59f31e8 	ldr	r3, [pc, #488]	; ace0 <cyg_hal_diag_mangler_gdb_flush+0x210>
    aaf4:	e5933000 	ldr	r3, [r3]
    aaf8:	e3530000 	cmp	r3, #0
    aafc:	0a000074 	beq	acd4 <cyg_hal_diag_mangler_gdb_flush+0x204>
    ab00:	e10f3000 	mrs	r3, CPSR
    ab04:	e10f4000 	mrs	r4, CPSR
    ab08:	e38440c0 	orr	r4, r4, #192	; 0xc0
    ab0c:	e129f004 	msr	CPSR_fc, r4
    ab10:	e50b3028 	str	r3, [fp, #-40]	; 0xffffffd8
    ab14:	e3a03000 	mov	r3, #0
    ab18:	e54b301d 	strb	r3, [fp, #-29]	; 0xffffffe3
    ab1c:	e51b3024 	ldr	r3, [fp, #-36]	; 0xffffffdc
    ab20:	e1a00003 	mov	r0, r3
    ab24:	e3a01024 	mov	r1, #36	; 0x24
    ab28:	eb000070 	bl	acf0 <__call_COMM_IF_PUTC>
    ab2c:	e51b3024 	ldr	r3, [fp, #-36]	; 0xffffffdc
    ab30:	e1a00003 	mov	r0, r3
    ab34:	e3a0104f 	mov	r1, #79	; 0x4f
    ab38:	eb00006c 	bl	acf0 <__call_COMM_IF_PUTC>
    ab3c:	e55b301d 	ldrb	r3, [fp, #-29]	; 0xffffffe3
    ab40:	e283304f 	add	r3, r3, #79	; 0x4f
    ab44:	e54b301d 	strb	r3, [fp, #-29]	; 0xffffffe3
    ab48:	e3a03000 	mov	r3, #0
    ab4c:	e50b301c 	str	r3, [fp, #-28]	; 0xffffffe4
    ab50:	ea000024 	b	abe8 <cyg_hal_diag_mangler_gdb_flush+0x118>
    ab54:	e51b201c 	ldr	r2, [fp, #-28]	; 0xffffffe4
    ab58:	e59f3184 	ldr	r3, [pc, #388]	; ace4 <cyg_hal_diag_mangler_gdb_flush+0x214>
    ab5c:	e7d33002 	ldrb	r3, [r3, r2]
    ab60:	e54b3017 	strb	r3, [fp, #-23]	; 0xffffffe9
    ab64:	e55b3017 	ldrb	r3, [fp, #-23]	; 0xffffffe9
    ab68:	e1a03223 	lsr	r3, r3, #4
    ab6c:	e20330ff 	and	r3, r3, #255	; 0xff
    ab70:	e1a02003 	mov	r2, r3
    ab74:	e59f316c 	ldr	r3, [pc, #364]	; ace8 <cyg_hal_diag_mangler_gdb_flush+0x218>
    ab78:	e7d33002 	ldrb	r3, [r3, r2]
    ab7c:	e54b3016 	strb	r3, [fp, #-22]	; 0xffffffea
    ab80:	e55b3017 	ldrb	r3, [fp, #-23]	; 0xffffffe9
    ab84:	e203200f 	and	r2, r3, #15
    ab88:	e59f3158 	ldr	r3, [pc, #344]	; ace8 <cyg_hal_diag_mangler_gdb_flush+0x218>
    ab8c:	e7d33002 	ldrb	r3, [r3, r2]
    ab90:	e54b3015 	strb	r3, [fp, #-21]	; 0xffffffeb
    ab94:	e51b3024 	ldr	r3, [fp, #-36]	; 0xffffffdc
    ab98:	e55b2016 	ldrb	r2, [fp, #-22]	; 0xffffffea
    ab9c:	e1a00003 	mov	r0, r3
    aba0:	e1a01002 	mov	r1, r2
    aba4:	eb000051 	bl	acf0 <__call_COMM_IF_PUTC>
    aba8:	e51b3024 	ldr	r3, [fp, #-36]	; 0xffffffdc
    abac:	e55b2015 	ldrb	r2, [fp, #-21]	; 0xffffffeb
    abb0:	e1a00003 	mov	r0, r3
    abb4:	e1a01002 	mov	r1, r2
    abb8:	eb00004c 	bl	acf0 <__call_COMM_IF_PUTC>
    abbc:	e55b201d 	ldrb	r2, [fp, #-29]	; 0xffffffe3
    abc0:	e55b3016 	ldrb	r3, [fp, #-22]	; 0xffffffea
    abc4:	e0823003 	add	r3, r2, r3
    abc8:	e54b301d 	strb	r3, [fp, #-29]	; 0xffffffe3
    abcc:	e55b201d 	ldrb	r2, [fp, #-29]	; 0xffffffe3
    abd0:	e55b3015 	ldrb	r3, [fp, #-21]	; 0xffffffeb
    abd4:	e0823003 	add	r3, r2, r3
    abd8:	e54b301d 	strb	r3, [fp, #-29]	; 0xffffffe3
    abdc:	e51b301c 	ldr	r3, [fp, #-28]	; 0xffffffe4
    abe0:	e2833001 	add	r3, r3, #1
    abe4:	e50b301c 	str	r3, [fp, #-28]	; 0xffffffe4
    abe8:	e59f30f0 	ldr	r3, [pc, #240]	; ace0 <cyg_hal_diag_mangler_gdb_flush+0x210>
    abec:	e5932000 	ldr	r2, [r3]
    abf0:	e51b301c 	ldr	r3, [fp, #-28]	; 0xffffffe4
    abf4:	e1530002 	cmp	r3, r2
    abf8:	baffffd5 	blt	ab54 <cyg_hal_diag_mangler_gdb_flush+0x84>
    abfc:	e51b3024 	ldr	r3, [fp, #-36]	; 0xffffffdc
    ac00:	e1a00003 	mov	r0, r3
    ac04:	e3a01023 	mov	r1, #35	; 0x23
    ac08:	eb000038 	bl	acf0 <__call_COMM_IF_PUTC>
    ac0c:	e51b1024 	ldr	r1, [fp, #-36]	; 0xffffffdc
    ac10:	e55b301d 	ldrb	r3, [fp, #-29]	; 0xffffffe3
    ac14:	e1a03223 	lsr	r3, r3, #4
    ac18:	e20330ff 	and	r3, r3, #255	; 0xff
    ac1c:	e1a02003 	mov	r2, r3
    ac20:	e59f30c0 	ldr	r3, [pc, #192]	; ace8 <cyg_hal_diag_mangler_gdb_flush+0x218>
    ac24:	e7d33002 	ldrb	r3, [r3, r2]
    ac28:	e1a00001 	mov	r0, r1
    ac2c:	e1a01003 	mov	r1, r3
    ac30:	eb00002e 	bl	acf0 <__call_COMM_IF_PUTC>
    ac34:	e51b1024 	ldr	r1, [fp, #-36]	; 0xffffffdc
    ac38:	e55b301d 	ldrb	r3, [fp, #-29]	; 0xffffffe3
    ac3c:	e203200f 	and	r2, r3, #15
    ac40:	e59f30a0 	ldr	r3, [pc, #160]	; ace8 <cyg_hal_diag_mangler_gdb_flush+0x218>
    ac44:	e7d33002 	ldrb	r3, [r3, r2]
    ac48:	e1a00001 	mov	r0, r1
    ac4c:	e1a01003 	mov	r1, r3
    ac50:	eb000026 	bl	acf0 <__call_COMM_IF_PUTC>
    ac54:	e51b3024 	ldr	r3, [fp, #-36]	; 0xffffffdc
    ac58:	e1a00003 	mov	r0, r3
    ac5c:	ebffff86 	bl	aa7c <__call_COMM_IF_GETC>
    ac60:	e1a03000 	mov	r3, r0
    ac64:	e54b3029 	strb	r3, [fp, #-41]	; 0xffffffd7
    ac68:	e55b3029 	ldrb	r3, [fp, #-41]	; 0xffffffd7
    ac6c:	e353002b 	cmp	r3, #43	; 0x2b
    ac70:	0a00000e 	beq	acb0 <cyg_hal_diag_mangler_gdb_flush+0x1e0>
    ac74:	e24b3029 	sub	r3, fp, #41	; 0x29
    ac78:	e1a00003 	mov	r0, r3
    ac7c:	e3a01001 	mov	r1, #1
    ac80:	eb0001c3 	bl	b394 <cyg_hal_is_break>
    ac84:	e1a03000 	mov	r3, r0
    ac88:	e3530000 	cmp	r3, #0
    ac8c:	0a000003 	beq	aca0 <cyg_hal_diag_mangler_gdb_flush+0x1d0>
    ac90:	e59f2054 	ldr	r2, [pc, #84]	; acec <cyg_hal_diag_mangler_gdb_flush+0x21c>
    ac94:	e3a03001 	mov	r3, #1
    ac98:	e5823044 	str	r3, [r2, #68]	; 0x44
    ac9c:	ea000003 	b	acb0 <cyg_hal_diag_mangler_gdb_flush+0x1e0>
    aca0:	e55b3029 	ldrb	r3, [fp, #-41]	; 0xffffffd7
    aca4:	e353002d 	cmp	r3, #45	; 0x2d
    aca8:	1affffe9 	bne	ac54 <cyg_hal_diag_mangler_gdb_flush+0x184>
    acac:	eaffff98 	b	ab14 <cyg_hal_diag_mangler_gdb_flush+0x44>
    acb0:	e59f3028 	ldr	r3, [pc, #40]	; ace0 <cyg_hal_diag_mangler_gdb_flush+0x210>
    acb4:	e3a02000 	mov	r2, #0
    acb8:	e5832000 	str	r2, [r3]
    acbc:	e51b2028 	ldr	r2, [fp, #-40]	; 0xffffffd8
    acc0:	e10f3000 	mrs	r3, CPSR
    acc4:	e20240c0 	and	r4, r2, #192	; 0xc0
    acc8:	e3c330c0 	bic	r3, r3, #192	; 0xc0
    accc:	e1833004 	orr	r3, r3, r4
    acd0:	e129f003 	msr	CPSR_fc, r3
    acd4:	e24bd010 	sub	sp, fp, #16
    acd8:	e89d6810 	ldm	sp, {r4, fp, sp, lr}
    acdc:	e12fff1e 	bx	lr
    ace0:	810031d8 	.word	0x810031d8
    ace4:	81003220 	.word	0x81003220
    ace8:	00015b08 	.word	0x00015b08
    acec:	40000050 	.word	0x40000050

0000acf0 <__call_COMM_IF_PUTC>:
    acf0:	e1a0c00d 	mov	ip, sp
    acf4:	e92dd800 	push	{fp, ip, lr, pc}
    acf8:	e24cb004 	sub	fp, ip, #4
    acfc:	e24dd010 	sub	sp, sp, #16
    ad00:	e50b0018 	str	r0, [fp, #-24]	; 0xffffffe8
    ad04:	e1a03001 	mov	r3, r1
    ad08:	e54b3019 	strb	r3, [fp, #-25]	; 0xffffffe7
    ad0c:	e51b3018 	ldr	r3, [fp, #-24]	; 0xffffffe8
    ad10:	e5933000 	ldr	r3, [r3]
    ad14:	e50b3010 	str	r3, [fp, #-16]
    ad18:	e51b3018 	ldr	r3, [fp, #-24]	; 0xffffffe8
    ad1c:	e283300c 	add	r3, r3, #12
    ad20:	e5933000 	ldr	r3, [r3]
    ad24:	e1a02003 	mov	r2, r3
    ad28:	e55b3019 	ldrb	r3, [fp, #-25]	; 0xffffffe7
    ad2c:	e51b0010 	ldr	r0, [fp, #-16]
    ad30:	e1a01003 	mov	r1, r3
    ad34:	e1a0e00f 	mov	lr, pc
    ad38:	e12fff12 	bx	r2
    ad3c:	e24bd00c 	sub	sp, fp, #12
    ad40:	e89d6800 	ldm	sp, {fp, sp, lr}
    ad44:	e12fff1e 	bx	lr

0000ad48 <cyg_hal_diag_mangler_gdb_putc>:
    ad48:	e1a0c00d 	mov	ip, sp
    ad4c:	e92dd800 	push	{fp, ip, lr, pc}
    ad50:	e24cb004 	sub	fp, ip, #4
    ad54:	e24dd008 	sub	sp, sp, #8
    ad58:	e50b0010 	str	r0, [fp, #-16]
    ad5c:	e1a03001 	mov	r3, r1
    ad60:	e54b3011 	strb	r3, [fp, #-17]	; 0xffffffef
    ad64:	e55b3011 	ldrb	r3, [fp, #-17]	; 0xffffffef
    ad68:	e353000d 	cmp	r3, #13
    ad6c:	0a000010 	beq	adb4 <cyg_hal_diag_mangler_gdb_putc+0x6c>
    ad70:	e59f3048 	ldr	r3, [pc, #72]	; adc0 <cyg_hal_diag_mangler_gdb_putc+0x78>
    ad74:	e5931000 	ldr	r1, [r3]
    ad78:	e59f2044 	ldr	r2, [pc, #68]	; adc4 <cyg_hal_diag_mangler_gdb_putc+0x7c>
    ad7c:	e55b3011 	ldrb	r3, [fp, #-17]	; 0xffffffef
    ad80:	e7c23001 	strb	r3, [r2, r1]
    ad84:	e2812001 	add	r2, r1, #1
    ad88:	e59f3030 	ldr	r3, [pc, #48]	; adc0 <cyg_hal_diag_mangler_gdb_putc+0x78>
    ad8c:	e5832000 	str	r2, [r3]
    ad90:	e55b3011 	ldrb	r3, [fp, #-17]	; 0xffffffef
    ad94:	e353000a 	cmp	r3, #10
    ad98:	0a000003 	beq	adac <cyg_hal_diag_mangler_gdb_putc+0x64>
    ad9c:	e59f301c 	ldr	r3, [pc, #28]	; adc0 <cyg_hal_diag_mangler_gdb_putc+0x78>
    ada0:	e5933000 	ldr	r3, [r3]
    ada4:	e3530064 	cmp	r3, #100	; 0x64
    ada8:	1a000001 	bne	adb4 <cyg_hal_diag_mangler_gdb_putc+0x6c>
    adac:	e51b0010 	ldr	r0, [fp, #-16]
    adb0:	ebffff46 	bl	aad0 <cyg_hal_diag_mangler_gdb_flush>
    adb4:	e24bd00c 	sub	sp, fp, #12
    adb8:	e89d6800 	ldm	sp, {fp, sp, lr}
    adbc:	e12fff1e 	bx	lr
    adc0:	810031d8 	.word	0x810031d8
    adc4:	81003220 	.word	0x81003220

0000adc8 <cyg_hal_diag_mangler_gdb_write>:
    adc8:	e1a0c00d 	mov	ip, sp
    adcc:	e92dd800 	push	{fp, ip, lr, pc}
    add0:	e24cb004 	sub	fp, ip, #4
    add4:	e24dd010 	sub	sp, sp, #16
    add8:	e50b0010 	str	r0, [fp, #-16]
    addc:	e50b1014 	str	r1, [fp, #-20]	; 0xffffffec
    ade0:	e50b2018 	str	r2, [fp, #-24]	; 0xffffffe8
    ade4:	ea000007 	b	ae08 <cyg_hal_diag_mangler_gdb_write+0x40>
    ade8:	e51b3014 	ldr	r3, [fp, #-20]	; 0xffffffec
    adec:	e5d32000 	ldrb	r2, [r3]
    adf0:	e51b3014 	ldr	r3, [fp, #-20]	; 0xffffffec
    adf4:	e2833001 	add	r3, r3, #1
    adf8:	e50b3014 	str	r3, [fp, #-20]	; 0xffffffec
    adfc:	e51b0010 	ldr	r0, [fp, #-16]
    ae00:	e1a01002 	mov	r1, r2
    ae04:	ebffffcf 	bl	ad48 <cyg_hal_diag_mangler_gdb_putc>
    ae08:	e51b3018 	ldr	r3, [fp, #-24]	; 0xffffffe8
    ae0c:	e3530000 	cmp	r3, #0
    ae10:	03a03000 	moveq	r3, #0
    ae14:	13a03001 	movne	r3, #1
    ae18:	e20320ff 	and	r2, r3, #255	; 0xff
    ae1c:	e51b3018 	ldr	r3, [fp, #-24]	; 0xffffffe8
    ae20:	e2433001 	sub	r3, r3, #1
    ae24:	e50b3018 	str	r3, [fp, #-24]	; 0xffffffe8
    ae28:	e3520000 	cmp	r2, #0
    ae2c:	1affffed 	bne	ade8 <cyg_hal_diag_mangler_gdb_write+0x20>
    ae30:	e24bd00c 	sub	sp, fp, #12
    ae34:	e89d6800 	ldm	sp, {fp, sp, lr}
    ae38:	e12fff1e 	bx	lr

0000ae3c <cyg_hal_diag_mangler_gdb_read>:
    ae3c:	e1a0c00d 	mov	ip, sp
    ae40:	e92dd800 	push	{fp, ip, lr, pc}
    ae44:	e24cb004 	sub	fp, ip, #4
    ae48:	e24dd010 	sub	sp, sp, #16
    ae4c:	e50b0010 	str	r0, [fp, #-16]
    ae50:	e50b1014 	str	r1, [fp, #-20]	; 0xffffffec
    ae54:	e50b2018 	str	r2, [fp, #-24]	; 0xffffffe8
    ae58:	ea000007 	b	ae7c <cyg_hal_diag_mangler_gdb_read+0x40>
    ae5c:	e51b0010 	ldr	r0, [fp, #-16]
    ae60:	ebfffef3 	bl	aa34 <cyg_hal_diag_mangler_gdb_getc>
    ae64:	e1a03000 	mov	r3, r0
    ae68:	e51b2014 	ldr	r2, [fp, #-20]	; 0xffffffec
    ae6c:	e5c23000 	strb	r3, [r2]
    ae70:	e51b3014 	ldr	r3, [fp, #-20]	; 0xffffffec
    ae74:	e2833001 	add	r3, r3, #1
    ae78:	e50b3014 	str	r3, [fp, #-20]	; 0xffffffec
    ae7c:	e51b3018 	ldr	r3, [fp, #-24]	; 0xffffffe8
    ae80:	e3530000 	cmp	r3, #0
    ae84:	03a03000 	moveq	r3, #0
    ae88:	13a03001 	movne	r3, #1
    ae8c:	e20320ff 	and	r2, r3, #255	; 0xff
    ae90:	e51b3018 	ldr	r3, [fp, #-24]	; 0xffffffe8
    ae94:	e2433001 	sub	r3, r3, #1
    ae98:	e50b3018 	str	r3, [fp, #-24]	; 0xffffffe8
    ae9c:	e3520000 	cmp	r2, #0
    aea0:	1affffed 	bne	ae5c <cyg_hal_diag_mangler_gdb_read+0x20>
    aea4:	e24bd00c 	sub	sp, fp, #12
    aea8:	e89d6800 	ldm	sp, {fp, sp, lr}
    aeac:	e12fff1e 	bx	lr

0000aeb0 <cyg_hal_diag_mangler_gdb_control>:
    aeb0:	e1a0c00d 	mov	ip, sp
    aeb4:	e92d000e 	push	{r1, r2, r3}
    aeb8:	e92dd800 	push	{fp, ip, lr, pc}
    aebc:	e24cb010 	sub	fp, ip, #16
    aec0:	e24dd00c 	sub	sp, sp, #12
    aec4:	e50b0014 	str	r0, [fp, #-20]	; 0xffffffec
    aec8:	e5db3004 	ldrb	r3, [fp, #4]
    aecc:	e3530008 	cmp	r3, #8
    aed0:	1a000001 	bne	aedc <cyg_hal_diag_mangler_gdb_control+0x2c>
    aed4:	e51b0014 	ldr	r0, [fp, #-20]	; 0xffffffec
    aed8:	ebfffefc 	bl	aad0 <cyg_hal_diag_mangler_gdb_flush>
    aedc:	e3a03000 	mov	r3, #0
    aee0:	e1a00003 	mov	r0, r3
    aee4:	e24bd00c 	sub	sp, fp, #12
    aee8:	e89d6800 	ldm	sp, {fp, sp, lr}
    aeec:	e12fff1e 	bx	lr

0000aef0 <cyg_hal_diag_mangler_gdb_init>:
    aef0:	e1a0c00d 	mov	ip, sp
    aef4:	e92dd800 	push	{fp, ip, lr, pc}
    aef8:	e24cb004 	sub	fp, ip, #4
    aefc:	e24dd008 	sub	sp, sp, #8
    af00:	e3e00000 	mvn	r0, #0
    af04:	eb000029 	bl	afb0 <__call_vv_CYGNUM_CALL_IF_SET_CONSOLE_COMM>
    af08:	e1a03000 	mov	r3, r0
    af0c:	e50b3010 	str	r3, [fp, #-16]
    af10:	e3e00002 	mvn	r0, #2
    af14:	eb000025 	bl	afb0 <__call_vv_CYGNUM_CALL_IF_SET_CONSOLE_COMM>
    af18:	eb00001a 	bl	af88 <__call_vv_CYGNUM_CALL_IF_CONSOLE_PROCS>
    af1c:	e1a03000 	mov	r3, r0
    af20:	e50b3014 	str	r3, [fp, #-20]	; 0xffffffec
    af24:	e59f2048 	ldr	r2, [pc, #72]	; af74 <cyg_hal_diag_mangler_gdb_init+0x84>
    af28:	e51b3014 	ldr	r3, [fp, #-20]	; 0xffffffec
    af2c:	e5832004 	str	r2, [r3, #4]
    af30:	e59f2040 	ldr	r2, [pc, #64]	; af78 <cyg_hal_diag_mangler_gdb_init+0x88>
    af34:	e51b3014 	ldr	r3, [fp, #-20]	; 0xffffffec
    af38:	e5832008 	str	r2, [r3, #8]
    af3c:	e59f2038 	ldr	r2, [pc, #56]	; af7c <cyg_hal_diag_mangler_gdb_init+0x8c>
    af40:	e51b3014 	ldr	r3, [fp, #-20]	; 0xffffffec
    af44:	e583200c 	str	r2, [r3, #12]
    af48:	e59f2030 	ldr	r2, [pc, #48]	; af80 <cyg_hal_diag_mangler_gdb_init+0x90>
    af4c:	e51b3014 	ldr	r3, [fp, #-20]	; 0xffffffec
    af50:	e5832010 	str	r2, [r3, #16]
    af54:	e59f2028 	ldr	r2, [pc, #40]	; af84 <cyg_hal_diag_mangler_gdb_init+0x94>
    af58:	e51b3014 	ldr	r3, [fp, #-20]	; 0xffffffec
    af5c:	e5832014 	str	r2, [r3, #20]
    af60:	e51b0010 	ldr	r0, [fp, #-16]
    af64:	eb000011 	bl	afb0 <__call_vv_CYGNUM_CALL_IF_SET_CONSOLE_COMM>
    af68:	e24bd00c 	sub	sp, fp, #12
    af6c:	e89d6800 	ldm	sp, {fp, sp, lr}
    af70:	e12fff1e 	bx	lr
    af74:	0000adc8 	.word	0x0000adc8
    af78:	0000ae3c 	.word	0x0000ae3c
    af7c:	0000ad48 	.word	0x0000ad48
    af80:	0000aa34 	.word	0x0000aa34
    af84:	0000aeb0 	.word	0x0000aeb0

0000af88 <__call_vv_CYGNUM_CALL_IF_CONSOLE_PROCS>:
    af88:	e1a0c00d 	mov	ip, sp
    af8c:	e92dd800 	push	{fp, ip, lr, pc}
    af90:	e24cb004 	sub	fp, ip, #4
    af94:	e59f3010 	ldr	r3, [pc, #16]	; afac <__call_vv_CYGNUM_CALL_IF_CONSOLE_PROCS+0x24>
    af98:	e5933014 	ldr	r3, [r3, #20]
    af9c:	e1a00003 	mov	r0, r3
    afa0:	e24bd00c 	sub	sp, fp, #12
    afa4:	e89d6800 	ldm	sp, {fp, sp, lr}
    afa8:	e12fff1e 	bx	lr
    afac:	40000050 	.word	0x40000050

0000afb0 <__call_vv_CYGNUM_CALL_IF_SET_CONSOLE_COMM>:
    afb0:	e1a0c00d 	mov	ip, sp
    afb4:	e92dd800 	push	{fp, ip, lr, pc}
    afb8:	e24cb004 	sub	fp, ip, #4
    afbc:	e24dd010 	sub	sp, sp, #16
    afc0:	e50b0018 	str	r0, [fp, #-24]	; 0xffffffe8
    afc4:	e59f3028 	ldr	r3, [pc, #40]	; aff4 <__call_vv_CYGNUM_CALL_IF_SET_CONSOLE_COMM+0x44>
    afc8:	e5933034 	ldr	r3, [r3, #52]	; 0x34
    afcc:	e51b0018 	ldr	r0, [fp, #-24]	; 0xffffffe8
    afd0:	e1a0e00f 	mov	lr, pc
    afd4:	e12fff13 	bx	r3
    afd8:	e1a03000 	mov	r3, r0
    afdc:	e50b3010 	str	r3, [fp, #-16]
    afe0:	e51b3010 	ldr	r3, [fp, #-16]
    afe4:	e1a00003 	mov	r0, r3
    afe8:	e24bd00c 	sub	sp, fp, #12
    afec:	e89d6800 	ldm	sp, {fp, sp, lr}
    aff0:	e12fff1e 	bx	lr
    aff4:	40000050 	.word	0x40000050

0000aff8 <hal_if_diag_init>:
    aff8:	e1a0c00d 	mov	ip, sp
    affc:	e92dd800 	push	{fp, ip, lr, pc}
    b000:	e24cb004 	sub	fp, ip, #4
    b004:	e59f302c 	ldr	r3, [pc, #44]	; b038 <hal_if_diag_init+0x40>
    b008:	e5d33000 	ldrb	r3, [r3]
    b00c:	e3530000 	cmp	r3, #0
    b010:	1a000005 	bne	b02c <hal_if_diag_init+0x34>
    b014:	e59f301c 	ldr	r3, [pc, #28]	; b038 <hal_if_diag_init+0x40>
    b018:	e3a02001 	mov	r2, #1
    b01c:	e5c32000 	strb	r2, [r3]
    b020:	e3e00002 	mvn	r0, #2
    b024:	ebffffe1 	bl	afb0 <__call_vv_CYGNUM_CALL_IF_SET_CONSOLE_COMM>
    b028:	ebffffb0 	bl	aef0 <cyg_hal_diag_mangler_gdb_init>
    b02c:	e24bd00c 	sub	sp, fp, #12
    b030:	e89d6800 	ldm	sp, {fp, sp, lr}
    b034:	e12fff1e 	bx	lr
    b038:	810031dc 	.word	0x810031dc

0000b03c <hal_if_diag_write_char>:
    b03c:	e1a0c00d 	mov	ip, sp
    b040:	e92dd800 	push	{fp, ip, lr, pc}
    b044:	e24cb004 	sub	fp, ip, #4
    b048:	e24dd010 	sub	sp, sp, #16
    b04c:	e1a03000 	mov	r3, r0
    b050:	e54b3015 	strb	r3, [fp, #-21]	; 0xffffffeb
    b054:	ebffffcb 	bl	af88 <__call_vv_CYGNUM_CALL_IF_CONSOLE_PROCS>
    b058:	e1a03000 	mov	r3, r0
    b05c:	e50b3010 	str	r3, [fp, #-16]
    b060:	e51b3010 	ldr	r3, [fp, #-16]
    b064:	e3530000 	cmp	r3, #0
    b068:	0a000005 	beq	b084 <hal_if_diag_write_char+0x48>
    b06c:	e51b3010 	ldr	r3, [fp, #-16]
    b070:	e55b2015 	ldrb	r2, [fp, #-21]	; 0xffffffeb
    b074:	e1a00003 	mov	r0, r3
    b078:	e1a01002 	mov	r1, r2
    b07c:	ebffff1b 	bl	acf0 <__call_COMM_IF_PUTC>
    b080:	ea000007 	b	b0a4 <hal_if_diag_write_char+0x68>
    b084:	ebfffe11 	bl	a8d0 <__call_vv_CYGNUM_CALL_IF_DEBUG_PROCS>
    b088:	e1a03000 	mov	r3, r0
    b08c:	e50b3010 	str	r3, [fp, #-16]
    b090:	e51b3010 	ldr	r3, [fp, #-16]
    b094:	e55b2015 	ldrb	r2, [fp, #-21]	; 0xffffffeb
    b098:	e1a00003 	mov	r0, r3
    b09c:	e1a01002 	mov	r1, r2
    b0a0:	ebffff12 	bl	acf0 <__call_COMM_IF_PUTC>
    b0a4:	eb00000b 	bl	b0d8 <__call_vv_CYGNUM_CALL_IF_CONSOLE_INTERRUPT_FLAG>
    b0a8:	e1a03000 	mov	r3, r0
    b0ac:	e3530000 	cmp	r3, #0
    b0b0:	0a000004 	beq	b0c8 <hal_if_diag_write_char+0x8c>
    b0b4:	e59f2018 	ldr	r2, [pc, #24]	; b0d4 <hal_if_diag_write_char+0x98>
    b0b8:	e3a03000 	mov	r3, #0
    b0bc:	e5823044 	str	r3, [r2, #68]	; 0x44
    b0c0:	e3a00000 	mov	r0, #0
    b0c4:	eb0000cf 	bl	b408 <cyg_hal_user_break>
    b0c8:	e24bd00c 	sub	sp, fp, #12
    b0cc:	e89d6800 	ldm	sp, {fp, sp, lr}
    b0d0:	e12fff1e 	bx	lr
    b0d4:	40000050 	.word	0x40000050

0000b0d8 <__call_vv_CYGNUM_CALL_IF_CONSOLE_INTERRUPT_FLAG>:
    b0d8:	e1a0c00d 	mov	ip, sp
    b0dc:	e92dd800 	push	{fp, ip, lr, pc}
    b0e0:	e24cb004 	sub	fp, ip, #4
    b0e4:	e59f3010 	ldr	r3, [pc, #16]	; b0fc <__call_vv_CYGNUM_CALL_IF_CONSOLE_INTERRUPT_FLAG+0x24>
    b0e8:	e5933044 	ldr	r3, [r3, #68]	; 0x44
    b0ec:	e1a00003 	mov	r0, r3
    b0f0:	e24bd00c 	sub	sp, fp, #12
    b0f4:	e89d6800 	ldm	sp, {fp, sp, lr}
    b0f8:	e12fff1e 	bx	lr
    b0fc:	40000050 	.word	0x40000050

0000b100 <hal_ctrlc_isr_init>:
    b100:	e1a0c00d 	mov	ip, sp
    b104:	e92dd800 	push	{fp, ip, lr, pc}
    b108:	e24cb004 	sub	fp, ip, #4
    b10c:	e24bd00c 	sub	sp, fp, #12
    b110:	e89d6800 	ldm	sp, {fp, sp, lr}
    b114:	e12fff1e 	bx	lr

0000b118 <hal_ctrlc_isr>:
    b118:	e1a0c00d 	mov	ip, sp
    b11c:	e92dd800 	push	{fp, ip, lr, pc}
    b120:	e24cb004 	sub	fp, ip, #4
    b124:	e24dd018 	sub	sp, sp, #24
    b128:	e50b0020 	str	r0, [fp, #-32]	; 0xffffffe0
    b12c:	e50b1024 	str	r1, [fp, #-36]	; 0xffffffdc
    b130:	ebfffde6 	bl	a8d0 <__call_vv_CYGNUM_CALL_IF_DEBUG_PROCS>
    b134:	e1a03000 	mov	r3, r0
    b138:	e50b3014 	str	r3, [fp, #-20]	; 0xffffffec
    b13c:	e3a03000 	mov	r3, #0
    b140:	e50b3010 	str	r3, [fp, #-16]
    b144:	e3a03000 	mov	r3, #0
    b148:	e50b3018 	str	r3, [fp, #-24]	; 0xffffffe8
    b14c:	e51b3014 	ldr	r3, [fp, #-20]	; 0xffffffec
    b150:	e3530000 	cmp	r3, #0
    b154:	0a00000f 	beq	b198 <hal_ctrlc_isr+0x80>
    b158:	e51b3014 	ldr	r3, [fp, #-20]	; 0xffffffec
    b15c:	e24b2018 	sub	r2, fp, #24
    b160:	e1a00003 	mov	r0, r3
    b164:	e1a01002 	mov	r1, r2
    b168:	e51b2020 	ldr	r2, [fp, #-32]	; 0xffffffe0
    b16c:	e51b3024 	ldr	r3, [fp, #-36]	; 0xffffffdc
    b170:	eb00000e 	bl	b1b0 <__call_COMM_IF_DBG_ISR>
    b174:	e1a03000 	mov	r3, r0
    b178:	e50b3010 	str	r3, [fp, #-16]
    b17c:	e51b3018 	ldr	r3, [fp, #-24]	; 0xffffffe8
    b180:	e3530000 	cmp	r3, #0
    b184:	0a000003 	beq	b198 <hal_ctrlc_isr+0x80>
    b188:	e59f301c 	ldr	r3, [pc, #28]	; b1ac <hal_ctrlc_isr+0x94>
    b18c:	e5933000 	ldr	r3, [r3]
    b190:	e1a00003 	mov	r0, r3
    b194:	eb00009b 	bl	b408 <cyg_hal_user_break>
    b198:	e51b3010 	ldr	r3, [fp, #-16]
    b19c:	e1a00003 	mov	r0, r3
    b1a0:	e24bd00c 	sub	sp, fp, #12
    b1a4:	e89d6800 	ldm	sp, {fp, sp, lr}
    b1a8:	e12fff1e 	bx	lr
    b1ac:	810056cc 	.word	0x810056cc

0000b1b0 <__call_COMM_IF_DBG_ISR>:
    b1b0:	e1a0c00d 	mov	ip, sp
    b1b4:	e92dd800 	push	{fp, ip, lr, pc}
    b1b8:	e24cb004 	sub	fp, ip, #4
    b1bc:	e24dd018 	sub	sp, sp, #24
    b1c0:	e50b0018 	str	r0, [fp, #-24]	; 0xffffffe8
    b1c4:	e50b101c 	str	r1, [fp, #-28]	; 0xffffffe4
    b1c8:	e50b2020 	str	r2, [fp, #-32]	; 0xffffffe0
    b1cc:	e50b3024 	str	r3, [fp, #-36]	; 0xffffffdc
    b1d0:	e51b3018 	ldr	r3, [fp, #-24]	; 0xffffffe8
    b1d4:	e5933000 	ldr	r3, [r3]
    b1d8:	e50b3010 	str	r3, [fp, #-16]
    b1dc:	e51b3018 	ldr	r3, [fp, #-24]	; 0xffffffe8
    b1e0:	e2833018 	add	r3, r3, #24
    b1e4:	e5933000 	ldr	r3, [r3]
    b1e8:	e1a0c003 	mov	ip, r3
    b1ec:	e51b0010 	ldr	r0, [fp, #-16]
    b1f0:	e51b101c 	ldr	r1, [fp, #-28]	; 0xffffffe4
    b1f4:	e51b2020 	ldr	r2, [fp, #-32]	; 0xffffffe0
    b1f8:	e51b3024 	ldr	r3, [fp, #-36]	; 0xffffffdc
    b1fc:	e1a0e00f 	mov	lr, pc
    b200:	e12fff1c 	bx	ip
    b204:	e1a03000 	mov	r3, r0
    b208:	e50b3014 	str	r3, [fp, #-20]	; 0xffffffec
    b20c:	e51b3014 	ldr	r3, [fp, #-20]	; 0xffffffec
    b210:	e1a00003 	mov	r0, r3
    b214:	e24bd00c 	sub	sp, fp, #12
    b218:	e89d6800 	ldm	sp, {fp, sp, lr}
    b21c:	e12fff1e 	bx	lr

0000b220 <hal_if_init>:
    b220:	e1a0c00d 	mov	ip, sp
    b224:	e92dd800 	push	{fp, ip, lr, pc}
    b228:	e24cb004 	sub	fp, ip, #4
    b22c:	e24dd010 	sub	sp, sp, #16
    b230:	e3a03000 	mov	r3, #0
    b234:	e50b3018 	str	r3, [fp, #-24]	; 0xffffffe8
    b238:	ea000006 	b	b258 <hal_if_init+0x38>
    b23c:	e51b1018 	ldr	r1, [fp, #-24]	; 0xffffffe8
    b240:	e59f2128 	ldr	r2, [pc, #296]	; b370 <hal_if_init+0x150>
    b244:	e59f3128 	ldr	r3, [pc, #296]	; b374 <hal_if_init+0x154>
    b248:	e7832101 	str	r2, [r3, r1, lsl #2]
    b24c:	e51b3018 	ldr	r3, [fp, #-24]	; 0xffffffe8
    b250:	e2833001 	add	r3, r3, #1
    b254:	e50b3018 	str	r3, [fp, #-24]	; 0xffffffe8
    b258:	e51b3018 	ldr	r3, [fp, #-24]	; 0xffffffe8
    b25c:	e353003f 	cmp	r3, #63	; 0x3f
    b260:	dafffff5 	ble	b23c <hal_if_init+0x1c>
    b264:	e59f2108 	ldr	r2, [pc, #264]	; b374 <hal_if_init+0x154>
    b268:	e3a03702 	mov	r3, #524288	; 0x80000
    b26c:	e2833017 	add	r3, r3, #23
    b270:	e5823000 	str	r3, [r2]
    b274:	e59f20fc 	ldr	r2, [pc, #252]	; b378 <hal_if_init+0x158>
    b278:	e59f30f4 	ldr	r3, [pc, #244]	; b374 <hal_if_init+0x154>
    b27c:	e5832040 	str	r2, [r3, #64]	; 0x40
    b280:	e59f20f4 	ldr	r2, [pc, #244]	; b37c <hal_if_init+0x15c>
    b284:	e59f30e8 	ldr	r3, [pc, #232]	; b374 <hal_if_init+0x154>
    b288:	e5832048 	str	r2, [r3, #72]	; 0x48
    b28c:	e59f20e0 	ldr	r2, [pc, #224]	; b374 <hal_if_init+0x154>
    b290:	e3a03000 	mov	r3, #0
    b294:	e582304c 	str	r3, [r2, #76]	; 0x4c
    b298:	e59f20d4 	ldr	r2, [pc, #212]	; b374 <hal_if_init+0x154>
    b29c:	e3a03000 	mov	r3, #0
    b2a0:	e5823038 	str	r3, [r2, #56]	; 0x38
    b2a4:	e3a03000 	mov	r3, #0
    b2a8:	e50b3010 	str	r3, [fp, #-16]
    b2ac:	ea000012 	b	b2fc <hal_if_init+0xdc>
    b2b0:	e3a03000 	mov	r3, #0
    b2b4:	e50b3014 	str	r3, [fp, #-20]	; 0xffffffec
    b2b8:	ea000009 	b	b2e4 <hal_if_init+0xc4>
    b2bc:	e51b3010 	ldr	r3, [fp, #-16]
    b2c0:	e51b1014 	ldr	r1, [fp, #-20]	; 0xffffffec
    b2c4:	e59f00a4 	ldr	r0, [pc, #164]	; b370 <hal_if_init+0x150>
    b2c8:	e59f20b0 	ldr	r2, [pc, #176]	; b380 <hal_if_init+0x160>
    b2cc:	e1a03183 	lsl	r3, r3, #3
    b2d0:	e0833001 	add	r3, r3, r1
    b2d4:	e7820103 	str	r0, [r2, r3, lsl #2]
    b2d8:	e51b3014 	ldr	r3, [fp, #-20]	; 0xffffffec
    b2dc:	e2833001 	add	r3, r3, #1
    b2e0:	e50b3014 	str	r3, [fp, #-20]	; 0xffffffec
    b2e4:	e51b3014 	ldr	r3, [fp, #-20]	; 0xffffffec
    b2e8:	e3530007 	cmp	r3, #7
    b2ec:	dafffff2 	ble	b2bc <hal_if_init+0x9c>
    b2f0:	e51b3010 	ldr	r3, [fp, #-16]
    b2f4:	e2833001 	add	r3, r3, #1
    b2f8:	e50b3010 	str	r3, [fp, #-16]
    b2fc:	e51b3010 	ldr	r3, [fp, #-16]
    b300:	e3530001 	cmp	r3, #1
    b304:	daffffe9 	ble	b2b0 <hal_if_init+0x90>
    b308:	e59f2074 	ldr	r2, [pc, #116]	; b384 <hal_if_init+0x164>
    b30c:	e59f3060 	ldr	r3, [pc, #96]	; b374 <hal_if_init+0x154>
    b310:	e5832030 	str	r2, [r3, #48]	; 0x30
    b314:	e59f206c 	ldr	r2, [pc, #108]	; b388 <hal_if_init+0x168>
    b318:	e59f3054 	ldr	r3, [pc, #84]	; b374 <hal_if_init+0x154>
    b31c:	e5832034 	str	r2, [r3, #52]	; 0x34
    b320:	e3e00001 	mvn	r0, #1
    b324:	ebfffce8 	bl	a6cc <set_debug_comm>
    b328:	e3e00001 	mvn	r0, #1
    b32c:	ebfffd71 	bl	a8f8 <set_console_comm>
    b330:	ebffe90f 	bl	5774 <cyg_hal_plf_comms_init>
    b334:	e3a00000 	mov	r0, #0
    b338:	ebfffce3 	bl	a6cc <set_debug_comm>
    b33c:	e3a00000 	mov	r0, #0
    b340:	ebfffd6c 	bl	a8f8 <set_console_comm>
    b344:	e59f2028 	ldr	r2, [pc, #40]	; b374 <hal_if_init+0x154>
    b348:	e3a03000 	mov	r3, #0
    b34c:	e5823044 	str	r3, [r2, #68]	; 0x44
    b350:	e59f0034 	ldr	r0, [pc, #52]	; b38c <hal_if_init+0x16c>
    b354:	ebfffbe6 	bl	a2f4 <init_thread_syscall>
    b358:	e59f2030 	ldr	r2, [pc, #48]	; b390 <hal_if_init+0x170>
    b35c:	e59f3010 	ldr	r3, [pc, #16]	; b374 <hal_if_init+0x154>
    b360:	e583208c 	str	r2, [r3, #140]	; 0x8c
    b364:	e24bd00c 	sub	sp, fp, #12
    b368:	e89d6800 	ldm	sp, {fp, sp, lr}
    b36c:	e12fff1e 	bx	lr
    b370:	0000a6ac 	.word	0x0000a6ac
    b374:	40000050 	.word	0x40000050
    b378:	0000a694 	.word	0x0000a694
    b37c:	0000a66c 	.word	0x0000a66c
    b380:	810031e0 	.word	0x810031e0
    b384:	0000a6cc 	.word	0x0000a6cc
    b388:	0000a8f8 	.word	0x0000a8f8
    b38c:	4000008c 	.word	0x4000008c
    b390:	000135cc 	.word	0x000135cc

0000b394 <cyg_hal_is_break>:
    b394:	e1a0c00d 	mov	ip, sp
    b398:	e92dd800 	push	{fp, ip, lr, pc}
    b39c:	e24cb004 	sub	fp, ip, #4
    b3a0:	e24dd010 	sub	sp, sp, #16
    b3a4:	e50b0010 	str	r0, [fp, #-16]
    b3a8:	e50b1014 	str	r1, [fp, #-20]	; 0xffffffec
    b3ac:	ea00000b 	b	b3e0 <cyg_hal_is_break+0x4c>
    b3b0:	e51b3014 	ldr	r3, [fp, #-20]	; 0xffffffec
    b3b4:	e2433001 	sub	r3, r3, #1
    b3b8:	e50b3014 	str	r3, [fp, #-20]	; 0xffffffec
    b3bc:	e51b2014 	ldr	r2, [fp, #-20]	; 0xffffffec
    b3c0:	e51b3010 	ldr	r3, [fp, #-16]
    b3c4:	e0833002 	add	r3, r3, r2
    b3c8:	e5d33000 	ldrb	r3, [r3]
    b3cc:	e3530003 	cmp	r3, #3
    b3d0:	1a000002 	bne	b3e0 <cyg_hal_is_break+0x4c>
    b3d4:	e3a03001 	mov	r3, #1
    b3d8:	e50b3018 	str	r3, [fp, #-24]	; 0xffffffe8
    b3dc:	ea000004 	b	b3f4 <cyg_hal_is_break+0x60>
    b3e0:	e51b3014 	ldr	r3, [fp, #-20]	; 0xffffffec
    b3e4:	e3530000 	cmp	r3, #0
    b3e8:	1afffff0 	bne	b3b0 <cyg_hal_is_break+0x1c>
    b3ec:	e3a03000 	mov	r3, #0
    b3f0:	e50b3018 	str	r3, [fp, #-24]	; 0xffffffe8
    b3f4:	e51b3018 	ldr	r3, [fp, #-24]	; 0xffffffe8
    b3f8:	e1a00003 	mov	r0, r3
    b3fc:	e24bd00c 	sub	sp, fp, #12
    b400:	e89d6800 	ldm	sp, {fp, sp, lr}
    b404:	e12fff1e 	bx	lr

0000b408 <cyg_hal_user_break>:
    b408:	e1a0c00d 	mov	ip, sp
    b40c:	e92dd800 	push	{fp, ip, lr, pc}
    b410:	e24cb004 	sub	fp, ip, #4
    b414:	e24dd018 	sub	sp, sp, #24
    b418:	e50b0020 	str	r0, [fp, #-32]	; 0xffffffe0
    b41c:	e51b3020 	ldr	r3, [fp, #-32]	; 0xffffffe0
    b420:	e50b3010 	str	r3, [fp, #-16]
    b424:	e59f2074 	ldr	r2, [pc, #116]	; b4a0 <cyg_hal_user_break+0x98>
    b428:	e3a03001 	mov	r3, #1
    b42c:	e5823000 	str	r3, [r2]
    b430:	e59f306c 	ldr	r3, [pc, #108]	; b4a4 <cyg_hal_user_break+0x9c>
    b434:	e50b3018 	str	r3, [fp, #-24]	; 0xffffffe8
    b438:	e51b3020 	ldr	r3, [fp, #-32]	; 0xffffffe0
    b43c:	e3530000 	cmp	r3, #0
    b440:	1a000002 	bne	b450 <cyg_hal_user_break+0x48>
    b444:	e51b3018 	ldr	r3, [fp, #-24]	; 0xffffffe8
    b448:	e50b3014 	str	r3, [fp, #-20]	; 0xffffffec
    b44c:	ea000002 	b	b45c <cyg_hal_user_break+0x54>
    b450:	e51b3010 	ldr	r3, [fp, #-16]
    b454:	e593303c 	ldr	r3, [r3, #60]	; 0x3c
    b458:	e50b3014 	str	r3, [fp, #-20]	; 0xffffffec
    b45c:	e51b3014 	ldr	r3, [fp, #-20]	; 0xffffffec
    b460:	e1a00003 	mov	r0, r3
    b464:	eb00000f 	bl	b4a8 <__call_vv_CYGNUM_CALL_IF_INSTALL_BPT_FN>
    b468:	e59f3030 	ldr	r3, [pc, #48]	; b4a0 <cyg_hal_user_break+0x98>
    b46c:	e5932000 	ldr	r2, [r3]
    b470:	e3520000 	cmp	r2, #0
    b474:	d3a03000 	movle	r3, #0
    b478:	c3a03001 	movgt	r3, #1
    b47c:	e20310ff 	and	r1, r3, #255	; 0xff
    b480:	e2422001 	sub	r2, r2, #1
    b484:	e59f3014 	ldr	r3, [pc, #20]	; b4a0 <cyg_hal_user_break+0x98>
    b488:	e5832000 	str	r2, [r3]
    b48c:	e3510000 	cmp	r1, #0
    b490:	1afffff4 	bne	b468 <cyg_hal_user_break+0x60>
    b494:	e24bd00c 	sub	sp, fp, #12
    b498:	e89d6800 	ldm	sp, {fp, sp, lr}
    b49c:	e12fff1e 	bx	lr
    b4a0:	810056d0 	.word	0x810056d0
    b4a4:	0000b468 	.word	0x0000b468

0000b4a8 <__call_vv_CYGNUM_CALL_IF_INSTALL_BPT_FN>:
    b4a8:	e1a0c00d 	mov	ip, sp
    b4ac:	e92dd800 	push	{fp, ip, lr, pc}
    b4b0:	e24cb004 	sub	fp, ip, #4
    b4b4:	e24dd008 	sub	sp, sp, #8
    b4b8:	e50b0010 	str	r0, [fp, #-16]
    b4bc:	e59f3018 	ldr	r3, [pc, #24]	; b4dc <__call_vv_CYGNUM_CALL_IF_INSTALL_BPT_FN+0x34>
    b4c0:	e593308c 	ldr	r3, [r3, #140]	; 0x8c
    b4c4:	e51b0010 	ldr	r0, [fp, #-16]
    b4c8:	e1a0e00f 	mov	lr, pc
    b4cc:	e12fff13 	bx	r3
    b4d0:	e24bd00c 	sub	sp, fp, #12
    b4d4:	e89d6800 	ldm	sp, {fp, sp, lr}
    b4d8:	e12fff1e 	bx	lr
    b4dc:	40000050 	.word	0x40000050

0000b4e0 <hal_default_isr>:
    b4e0:	e1a0c00d 	mov	ip, sp
    b4e4:	e92dd800 	push	{fp, ip, lr, pc}
    b4e8:	e24cb004 	sub	fp, ip, #4
    b4ec:	e24dd020 	sub	sp, sp, #32
    b4f0:	e50b0020 	str	r0, [fp, #-32]	; 0xffffffe0
    b4f4:	e50b1024 	str	r1, [fp, #-36]	; 0xffffffdc
    b4f8:	e3e03000 	mvn	r3, #0
    b4fc:	e50b3018 	str	r3, [fp, #-24]	; 0xffffffe8
    b500:	eb000032 	bl	b5d0 <__call_vv_CYGNUM_CALL_IF_DEBUG_PROCS>
    b504:	e1a03000 	mov	r3, r0
    b508:	e50b3014 	str	r3, [fp, #-20]	; 0xffffffec
    b50c:	e51b3014 	ldr	r3, [fp, #-20]	; 0xffffffec
    b510:	e3530000 	cmp	r3, #0
    b514:	0a00000c 	beq	b54c <hal_default_isr+0x6c>
    b518:	e51b3014 	ldr	r3, [fp, #-20]	; 0xffffffec
    b51c:	e5933014 	ldr	r3, [r3, #20]
    b520:	e1a02003 	mov	r2, r3
    b524:	e51b3014 	ldr	r3, [fp, #-20]	; 0xffffffec
    b528:	e5933000 	ldr	r3, [r3]
    b52c:	e1a00003 	mov	r0, r3
    b530:	e3a01006 	mov	r1, #6
    b534:	e1a0e00f 	mov	lr, pc
    b538:	e12fff12 	bx	r2
    b53c:	e1a03000 	mov	r3, r0
    b540:	e50b3010 	str	r3, [fp, #-16]
    b544:	e51b3010 	ldr	r3, [fp, #-16]
    b548:	e50b3018 	str	r3, [fp, #-24]	; 0xffffffe8
    b54c:	e51b2018 	ldr	r2, [fp, #-24]	; 0xffffffe8
    b550:	e51b3020 	ldr	r3, [fp, #-32]	; 0xffffffe0
    b554:	e1520003 	cmp	r2, r3
    b558:	1a00000a 	bne	b588 <hal_default_isr+0xa8>
    b55c:	e51b0020 	ldr	r0, [fp, #-32]	; 0xffffffe0
    b560:	e51b1024 	ldr	r1, [fp, #-36]	; 0xffffffdc
    b564:	ebfffeeb 	bl	b118 <hal_ctrlc_isr>
    b568:	e1a03000 	mov	r3, r0
    b56c:	e50b301c 	str	r3, [fp, #-28]	; 0xffffffe4
    b570:	e51b301c 	ldr	r3, [fp, #-28]	; 0xffffffe4
    b574:	e3530000 	cmp	r3, #0
    b578:	0a000002 	beq	b588 <hal_default_isr+0xa8>
    b57c:	e51b301c 	ldr	r3, [fp, #-28]	; 0xffffffe4
    b580:	e50b3028 	str	r3, [fp, #-40]	; 0xffffffd8
    b584:	ea00000c 	b	b5bc <hal_default_isr+0xdc>
    b588:	e51b0020 	ldr	r0, [fp, #-32]	; 0xffffffe0
    b58c:	e51b1024 	ldr	r1, [fp, #-36]	; 0xffffffdc
    b590:	ebffe767 	bl	5334 <hal_arch_default_isr>
    b594:	e1a03000 	mov	r3, r0
    b598:	e50b301c 	str	r3, [fp, #-28]	; 0xffffffe4
    b59c:	e51b301c 	ldr	r3, [fp, #-28]	; 0xffffffe4
    b5a0:	e3530000 	cmp	r3, #0
    b5a4:	0a000002 	beq	b5b4 <hal_default_isr+0xd4>
    b5a8:	e51b301c 	ldr	r3, [fp, #-28]	; 0xffffffe4
    b5ac:	e50b3028 	str	r3, [fp, #-40]	; 0xffffffd8
    b5b0:	ea000001 	b	b5bc <hal_default_isr+0xdc>
    b5b4:	e3a03000 	mov	r3, #0
    b5b8:	e50b3028 	str	r3, [fp, #-40]	; 0xffffffd8
    b5bc:	e51b3028 	ldr	r3, [fp, #-40]	; 0xffffffd8
    b5c0:	e1a00003 	mov	r0, r3
    b5c4:	e24bd00c 	sub	sp, fp, #12
    b5c8:	e89d6800 	ldm	sp, {fp, sp, lr}
    b5cc:	e12fff1e 	bx	lr

0000b5d0 <__call_vv_CYGNUM_CALL_IF_DEBUG_PROCS>:
    b5d0:	e1a0c00d 	mov	ip, sp
    b5d4:	e92dd800 	push	{fp, ip, lr, pc}
    b5d8:	e24cb004 	sub	fp, ip, #4
    b5dc:	e59f3010 	ldr	r3, [pc, #16]	; b5f4 <__call_vv_CYGNUM_CALL_IF_DEBUG_PROCS+0x24>
    b5e0:	e5933018 	ldr	r3, [r3, #24]
    b5e4:	e1a00003 	mov	r0, r3
    b5e8:	e24bd00c 	sub	sp, fp, #12
    b5ec:	e89d6800 	ldm	sp, {fp, sp, lr}
    b5f0:	e12fff1e 	bx	lr
    b5f4:	40000050 	.word	0x40000050

0000b5f8 <diag_init_putc>:
    b5f8:	e1a0c00d 	mov	ip, sp
    b5fc:	e92dd800 	push	{fp, ip, lr, pc}
    b600:	e24cb004 	sub	fp, ip, #4
    b604:	e24dd008 	sub	sp, sp, #8
    b608:	e50b0010 	str	r0, [fp, #-16]
    b60c:	e59f2010 	ldr	r2, [pc, #16]	; b624 <diag_init_putc+0x2c>
    b610:	e51b3010 	ldr	r3, [fp, #-16]
    b614:	e5823000 	str	r3, [r2]
    b618:	e24bd00c 	sub	sp, fp, #12
    b61c:	e89d6800 	ldm	sp, {fp, sp, lr}
    b620:	e12fff1e 	bx	lr
    b624:	810002d0 	.word	0x810002d0

0000b628 <_ZL17diag_check_stringPKc>:
    b628:	e1a0c00d 	mov	ip, sp
    b62c:	e92dd800 	push	{fp, ip, lr, pc}
    b630:	e24cb004 	sub	fp, ip, #4
    b634:	e24dd018 	sub	sp, sp, #24
    b638:	e50b0020 	str	r0, [fp, #-32]	; 0xffffffe0
    b63c:	e3a03001 	mov	r3, #1
    b640:	e50b3018 	str	r3, [fp, #-24]	; 0xffffffe8
    b644:	e51b3020 	ldr	r3, [fp, #-32]	; 0xffffffe0
    b648:	e3530000 	cmp	r3, #0
    b64c:	1a000002 	bne	b65c <_ZL17diag_check_stringPKc+0x34>
    b650:	e3a03000 	mov	r3, #0
    b654:	e50b3024 	str	r3, [fp, #-36]	; 0xffffffdc
    b658:	ea00002f 	b	b71c <_ZL17diag_check_stringPKc+0xf4>
    b65c:	e51b3020 	ldr	r3, [fp, #-32]	; 0xffffffe0
    b660:	e50b3014 	str	r3, [fp, #-20]	; 0xffffffec
    b664:	ea000023 	b	b6f8 <_ZL17diag_check_stringPKc+0xd0>
    b668:	e51b3014 	ldr	r3, [fp, #-20]	; 0xffffffec
    b66c:	e5d33000 	ldrb	r3, [r3]
    b670:	e54b300d 	strb	r3, [fp, #-13]
    b674:	e51b2014 	ldr	r2, [fp, #-20]	; 0xffffffec
    b678:	e51b3020 	ldr	r3, [fp, #-32]	; 0xffffffe0
    b67c:	e0633002 	rsb	r3, r3, r2
    b680:	e3530b02 	cmp	r3, #2048	; 0x800
    b684:	da000001 	ble	b690 <_ZL17diag_check_stringPKc+0x68>
    b688:	e3a03000 	mov	r3, #0
    b68c:	e50b3018 	str	r3, [fp, #-24]	; 0xffffffe8
    b690:	e55b300d 	ldrb	r3, [fp, #-13]
    b694:	e353000a 	cmp	r3, #10
    b698:	0a000013 	beq	b6ec <_ZL17diag_check_stringPKc+0xc4>
    b69c:	e55b300d 	ldrb	r3, [fp, #-13]
    b6a0:	e353000d 	cmp	r3, #13
    b6a4:	0a000010 	beq	b6ec <_ZL17diag_check_stringPKc+0xc4>
    b6a8:	e55b300d 	ldrb	r3, [fp, #-13]
    b6ac:	e3530008 	cmp	r3, #8
    b6b0:	0a00000d 	beq	b6ec <_ZL17diag_check_stringPKc+0xc4>
    b6b4:	e55b300d 	ldrb	r3, [fp, #-13]
    b6b8:	e3530009 	cmp	r3, #9
    b6bc:	0a00000a 	beq	b6ec <_ZL17diag_check_stringPKc+0xc4>
    b6c0:	e55b300d 	ldrb	r3, [fp, #-13]
    b6c4:	e353001b 	cmp	r3, #27
    b6c8:	0a000007 	beq	b6ec <_ZL17diag_check_stringPKc+0xc4>
    b6cc:	e55b300d 	ldrb	r3, [fp, #-13]
    b6d0:	e353001f 	cmp	r3, #31
    b6d4:	9a000002 	bls	b6e4 <_ZL17diag_check_stringPKc+0xbc>
    b6d8:	e55b300d 	ldrb	r3, [fp, #-13]
    b6dc:	e353007e 	cmp	r3, #126	; 0x7e
    b6e0:	9a000001 	bls	b6ec <_ZL17diag_check_stringPKc+0xc4>
    b6e4:	e3a03000 	mov	r3, #0
    b6e8:	e50b3018 	str	r3, [fp, #-24]	; 0xffffffe8
    b6ec:	e51b3014 	ldr	r3, [fp, #-20]	; 0xffffffec
    b6f0:	e2833001 	add	r3, r3, #1
    b6f4:	e50b3014 	str	r3, [fp, #-20]	; 0xffffffec
    b6f8:	e51b3018 	ldr	r3, [fp, #-24]	; 0xffffffe8
    b6fc:	e3530000 	cmp	r3, #0
    b700:	0a000003 	beq	b714 <_ZL17diag_check_stringPKc+0xec>
    b704:	e51b3014 	ldr	r3, [fp, #-20]	; 0xffffffec
    b708:	e5d33000 	ldrb	r3, [r3]
    b70c:	e3530000 	cmp	r3, #0
    b710:	1affffd4 	bne	b668 <_ZL17diag_check_stringPKc+0x40>
    b714:	e51b3018 	ldr	r3, [fp, #-24]	; 0xffffffe8
    b718:	e50b3024 	str	r3, [fp, #-36]	; 0xffffffdc
    b71c:	e51b3024 	ldr	r3, [fp, #-36]	; 0xffffffdc
    b720:	e1a00003 	mov	r0, r3
    b724:	e24bd00c 	sub	sp, fp, #12
    b728:	e89d6800 	ldm	sp, {fp, sp, lr}
    b72c:	e12fff1e 	bx	lr

0000b730 <_ZL4_cvtyPclS_>:
    b730:	e1a0c00d 	mov	ip, sp
    b734:	e92dd870 	push	{r4, r5, r6, fp, ip, lr, pc}
    b738:	e24cb004 	sub	fp, ip, #4
    b73c:	e24dd06c 	sub	sp, sp, #108	; 0x6c
    b740:	e50b007c 	str	r0, [fp, #-124]	; 0xffffff84
    b744:	e50b1078 	str	r1, [fp, #-120]	; 0xffffff88
    b748:	e50b2080 	str	r2, [fp, #-128]	; 0xffffff80
    b74c:	e50b3084 	str	r3, [fp, #-132]	; 0xffffff7c
    b750:	e24b3074 	sub	r3, fp, #116	; 0x74
    b754:	e50b3024 	str	r3, [fp, #-36]	; 0xffffffdc
    b758:	e3a03000 	mov	r3, #0
    b75c:	e50b3020 	str	r3, [fp, #-32]	; 0xffffffe0
    b760:	e51b307c 	ldr	r3, [fp, #-124]	; 0xffffff84
    b764:	e51b2078 	ldr	r2, [fp, #-120]	; 0xffffff88
    b768:	e1833002 	orr	r3, r3, r2
    b76c:	e3530000 	cmp	r3, #0
    b770:	1a000026 	bne	b810 <_ZL4_cvtyPclS_+0xe0>
    b774:	e51b2024 	ldr	r2, [fp, #-36]	; 0xffffffdc
    b778:	e3a03030 	mov	r3, #48	; 0x30
    b77c:	e5c23000 	strb	r3, [r2]
    b780:	e51b3024 	ldr	r3, [fp, #-36]	; 0xffffffdc
    b784:	e2833001 	add	r3, r3, #1
    b788:	e50b3024 	str	r3, [fp, #-36]	; 0xffffffdc
    b78c:	ea000032 	b	b85c <_ZL4_cvtyPclS_+0x12c>
    b790:	e51b3084 	ldr	r3, [fp, #-132]	; 0xffffff7c
    b794:	e1a05003 	mov	r5, r3
    b798:	e1a06fc5 	asr	r6, r5, #31
    b79c:	e24b307c 	sub	r3, fp, #124	; 0x7c
    b7a0:	e8930018 	ldm	r3, {r3, r4}
    b7a4:	e1a00003 	mov	r0, r3
    b7a8:	e1a01004 	mov	r1, r4
    b7ac:	e1a02005 	mov	r2, r5
    b7b0:	e1a03006 	mov	r3, r6
    b7b4:	eb002234 	bl	1408c <__aeabi_uldivmod>
    b7b8:	e1a04003 	mov	r4, r3
    b7bc:	e1a03002 	mov	r3, r2
    b7c0:	e1a02003 	mov	r2, r3
    b7c4:	e59b3004 	ldr	r3, [fp, #4]
    b7c8:	e0833002 	add	r3, r3, r2
    b7cc:	e5d33000 	ldrb	r3, [r3]
    b7d0:	e51b2024 	ldr	r2, [fp, #-36]	; 0xffffffdc
    b7d4:	e5c23000 	strb	r3, [r2]
    b7d8:	e51b3024 	ldr	r3, [fp, #-36]	; 0xffffffdc
    b7dc:	e2833001 	add	r3, r3, #1
    b7e0:	e50b3024 	str	r3, [fp, #-36]	; 0xffffffdc
    b7e4:	e51b3084 	ldr	r3, [fp, #-132]	; 0xffffff7c
    b7e8:	e1a04fc3 	asr	r4, r3, #31
    b7ec:	e24b007c 	sub	r0, fp, #124	; 0x7c
    b7f0:	e8900003 	ldm	r0, {r0, r1}
    b7f4:	e1a02003 	mov	r2, r3
    b7f8:	e1a03004 	mov	r3, r4
    b7fc:	eb002222 	bl	1408c <__aeabi_uldivmod>
    b800:	e1a03000 	mov	r3, r0
    b804:	e1a04001 	mov	r4, r1
    b808:	e50b307c 	str	r3, [fp, #-124]	; 0xffffff84
    b80c:	e50b4078 	str	r4, [fp, #-120]	; 0xffffff88
    b810:	e51b307c 	ldr	r3, [fp, #-124]	; 0xffffff84
    b814:	e51b2078 	ldr	r2, [fp, #-120]	; 0xffffff88
    b818:	e1833002 	orr	r3, r3, r2
    b81c:	e3530000 	cmp	r3, #0
    b820:	1affffda 	bne	b790 <_ZL4_cvtyPclS_+0x60>
    b824:	ea00000c 	b	b85c <_ZL4_cvtyPclS_+0x12c>
    b828:	e51b3024 	ldr	r3, [fp, #-36]	; 0xffffffdc
    b82c:	e2433001 	sub	r3, r3, #1
    b830:	e50b3024 	str	r3, [fp, #-36]	; 0xffffffdc
    b834:	e51b3024 	ldr	r3, [fp, #-36]	; 0xffffffdc
    b838:	e5d33000 	ldrb	r3, [r3]
    b83c:	e51b2080 	ldr	r2, [fp, #-128]	; 0xffffff80
    b840:	e5c23000 	strb	r3, [r2]
    b844:	e51b3080 	ldr	r3, [fp, #-128]	; 0xffffff80
    b848:	e2833001 	add	r3, r3, #1
    b84c:	e50b3080 	str	r3, [fp, #-128]	; 0xffffff80
    b850:	e51b3020 	ldr	r3, [fp, #-32]	; 0xffffffe0
    b854:	e2833001 	add	r3, r3, #1
    b858:	e50b3020 	str	r3, [fp, #-32]	; 0xffffffe0
    b85c:	e24b2074 	sub	r2, fp, #116	; 0x74
    b860:	e51b3024 	ldr	r3, [fp, #-36]	; 0xffffffdc
    b864:	e1530002 	cmp	r3, r2
    b868:	1affffee 	bne	b828 <_ZL4_cvtyPclS_+0xf8>
    b86c:	e51b2080 	ldr	r2, [fp, #-128]	; 0xffffff80
    b870:	e3a03000 	mov	r3, #0
    b874:	e5c23000 	strb	r3, [r2]
    b878:	e51b3020 	ldr	r3, [fp, #-32]	; 0xffffffe0
    b87c:	e1a00003 	mov	r0, r3
    b880:	e24bd018 	sub	sp, fp, #24
    b884:	e89d6870 	ldm	sp, {r4, r5, r6, fp, sp, lr}
    b888:	e12fff1e 	bx	lr

0000b88c <_ZL6_sputccPPv>:
    b88c:	e1a0c00d 	mov	ip, sp
    b890:	e92dd800 	push	{fp, ip, lr, pc}
    b894:	e24cb004 	sub	fp, ip, #4
    b898:	e24dd010 	sub	sp, sp, #16
    b89c:	e1a03000 	mov	r3, r0
    b8a0:	e50b101c 	str	r1, [fp, #-28]	; 0xffffffe4
    b8a4:	e54b3015 	strb	r3, [fp, #-21]	; 0xffffffeb
    b8a8:	e51b301c 	ldr	r3, [fp, #-28]	; 0xffffffe4
    b8ac:	e50b3010 	str	r3, [fp, #-16]
    b8b0:	e51b3010 	ldr	r3, [fp, #-16]
    b8b4:	e5932008 	ldr	r2, [r3, #8]
    b8b8:	e51b3010 	ldr	r3, [fp, #-16]
    b8bc:	e5933004 	ldr	r3, [r3, #4]
    b8c0:	e1520003 	cmp	r2, r3
    b8c4:	aa00000f 	bge	b908 <_ZL6_sputccPPv+0x7c>
    b8c8:	e51b3010 	ldr	r3, [fp, #-16]
    b8cc:	e5932000 	ldr	r2, [r3]
    b8d0:	e55b3015 	ldrb	r3, [fp, #-21]	; 0xffffffeb
    b8d4:	e5c23000 	strb	r3, [r2]
    b8d8:	e2822001 	add	r2, r2, #1
    b8dc:	e51b3010 	ldr	r3, [fp, #-16]
    b8e0:	e5832000 	str	r2, [r3]
    b8e4:	e51b3010 	ldr	r3, [fp, #-16]
    b8e8:	e5932000 	ldr	r2, [r3]
    b8ec:	e3a03000 	mov	r3, #0
    b8f0:	e5c23000 	strb	r3, [r2]
    b8f4:	e51b3010 	ldr	r3, [fp, #-16]
    b8f8:	e5933008 	ldr	r3, [r3, #8]
    b8fc:	e2832001 	add	r2, r3, #1
    b900:	e51b3010 	ldr	r3, [fp, #-16]
    b904:	e5832008 	str	r2, [r3, #8]
    b908:	e24bd00c 	sub	sp, fp, #12
    b90c:	e89d6800 	ldm	sp, {fp, sp, lr}
    b910:	e12fff1e 	bx	lr

0000b914 <diag_vdump_buf_with_offset>:
    b914:	e1a0c00d 	mov	ip, sp
    b918:	e92dd800 	push	{fp, ip, lr, pc}
    b91c:	e24cb004 	sub	fp, ip, #4
    b920:	e24dd018 	sub	sp, sp, #24
    b924:	e50b0018 	str	r0, [fp, #-24]	; 0xffffffe8
    b928:	e50b101c 	str	r1, [fp, #-28]	; 0xffffffe4
    b92c:	e50b2020 	str	r2, [fp, #-32]	; 0xffffffe0
    b930:	e50b3024 	str	r3, [fp, #-36]	; 0xffffffdc
    b934:	e51b201c 	ldr	r2, [fp, #-28]	; 0xffffffe4
    b938:	e51b3020 	ldr	r3, [fp, #-32]	; 0xffffffe0
    b93c:	e1520003 	cmp	r2, r3
    b940:	2a000067 	bcs	bae4 <diag_vdump_buf_with_offset+0x1d0>
    b944:	e51b301c 	ldr	r3, [fp, #-28]	; 0xffffffe4
    b948:	e51b2020 	ldr	r2, [fp, #-32]	; 0xffffffe0
    b94c:	e0633002 	rsb	r3, r3, r2
    b950:	e50b3020 	str	r3, [fp, #-32]	; 0xffffffe0
    b954:	ea000062 	b	bae4 <diag_vdump_buf_with_offset+0x1d0>
    b958:	e51b3024 	ldr	r3, [fp, #-36]	; 0xffffffdc
    b95c:	e3530000 	cmp	r3, #0
    b960:	0a000008 	beq	b988 <diag_vdump_buf_with_offset+0x74>
    b964:	e51b201c 	ldr	r2, [fp, #-28]	; 0xffffffe4
    b968:	e51b3024 	ldr	r3, [fp, #-36]	; 0xffffffdc
    b96c:	e0633002 	rsb	r3, r3, r2
    b970:	e51b2018 	ldr	r2, [fp, #-24]	; 0xffffffe8
    b974:	e59f0180 	ldr	r0, [pc, #384]	; bafc <diag_vdump_buf_with_offset+0x1e8>
    b978:	e1a01003 	mov	r1, r3
    b97c:	e1a0e00f 	mov	lr, pc
    b980:	e12fff12 	bx	r2
    b984:	ea000004 	b	b99c <diag_vdump_buf_with_offset+0x88>
    b988:	e51b3018 	ldr	r3, [fp, #-24]	; 0xffffffe8
    b98c:	e59f0168 	ldr	r0, [pc, #360]	; bafc <diag_vdump_buf_with_offset+0x1e8>
    b990:	e51b101c 	ldr	r1, [fp, #-28]	; 0xffffffe4
    b994:	e1a0e00f 	mov	lr, pc
    b998:	e12fff13 	bx	r3
    b99c:	e3a03000 	mov	r3, #0
    b9a0:	e50b3014 	str	r3, [fp, #-20]	; 0xffffffec
    b9a4:	ea00001b 	b	ba18 <diag_vdump_buf_with_offset+0x104>
    b9a8:	e51b2020 	ldr	r2, [fp, #-32]	; 0xffffffe0
    b9ac:	e51b3014 	ldr	r3, [fp, #-20]	; 0xffffffec
    b9b0:	e1520003 	cmp	r2, r3
    b9b4:	da000009 	ble	b9e0 <diag_vdump_buf_with_offset+0xcc>
    b9b8:	e51b2014 	ldr	r2, [fp, #-20]	; 0xffffffec
    b9bc:	e51b301c 	ldr	r3, [fp, #-28]	; 0xffffffe4
    b9c0:	e0833002 	add	r3, r3, r2
    b9c4:	e5d33000 	ldrb	r3, [r3]
    b9c8:	e51b2018 	ldr	r2, [fp, #-24]	; 0xffffffe8
    b9cc:	e59f012c 	ldr	r0, [pc, #300]	; bb00 <diag_vdump_buf_with_offset+0x1ec>
    b9d0:	e1a01003 	mov	r1, r3
    b9d4:	e1a0e00f 	mov	lr, pc
    b9d8:	e12fff12 	bx	r2
    b9dc:	ea000003 	b	b9f0 <diag_vdump_buf_with_offset+0xdc>
    b9e0:	e51b3018 	ldr	r3, [fp, #-24]	; 0xffffffe8
    b9e4:	e59f0118 	ldr	r0, [pc, #280]	; bb04 <diag_vdump_buf_with_offset+0x1f0>
    b9e8:	e1a0e00f 	mov	lr, pc
    b9ec:	e12fff13 	bx	r3
    b9f0:	e51b3014 	ldr	r3, [fp, #-20]	; 0xffffffec
    b9f4:	e3530007 	cmp	r3, #7
    b9f8:	1a000003 	bne	ba0c <diag_vdump_buf_with_offset+0xf8>
    b9fc:	e51b3018 	ldr	r3, [fp, #-24]	; 0xffffffe8
    ba00:	e59f0100 	ldr	r0, [pc, #256]	; bb08 <diag_vdump_buf_with_offset+0x1f4>
    ba04:	e1a0e00f 	mov	lr, pc
    ba08:	e12fff13 	bx	r3
    ba0c:	e51b3014 	ldr	r3, [fp, #-20]	; 0xffffffec
    ba10:	e2833001 	add	r3, r3, #1
    ba14:	e50b3014 	str	r3, [fp, #-20]	; 0xffffffec
    ba18:	e51b3014 	ldr	r3, [fp, #-20]	; 0xffffffec
    ba1c:	e353000f 	cmp	r3, #15
    ba20:	daffffe0 	ble	b9a8 <diag_vdump_buf_with_offset+0x94>
    ba24:	e51b3018 	ldr	r3, [fp, #-24]	; 0xffffffe8
    ba28:	e59f00dc 	ldr	r0, [pc, #220]	; bb0c <diag_vdump_buf_with_offset+0x1f8>
    ba2c:	e1a0e00f 	mov	lr, pc
    ba30:	e12fff13 	bx	r3
    ba34:	e3a03000 	mov	r3, #0
    ba38:	e50b3014 	str	r3, [fp, #-20]	; 0xffffffec
    ba3c:	ea00001b 	b	bab0 <diag_vdump_buf_with_offset+0x19c>
    ba40:	e51b2020 	ldr	r2, [fp, #-32]	; 0xffffffe0
    ba44:	e51b3014 	ldr	r3, [fp, #-20]	; 0xffffffec
    ba48:	e1520003 	cmp	r2, r3
    ba4c:	da00000d 	ble	ba88 <diag_vdump_buf_with_offset+0x174>
    ba50:	e51b2014 	ldr	r2, [fp, #-20]	; 0xffffffec
    ba54:	e51b301c 	ldr	r3, [fp, #-28]	; 0xffffffe4
    ba58:	e0833002 	add	r3, r3, r2
    ba5c:	e5d33000 	ldrb	r3, [r3]
    ba60:	e50b3010 	str	r3, [fp, #-16]
    ba64:	e51b3010 	ldr	r3, [fp, #-16]
    ba68:	e353001f 	cmp	r3, #31
    ba6c:	da000002 	ble	ba7c <diag_vdump_buf_with_offset+0x168>
    ba70:	e51b3010 	ldr	r3, [fp, #-16]
    ba74:	e353007e 	cmp	r3, #126	; 0x7e
    ba78:	da000004 	ble	ba90 <diag_vdump_buf_with_offset+0x17c>
    ba7c:	e3a0302e 	mov	r3, #46	; 0x2e
    ba80:	e50b3010 	str	r3, [fp, #-16]
    ba84:	ea000001 	b	ba90 <diag_vdump_buf_with_offset+0x17c>
    ba88:	e3a03020 	mov	r3, #32
    ba8c:	e50b3010 	str	r3, [fp, #-16]
    ba90:	e51b3018 	ldr	r3, [fp, #-24]	; 0xffffffe8
    ba94:	e59f0074 	ldr	r0, [pc, #116]	; bb10 <diag_vdump_buf_with_offset+0x1fc>
    ba98:	e51b1010 	ldr	r1, [fp, #-16]
    ba9c:	e1a0e00f 	mov	lr, pc
    baa0:	e12fff13 	bx	r3
    baa4:	e51b3014 	ldr	r3, [fp, #-20]	; 0xffffffec
    baa8:	e2833001 	add	r3, r3, #1
    baac:	e50b3014 	str	r3, [fp, #-20]	; 0xffffffec
    bab0:	e51b3014 	ldr	r3, [fp, #-20]	; 0xffffffec
    bab4:	e353000f 	cmp	r3, #15
    bab8:	daffffe0 	ble	ba40 <diag_vdump_buf_with_offset+0x12c>
    babc:	e51b3018 	ldr	r3, [fp, #-24]	; 0xffffffe8
    bac0:	e59f004c 	ldr	r0, [pc, #76]	; bb14 <diag_vdump_buf_with_offset+0x200>
    bac4:	e1a0e00f 	mov	lr, pc
    bac8:	e12fff13 	bx	r3
    bacc:	e51b3020 	ldr	r3, [fp, #-32]	; 0xffffffe0
    bad0:	e2433010 	sub	r3, r3, #16
    bad4:	e50b3020 	str	r3, [fp, #-32]	; 0xffffffe0
    bad8:	e51b301c 	ldr	r3, [fp, #-28]	; 0xffffffe4
    badc:	e2833010 	add	r3, r3, #16
    bae0:	e50b301c 	str	r3, [fp, #-28]	; 0xffffffe4
    bae4:	e51b3020 	ldr	r3, [fp, #-32]	; 0xffffffe0
    bae8:	e3530000 	cmp	r3, #0
    baec:	caffff99 	bgt	b958 <diag_vdump_buf_with_offset+0x44>
    baf0:	e24bd00c 	sub	sp, fp, #12
    baf4:	e89d6800 	ldm	sp, {fp, sp, lr}
    baf8:	e12fff1e 	bx	lr
    bafc:	00015b1c 	.word	0x00015b1c
    bb00:	00015b24 	.word	0x00015b24
    bb04:	00015b2c 	.word	0x00015b2c
    bb08:	00015b30 	.word	0x00015b30
    bb0c:	00015b34 	.word	0x00015b34
    bb10:	00015b38 	.word	0x00015b38
    bb14:	00015b3c 	.word	0x00015b3c

0000bb18 <diag_dump_buf_with_offset>:
    bb18:	e1a0c00d 	mov	ip, sp
    bb1c:	e92dd800 	push	{fp, ip, lr, pc}
    bb20:	e24cb004 	sub	fp, ip, #4
    bb24:	e24dd010 	sub	sp, sp, #16
    bb28:	e50b0010 	str	r0, [fp, #-16]
    bb2c:	e50b1014 	str	r1, [fp, #-20]	; 0xffffffec
    bb30:	e50b2018 	str	r2, [fp, #-24]	; 0xffffffe8
    bb34:	e59f0018 	ldr	r0, [pc, #24]	; bb54 <diag_dump_buf_with_offset+0x3c>
    bb38:	e51b1010 	ldr	r1, [fp, #-16]
    bb3c:	e51b2014 	ldr	r2, [fp, #-20]	; 0xffffffec
    bb40:	e51b3018 	ldr	r3, [fp, #-24]	; 0xffffffe8
    bb44:	ebffff72 	bl	b914 <diag_vdump_buf_with_offset>
    bb48:	e24bd00c 	sub	sp, fp, #12
    bb4c:	e89d6800 	ldm	sp, {fp, sp, lr}
    bb50:	e12fff1e 	bx	lr
    bb54:	0000cd7c 	.word	0x0000cd7c

0000bb58 <diag_dump_buf>:
    bb58:	e1a0c00d 	mov	ip, sp
    bb5c:	e92dd800 	push	{fp, ip, lr, pc}
    bb60:	e24cb004 	sub	fp, ip, #4
    bb64:	e24dd008 	sub	sp, sp, #8
    bb68:	e50b0010 	str	r0, [fp, #-16]
    bb6c:	e50b1014 	str	r1, [fp, #-20]	; 0xffffffec
    bb70:	e51b3010 	ldr	r3, [fp, #-16]
    bb74:	e1a00003 	mov	r0, r3
    bb78:	e51b1014 	ldr	r1, [fp, #-20]	; 0xffffffec
    bb7c:	e3a02000 	mov	r2, #0
    bb80:	ebffffe4 	bl	bb18 <diag_dump_buf_with_offset>
    bb84:	e24bd00c 	sub	sp, fp, #12
    bb88:	e89d6800 	ldm	sp, {fp, sp, lr}
    bb8c:	e12fff1e 	bx	lr

0000bb90 <_ZN25Cyg_dummy_diag_init_classC1Ev>:
    bb90:	e1a0c00d 	mov	ip, sp
    bb94:	e92dd800 	push	{fp, ip, lr, pc}
    bb98:	e24cb004 	sub	fp, ip, #4
    bb9c:	e24dd008 	sub	sp, sp, #8
    bba0:	e50b0010 	str	r0, [fp, #-16]
    bba4:	ebfffd13 	bl	aff8 <hal_if_diag_init>
    bba8:	e51b3010 	ldr	r3, [fp, #-16]
    bbac:	e1a00003 	mov	r0, r3
    bbb0:	e24bd00c 	sub	sp, fp, #12
    bbb4:	e89d6800 	ldm	sp, {fp, sp, lr}
    bbb8:	e12fff1e 	bx	lr

0000bbbc <_Z41__static_initialization_and_destruction_0ii>:
    bbbc:	e1a0c00d 	mov	ip, sp
    bbc0:	e92dd800 	push	{fp, ip, lr, pc}
    bbc4:	e24cb004 	sub	fp, ip, #4
    bbc8:	e24dd008 	sub	sp, sp, #8
    bbcc:	e50b0010 	str	r0, [fp, #-16]
    bbd0:	e50b1014 	str	r1, [fp, #-20]	; 0xffffffec
    bbd4:	e51b3010 	ldr	r3, [fp, #-16]
    bbd8:	e3530001 	cmp	r3, #1
    bbdc:	1a000006 	bne	bbfc <_Z41__static_initialization_and_destruction_0ii+0x40>
    bbe0:	e51b2014 	ldr	r2, [fp, #-20]	; 0xffffffec
    bbe4:	e3a03d9d 	mov	r3, #10048	; 0x2740
    bbe8:	e2833034 	add	r3, r3, #52	; 0x34
    bbec:	e1520003 	cmp	r2, r3
    bbf0:	1a000001 	bne	bbfc <_Z41__static_initialization_and_destruction_0ii+0x40>
    bbf4:	e59f000c 	ldr	r0, [pc, #12]	; bc08 <_Z41__static_initialization_and_destruction_0ii+0x4c>
    bbf8:	ebffffe4 	bl	bb90 <_ZN25Cyg_dummy_diag_init_classC1Ev>
    bbfc:	e24bd00c 	sub	sp, fp, #12
    bc00:	e89d6800 	ldm	sp, {fp, sp, lr}
    bc04:	e12fff1e 	bx	lr
    bc08:	81003284 	.word	0x81003284

0000bc0c <_GLOBAL__I.10100_diag_write_char>:
    bc0c:	e1a0c00d 	mov	ip, sp
    bc10:	e92dd800 	push	{fp, ip, lr, pc}
    bc14:	e24cb004 	sub	fp, ip, #4
    bc18:	e3a00001 	mov	r0, #1
    bc1c:	e3a01d9d 	mov	r1, #10048	; 0x2740
    bc20:	e2811034 	add	r1, r1, #52	; 0x34
    bc24:	ebffffe4 	bl	bbbc <_Z41__static_initialization_and_destruction_0ii>
    bc28:	e24bd00c 	sub	sp, fp, #12
    bc2c:	e89d6800 	ldm	sp, {fp, sp, lr}
    bc30:	e12fff1e 	bx	lr

0000bc34 <diag_write_char>:
    bc34:	e1a0c00d 	mov	ip, sp
    bc38:	e92dd800 	push	{fp, ip, lr, pc}
    bc3c:	e24cb004 	sub	fp, ip, #4
    bc40:	e24dd008 	sub	sp, sp, #8
    bc44:	e1a03000 	mov	r3, r0
    bc48:	e54b300d 	strb	r3, [fp, #-13]
    bc4c:	e55b300d 	ldrb	r3, [fp, #-13]
    bc50:	e353000a 	cmp	r3, #10
    bc54:	1a000001 	bne	bc60 <diag_write_char+0x2c>
    bc58:	e3a0000d 	mov	r0, #13
    bc5c:	ebfffcf6 	bl	b03c <hal_if_diag_write_char>
    bc60:	e55b300d 	ldrb	r3, [fp, #-13]
    bc64:	e1a00003 	mov	r0, r3
    bc68:	ebfffcf3 	bl	b03c <hal_if_diag_write_char>
    bc6c:	e24bd00c 	sub	sp, fp, #12
    bc70:	e89d6800 	ldm	sp, {fp, sp, lr}
    bc74:	e12fff1e 	bx	lr

0000bc78 <diag_write_long_num>:
    bc78:	e1a0c00d 	mov	ip, sp
    bc7c:	e92dd870 	push	{r4, r5, r6, fp, ip, lr, pc}
    bc80:	e24cb004 	sub	fp, ip, #4
    bc84:	e24dd04c 	sub	sp, sp, #76	; 0x4c
    bc88:	e50b0054 	str	r0, [fp, #-84]	; 0xffffffac
    bc8c:	e50b1050 	str	r1, [fp, #-80]	; 0xffffffb0
    bc90:	e50b2058 	str	r2, [fp, #-88]	; 0xffffffa8
    bc94:	e50b305c 	str	r3, [fp, #-92]	; 0xffffffa4
    bc98:	e59b3004 	ldr	r3, [fp, #4]
    bc9c:	e3530000 	cmp	r3, #0
    bca0:	0a000002 	beq	bcb0 <diag_write_long_num+0x38>
    bca4:	e3a01030 	mov	r1, #48	; 0x30
    bca8:	e50b1060 	str	r1, [fp, #-96]	; 0xffffffa0
    bcac:	ea000001 	b	bcb8 <diag_write_long_num+0x40>
    bcb0:	e3a02020 	mov	r2, #32
    bcb4:	e50b2060 	str	r2, [fp, #-96]	; 0xffffffa0
    bcb8:	e51bc060 	ldr	ip, [fp, #-96]	; 0xffffffa0
    bcbc:	e1a0300c 	mov	r3, ip
    bcc0:	e54b3025 	strb	r3, [fp, #-37]	; 0xffffffdb
    bcc4:	e59f3208 	ldr	r3, [pc, #520]	; bed4 <HAL_BREAKINST_THUMB+0x16>
    bcc8:	e50b3024 	str	r3, [fp, #-36]	; 0xffffffdc
    bccc:	e3a03000 	mov	r3, #0
    bcd0:	e50b302c 	str	r3, [fp, #-44]	; 0xffffffd4
    bcd4:	ea000009 	b	bd00 <diag_write_long_num+0x88>
    bcd8:	e51b302c 	ldr	r3, [fp, #-44]	; 0xffffffd4
    bcdc:	e3e0202f 	mvn	r2, #47	; 0x2f
    bce0:	e24b101c 	sub	r1, fp, #28
    bce4:	e0813003 	add	r3, r1, r3
    bce8:	e0832002 	add	r2, r3, r2
    bcec:	e55b3025 	ldrb	r3, [fp, #-37]	; 0xffffffdb
    bcf0:	e5c23000 	strb	r3, [r2]
    bcf4:	e51b302c 	ldr	r3, [fp, #-44]	; 0xffffffd4
    bcf8:	e2833001 	add	r3, r3, #1
    bcfc:	e50b302c 	str	r3, [fp, #-44]	; 0xffffffd4
    bd00:	e51b302c 	ldr	r3, [fp, #-44]	; 0xffffffd4
    bd04:	e353001f 	cmp	r3, #31
    bd08:	dafffff2 	ble	bcd8 <diag_write_long_num+0x60>
    bd0c:	e3a03000 	mov	r3, #0
    bd10:	e50b302c 	str	r3, [fp, #-44]	; 0xffffffd4
    bd14:	e51b3054 	ldr	r3, [fp, #-84]	; 0xffffffac
    bd18:	e51b2050 	ldr	r2, [fp, #-80]	; 0xffffffb0
    bd1c:	e1833002 	orr	r3, r3, r2
    bd20:	e3530000 	cmp	r3, #0
    bd24:	1a000030 	bne	bdec <diag_write_long_num+0x174>
    bd28:	e51b302c 	ldr	r3, [fp, #-44]	; 0xffffffd4
    bd2c:	e3e0202f 	mvn	r2, #47	; 0x2f
    bd30:	e24bc01c 	sub	ip, fp, #28
    bd34:	e08c3003 	add	r3, ip, r3
    bd38:	e0832002 	add	r2, r3, r2
    bd3c:	e3a03030 	mov	r3, #48	; 0x30
    bd40:	e5c23000 	strb	r3, [r2]
    bd44:	e51b302c 	ldr	r3, [fp, #-44]	; 0xffffffd4
    bd48:	e2833001 	add	r3, r3, #1
    bd4c:	e50b302c 	str	r3, [fp, #-44]	; 0xffffffd4
    bd50:	ea00002a 	b	be00 <diag_write_long_num+0x188>
    bd54:	e51b3058 	ldr	r3, [fp, #-88]	; 0xffffffa8
    bd58:	e1a05003 	mov	r5, r3
    bd5c:	e3a06000 	mov	r6, #0
    bd60:	e24b3054 	sub	r3, fp, #84	; 0x54
    bd64:	e8930018 	ldm	r3, {r3, r4}
    bd68:	e1a00003 	mov	r0, r3
    bd6c:	e1a01004 	mov	r1, r4
    bd70:	e1a02005 	mov	r2, r5
    bd74:	e1a03006 	mov	r3, r6
    bd78:	eb0020c3 	bl	1408c <__aeabi_uldivmod>
    bd7c:	e1a04003 	mov	r4, r3
    bd80:	e1a03002 	mov	r3, r2
    bd84:	e50b3020 	str	r3, [fp, #-32]	; 0xffffffe0
    bd88:	e51b002c 	ldr	r0, [fp, #-44]	; 0xffffffd4
    bd8c:	e51b2024 	ldr	r2, [fp, #-36]	; 0xffffffdc
    bd90:	e51b3020 	ldr	r3, [fp, #-32]	; 0xffffffe0
    bd94:	e0823003 	add	r3, r2, r3
    bd98:	e5d31000 	ldrb	r1, [r3]
    bd9c:	e3e0202f 	mvn	r2, #47	; 0x2f
    bda0:	e24bc01c 	sub	ip, fp, #28
    bda4:	e08c3000 	add	r3, ip, r0
    bda8:	e0832002 	add	r2, r3, r2
    bdac:	e1a03001 	mov	r3, r1
    bdb0:	e5c23000 	strb	r3, [r2]
    bdb4:	e51b302c 	ldr	r3, [fp, #-44]	; 0xffffffd4
    bdb8:	e2833001 	add	r3, r3, #1
    bdbc:	e50b302c 	str	r3, [fp, #-44]	; 0xffffffd4
    bdc0:	e51b3058 	ldr	r3, [fp, #-88]	; 0xffffffa8
    bdc4:	e3a04000 	mov	r4, #0
    bdc8:	e24b0054 	sub	r0, fp, #84	; 0x54
    bdcc:	e8900003 	ldm	r0, {r0, r1}
    bdd0:	e1a02003 	mov	r2, r3
    bdd4:	e1a03004 	mov	r3, r4
    bdd8:	eb0020ab 	bl	1408c <__aeabi_uldivmod>
    bddc:	e1a03000 	mov	r3, r0
    bde0:	e1a04001 	mov	r4, r1
    bde4:	e50b3054 	str	r3, [fp, #-84]	; 0xffffffac
    bde8:	e50b4050 	str	r4, [fp, #-80]	; 0xffffffb0
    bdec:	e51b3054 	ldr	r3, [fp, #-84]	; 0xffffffac
    bdf0:	e51b2050 	ldr	r2, [fp, #-80]	; 0xffffffb0
    bdf4:	e1833002 	orr	r3, r3, r2
    bdf8:	e3530000 	cmp	r3, #0
    bdfc:	1affffd4 	bne	bd54 <diag_write_long_num+0xdc>
    be00:	e59b2008 	ldr	r2, [fp, #8]
    be04:	e51b302c 	ldr	r3, [fp, #-44]	; 0xffffffd4
    be08:	e1520003 	cmp	r2, r3
    be0c:	da000001 	ble	be18 <diag_write_long_num+0x1a0>
    be10:	e59b3008 	ldr	r3, [fp, #8]
    be14:	e50b302c 	str	r3, [fp, #-44]	; 0xffffffd4
    be18:	e51b305c 	ldr	r3, [fp, #-92]	; 0xffffffa4
    be1c:	e353002d 	cmp	r3, #45	; 0x2d
    be20:	1a000016 	bne	be80 <diag_write_long_num+0x208>
    be24:	e51b302c 	ldr	r3, [fp, #-44]	; 0xffffffd4
    be28:	e2433001 	sub	r3, r3, #1
    be2c:	e3e0202f 	mvn	r2, #47	; 0x2f
    be30:	e24b101c 	sub	r1, fp, #28
    be34:	e0813003 	add	r3, r1, r3
    be38:	e0833002 	add	r3, r3, r2
    be3c:	e5d32000 	ldrb	r2, [r3]
    be40:	e55b3025 	ldrb	r3, [fp, #-37]	; 0xffffffdb
    be44:	e1530002 	cmp	r3, r2
    be48:	1a000002 	bne	be58 <diag_write_long_num+0x1e0>
    be4c:	e51b302c 	ldr	r3, [fp, #-44]	; 0xffffffd4
    be50:	e2433001 	sub	r3, r3, #1
    be54:	e50b302c 	str	r3, [fp, #-44]	; 0xffffffd4
    be58:	e51b102c 	ldr	r1, [fp, #-44]	; 0xffffffd4
    be5c:	e51b305c 	ldr	r3, [fp, #-92]	; 0xffffffa4
    be60:	e20300ff 	and	r0, r3, #255	; 0xff
    be64:	e3e0202f 	mvn	r2, #47	; 0x2f
    be68:	e24bc01c 	sub	ip, fp, #28
    be6c:	e08c3001 	add	r3, ip, r1
    be70:	e0832002 	add	r2, r3, r2
    be74:	e1a03000 	mov	r3, r0
    be78:	e5c23000 	strb	r3, [r2]
    be7c:	ea00000e 	b	bebc <diag_write_long_num+0x244>
    be80:	e51b302c 	ldr	r3, [fp, #-44]	; 0xffffffd4
    be84:	e2433001 	sub	r3, r3, #1
    be88:	e50b302c 	str	r3, [fp, #-44]	; 0xffffffd4
    be8c:	ea00000a 	b	bebc <diag_write_long_num+0x244>
    be90:	e51b302c 	ldr	r3, [fp, #-44]	; 0xffffffd4
    be94:	e3e0202f 	mvn	r2, #47	; 0x2f
    be98:	e24b101c 	sub	r1, fp, #28
    be9c:	e0813003 	add	r3, r1, r3
    bea0:	e0833002 	add	r3, r3, r2
    bea4:	e5d32000 	ldrb	r2, [r3]
    bea8:	e51b302c 	ldr	r3, [fp, #-44]	; 0xffffffd4
    beac:	e2433001 	sub	r3, r3, #1
    beb0:	e50b302c 	str	r3, [fp, #-44]	; 0xffffffd4
    beb4:	e1a00002 	mov	r0, r2
    beb8:	ebffff5d 	bl	bc34 <diag_write_char>
    bebc:	e51b302c 	ldr	r3, [fp, #-44]	; 0xffffffd4
    bec0:	e3530000 	cmp	r3, #0
    bec4:	aafffff1 	bge	be90 <diag_write_long_num+0x218>
    bec8:	e24bd018 	sub	sp, fp, #24
    becc:	e89d6870 	ldm	sp, {r4, r5, r6, fp, sp, lr}
    bed0:	e12fff1e 	bx	lr
    bed4:	00015b40 	.word	0x00015b40

0000bed8 <diag_write_num>:
    bed8:	e1a0c00d 	mov	ip, sp
    bedc:	e92dd800 	push	{fp, ip, lr, pc}
    bee0:	e24cb004 	sub	fp, ip, #4
    bee4:	e24dd018 	sub	sp, sp, #24
    bee8:	e50b0010 	str	r0, [fp, #-16]
    beec:	e50b1014 	str	r1, [fp, #-20]	; 0xffffffec
    bef0:	e50b2018 	str	r2, [fp, #-24]	; 0xffffffe8
    bef4:	e50b301c 	str	r3, [fp, #-28]	; 0xffffffe4
    bef8:	e51b3010 	ldr	r3, [fp, #-16]
    befc:	e1a01003 	mov	r1, r3
    bf00:	e3a02000 	mov	r2, #0
    bf04:	e51b301c 	ldr	r3, [fp, #-28]	; 0xffffffe4
    bf08:	e58d3000 	str	r3, [sp]
    bf0c:	e59b3004 	ldr	r3, [fp, #4]
    bf10:	e58d3004 	str	r3, [sp, #4]
    bf14:	e1a00001 	mov	r0, r1
    bf18:	e1a01002 	mov	r1, r2
    bf1c:	e51b2014 	ldr	r2, [fp, #-20]	; 0xffffffec
    bf20:	e51b3018 	ldr	r3, [fp, #-24]	; 0xffffffe8
    bf24:	ebffff53 	bl	bc78 <diag_write_long_num>
    bf28:	e24bd00c 	sub	sp, fp, #12
    bf2c:	e89d6800 	ldm	sp, {fp, sp, lr}
    bf30:	e12fff1e 	bx	lr

0000bf34 <diag_write_hex>:
    bf34:	e1a0c00d 	mov	ip, sp
    bf38:	e92dd800 	push	{fp, ip, lr, pc}
    bf3c:	e24cb004 	sub	fp, ip, #4
    bf40:	e24dd010 	sub	sp, sp, #16
    bf44:	e50b0010 	str	r0, [fp, #-16]
    bf48:	e3a03000 	mov	r3, #0
    bf4c:	e58d3000 	str	r3, [sp]
    bf50:	e51b0010 	ldr	r0, [fp, #-16]
    bf54:	e3a01010 	mov	r1, #16
    bf58:	e3a0202b 	mov	r2, #43	; 0x2b
    bf5c:	e3a03000 	mov	r3, #0
    bf60:	ebffffdc 	bl	bed8 <diag_write_num>
    bf64:	e24bd00c 	sub	sp, fp, #12
    bf68:	e89d6800 	ldm	sp, {fp, sp, lr}
    bf6c:	e12fff1e 	bx	lr

0000bf70 <diag_write_string>:
    bf70:	e1a0c00d 	mov	ip, sp
    bf74:	e92dd800 	push	{fp, ip, lr, pc}
    bf78:	e24cb004 	sub	fp, ip, #4
    bf7c:	e24dd008 	sub	sp, sp, #8
    bf80:	e50b0010 	str	r0, [fp, #-16]
    bf84:	ea000006 	b	bfa4 <diag_write_string+0x34>
    bf88:	e51b3010 	ldr	r3, [fp, #-16]
    bf8c:	e5d32000 	ldrb	r2, [r3]
    bf90:	e51b3010 	ldr	r3, [fp, #-16]
    bf94:	e2833001 	add	r3, r3, #1
    bf98:	e50b3010 	str	r3, [fp, #-16]
    bf9c:	e1a00002 	mov	r0, r2
    bfa0:	ebffff23 	bl	bc34 <diag_write_char>
    bfa4:	e51b3010 	ldr	r3, [fp, #-16]
    bfa8:	e5d33000 	ldrb	r3, [r3]
    bfac:	e3530000 	cmp	r3, #0
    bfb0:	1afffff4 	bne	bf88 <diag_write_string+0x18>
    bfb4:	e24bd00c 	sub	sp, fp, #12
    bfb8:	e89d6800 	ldm	sp, {fp, sp, lr}
    bfbc:	e12fff1e 	bx	lr

0000bfc0 <_ZL8_vprintfPFvcPPvES0_PKcS_>:
    bfc0:	e1a0c00d 	mov	ip, sp
    bfc4:	e92dd870 	push	{r4, r5, r6, fp, ip, lr, pc}
    bfc8:	e24cb004 	sub	fp, ip, #4
    bfcc:	e24dd0a4 	sub	sp, sp, #164	; 0xa4
    bfd0:	e50b0098 	str	r0, [fp, #-152]	; 0xffffff68
    bfd4:	e50b109c 	str	r1, [fp, #-156]	; 0xffffff64
    bfd8:	e50b20a0 	str	r2, [fp, #-160]	; 0xffffff60
    bfdc:	e50b30a4 	str	r3, [fp, #-164]	; 0xffffff5c
    bfe0:	e24b3092 	sub	r3, fp, #146	; 0x92
    bfe4:	e50b3050 	str	r3, [fp, #-80]	; 0xffffffb0
    bfe8:	e3a03000 	mov	r3, #0
    bfec:	e3a04000 	mov	r4, #0
    bff0:	e50b302c 	str	r3, [fp, #-44]	; 0xffffffd4
    bff4:	e50b4028 	str	r4, [fp, #-40]	; 0xffffffd8
    bff8:	e3a03000 	mov	r3, #0
    bffc:	e50b3024 	str	r3, [fp, #-36]	; 0xffffffdc
    c000:	e3a03000 	mov	r3, #0
    c004:	e50b3020 	str	r3, [fp, #-32]	; 0xffffffe0
    c008:	e51b00a0 	ldr	r0, [fp, #-160]	; 0xffffff60
    c00c:	ebfffd85 	bl	b628 <_ZL17diag_check_stringPKc>
    c010:	e1a03000 	mov	r3, r0
    c014:	e3530000 	cmp	r3, #0
    c018:	13a03000 	movne	r3, #0
    c01c:	03a03001 	moveq	r3, #1
    c020:	e20330ff 	and	r3, r3, #255	; 0xff
    c024:	e3530000 	cmp	r3, #0
    c028:	0a000321 	beq	ccb4 <_ZL8_vprintfPFvcPPvES0_PKcS_+0xcf4>
    c02c:	e59f0cd0 	ldr	r0, [pc, #3280]	; cd04 <_ZL8_vprintfPFvcPPvES0_PKcS_+0xd44>
    c030:	ebffffce 	bl	bf70 <diag_write_string>
    c034:	e51b30a0 	ldr	r3, [fp, #-160]	; 0xffffff60
    c038:	e1a00003 	mov	r0, r3
    c03c:	ebffffbc 	bl	bf34 <diag_write_hex>
    c040:	e59f0cc0 	ldr	r0, [pc, #3264]	; cd08 <_ZL8_vprintfPFvcPPvES0_PKcS_+0xd48>
    c044:	ebffffc9 	bl	bf70 <diag_write_string>
    c048:	e3a03000 	mov	r3, #0
    c04c:	e50b3038 	str	r3, [fp, #-56]	; 0xffffffc8
    c050:	ea00000f 	b	c094 <_ZL8_vprintfPFvcPPvES0_PKcS_+0xd4>
    c054:	e3a00020 	mov	r0, #32
    c058:	ebfffef5 	bl	bc34 <diag_write_char>
    c05c:	e51b20a4 	ldr	r2, [fp, #-164]	; 0xffffff5c
    c060:	e2823004 	add	r3, r2, #4
    c064:	e50b30a4 	str	r3, [fp, #-164]	; 0xffffff5c
    c068:	e1a03002 	mov	r3, r2
    c06c:	e5933000 	ldr	r3, [r3]
    c070:	e3a04000 	mov	r4, #0
    c074:	e50b302c 	str	r3, [fp, #-44]	; 0xffffffd4
    c078:	e50b4028 	str	r4, [fp, #-40]	; 0xffffffd8
    c07c:	e51b302c 	ldr	r3, [fp, #-44]	; 0xffffffd4
    c080:	e1a00003 	mov	r0, r3
    c084:	ebffffaa 	bl	bf34 <diag_write_hex>
    c088:	e51b3038 	ldr	r3, [fp, #-56]	; 0xffffffc8
    c08c:	e2833001 	add	r3, r3, #1
    c090:	e50b3038 	str	r3, [fp, #-56]	; 0xffffffc8
    c094:	e51b3038 	ldr	r3, [fp, #-56]	; 0xffffffc8
    c098:	e3530007 	cmp	r3, #7
    c09c:	daffffec 	ble	c054 <_ZL8_vprintfPFvcPPvES0_PKcS_+0x94>
    c0a0:	e59f0c64 	ldr	r0, [pc, #3172]	; cd0c <_ZL8_vprintfPFvcPPvES0_PKcS_+0xd4c>
    c0a4:	ebffffb1 	bl	bf70 <diag_write_string>
    c0a8:	e3a00000 	mov	r0, #0
    c0ac:	e50b00b4 	str	r0, [fp, #-180]	; 0xffffff4c
    c0b0:	ea00030e 	b	ccf0 <_ZL8_vprintfPFvcPPvES0_PKcS_+0xd30>
    c0b4:	e55b3052 	ldrb	r3, [fp, #-82]	; 0xffffffae
    c0b8:	e3530025 	cmp	r3, #37	; 0x25
    c0bc:	1a0002f3 	bne	cc90 <_ZL8_vprintfPFvcPPvES0_PKcS_+0xcd0>
    c0c0:	e51b30a0 	ldr	r3, [fp, #-160]	; 0xffffff60
    c0c4:	e5d33000 	ldrb	r3, [r3]
    c0c8:	e54b3052 	strb	r3, [fp, #-82]	; 0xffffffae
    c0cc:	e51b30a0 	ldr	r3, [fp, #-160]	; 0xffffff60
    c0d0:	e2833001 	add	r3, r3, #1
    c0d4:	e50b30a0 	str	r3, [fp, #-160]	; 0xffffff60
    c0d8:	e3a03000 	mov	r3, #0
    c0dc:	e50b3030 	str	r3, [fp, #-48]	; 0xffffffd0
    c0e0:	e51b3030 	ldr	r3, [fp, #-48]	; 0xffffffd0
    c0e4:	e50b3034 	str	r3, [fp, #-52]	; 0xffffffcc
    c0e8:	e51b3034 	ldr	r3, [fp, #-52]	; 0xffffffcc
    c0ec:	e50b303c 	str	r3, [fp, #-60]	; 0xffffffc4
    c0f0:	e51b303c 	ldr	r3, [fp, #-60]	; 0xffffffc4
    c0f4:	e50b3048 	str	r3, [fp, #-72]	; 0xffffffb8
    c0f8:	e51b3048 	ldr	r3, [fp, #-72]	; 0xffffffb8
    c0fc:	e50b304c 	str	r3, [fp, #-76]	; 0xffffffb4
    c100:	e55b3052 	ldrb	r3, [fp, #-82]	; 0xffffffae
    c104:	e353002d 	cmp	r3, #45	; 0x2d
    c108:	1a000008 	bne	c130 <_ZL8_vprintfPFvcPPvES0_PKcS_+0x170>
    c10c:	e51b30a0 	ldr	r3, [fp, #-160]	; 0xffffff60
    c110:	e5d33000 	ldrb	r3, [r3]
    c114:	e54b3052 	strb	r3, [fp, #-82]	; 0xffffffae
    c118:	e51b30a0 	ldr	r3, [fp, #-160]	; 0xffffff60
    c11c:	e2833001 	add	r3, r3, #1
    c120:	e50b30a0 	str	r3, [fp, #-160]	; 0xffffff60
    c124:	e51b303c 	ldr	r3, [fp, #-60]	; 0xffffffc4
    c128:	e2833001 	add	r3, r3, #1
    c12c:	e50b303c 	str	r3, [fp, #-60]	; 0xffffffc4
    c130:	e55b3052 	ldrb	r3, [fp, #-82]	; 0xffffffae
    c134:	e3530030 	cmp	r3, #48	; 0x30
    c138:	1a000008 	bne	c160 <_ZL8_vprintfPFvcPPvES0_PKcS_+0x1a0>
    c13c:	e3a03001 	mov	r3, #1
    c140:	e50b3044 	str	r3, [fp, #-68]	; 0xffffffbc
    c144:	e51b30a0 	ldr	r3, [fp, #-160]	; 0xffffff60
    c148:	e5d33000 	ldrb	r3, [r3]
    c14c:	e54b3052 	strb	r3, [fp, #-82]	; 0xffffffae
    c150:	e51b30a0 	ldr	r3, [fp, #-160]	; 0xffffff60
    c154:	e2833001 	add	r3, r3, #1
    c158:	e50b30a0 	str	r3, [fp, #-160]	; 0xffffff60
    c15c:	ea000010 	b	c1a4 <_ZL8_vprintfPFvcPPvES0_PKcS_+0x1e4>
    c160:	e3a03000 	mov	r3, #0
    c164:	e50b3044 	str	r3, [fp, #-68]	; 0xffffffbc
    c168:	ea00000d 	b	c1a4 <_ZL8_vprintfPFvcPPvES0_PKcS_+0x1e4>
    c16c:	e51b304c 	ldr	r3, [fp, #-76]	; 0xffffffb4
    c170:	e1a02083 	lsl	r2, r3, #1
    c174:	e1a03102 	lsl	r3, r2, #2
    c178:	e0822003 	add	r2, r2, r3
    c17c:	e55b3052 	ldrb	r3, [fp, #-82]	; 0xffffffae
    c180:	e2433030 	sub	r3, r3, #48	; 0x30
    c184:	e0823003 	add	r3, r2, r3
    c188:	e50b304c 	str	r3, [fp, #-76]	; 0xffffffb4
    c18c:	e51b30a0 	ldr	r3, [fp, #-160]	; 0xffffff60
    c190:	e5d33000 	ldrb	r3, [r3]
    c194:	e54b3052 	strb	r3, [fp, #-82]	; 0xffffffae
    c198:	e51b30a0 	ldr	r3, [fp, #-160]	; 0xffffff60
    c19c:	e2833001 	add	r3, r3, #1
    c1a0:	e50b30a0 	str	r3, [fp, #-160]	; 0xffffff60
    c1a4:	e55b3052 	ldrb	r3, [fp, #-82]	; 0xffffffae
    c1a8:	e353002f 	cmp	r3, #47	; 0x2f
    c1ac:	9a000002 	bls	c1bc <_ZL8_vprintfPFvcPPvES0_PKcS_+0x1fc>
    c1b0:	e55b3052 	ldrb	r3, [fp, #-82]	; 0xffffffae
    c1b4:	e3530039 	cmp	r3, #57	; 0x39
    c1b8:	9affffeb 	bls	c16c <_ZL8_vprintfPFvcPPvES0_PKcS_+0x1ac>
    c1bc:	e55b3052 	ldrb	r3, [fp, #-82]	; 0xffffffae
    c1c0:	e353002e 	cmp	r3, #46	; 0x2e
    c1c4:	1a00001e 	bne	c244 <_ZL8_vprintfPFvcPPvES0_PKcS_+0x284>
    c1c8:	e51b30a0 	ldr	r3, [fp, #-160]	; 0xffffff60
    c1cc:	e5d33000 	ldrb	r3, [r3]
    c1d0:	e54b3052 	strb	r3, [fp, #-82]	; 0xffffffae
    c1d4:	e51b30a0 	ldr	r3, [fp, #-160]	; 0xffffff60
    c1d8:	e2833001 	add	r3, r3, #1
    c1dc:	e50b30a0 	str	r3, [fp, #-160]	; 0xffffff60
    c1e0:	e51b3044 	ldr	r3, [fp, #-68]	; 0xffffffbc
    c1e4:	e2833001 	add	r3, r3, #1
    c1e8:	e50b3044 	str	r3, [fp, #-68]	; 0xffffffbc
    c1ec:	ea00000d 	b	c228 <_ZL8_vprintfPFvcPPvES0_PKcS_+0x268>
    c1f0:	e51b3048 	ldr	r3, [fp, #-72]	; 0xffffffb8
    c1f4:	e1a02083 	lsl	r2, r3, #1
    c1f8:	e1a03102 	lsl	r3, r2, #2
    c1fc:	e0822003 	add	r2, r2, r3
    c200:	e55b3052 	ldrb	r3, [fp, #-82]	; 0xffffffae
    c204:	e2433030 	sub	r3, r3, #48	; 0x30
    c208:	e0823003 	add	r3, r2, r3
    c20c:	e50b3048 	str	r3, [fp, #-72]	; 0xffffffb8
    c210:	e51b30a0 	ldr	r3, [fp, #-160]	; 0xffffff60
    c214:	e5d33000 	ldrb	r3, [r3]
    c218:	e54b3052 	strb	r3, [fp, #-82]	; 0xffffffae
    c21c:	e51b30a0 	ldr	r3, [fp, #-160]	; 0xffffff60
    c220:	e2833001 	add	r3, r3, #1
    c224:	e50b30a0 	str	r3, [fp, #-160]	; 0xffffff60
    c228:	e55b3052 	ldrb	r3, [fp, #-82]	; 0xffffffae
    c22c:	e353002f 	cmp	r3, #47	; 0x2f
    c230:	9a000005 	bls	c24c <_ZL8_vprintfPFvcPPvES0_PKcS_+0x28c>
    c234:	e55b3052 	ldrb	r3, [fp, #-82]	; 0xffffffae
    c238:	e3530039 	cmp	r3, #57	; 0x39
    c23c:	9affffeb 	bls	c1f0 <_ZL8_vprintfPFvcPPvES0_PKcS_+0x230>
    c240:	ea000001 	b	c24c <_ZL8_vprintfPFvcPPvES0_PKcS_+0x28c>
    c244:	e51b304c 	ldr	r3, [fp, #-76]	; 0xffffffb4
    c248:	e50b3048 	str	r3, [fp, #-72]	; 0xffffffb8
    c24c:	e3a03000 	mov	r3, #0
    c250:	e54b3051 	strb	r3, [fp, #-81]	; 0xffffffaf
    c254:	e55b3052 	ldrb	r3, [fp, #-82]	; 0xffffffae
    c258:	e353006c 	cmp	r3, #108	; 0x6c
    c25c:	1a000012 	bne	c2ac <_ZL8_vprintfPFvcPPvES0_PKcS_+0x2ec>
    c260:	e51b30a0 	ldr	r3, [fp, #-160]	; 0xffffff60
    c264:	e5d33000 	ldrb	r3, [r3]
    c268:	e54b3052 	strb	r3, [fp, #-82]	; 0xffffffae
    c26c:	e51b30a0 	ldr	r3, [fp, #-160]	; 0xffffff60
    c270:	e2833001 	add	r3, r3, #1
    c274:	e50b30a0 	str	r3, [fp, #-160]	; 0xffffff60
    c278:	e3a03001 	mov	r3, #1
    c27c:	e50b3034 	str	r3, [fp, #-52]	; 0xffffffcc
    c280:	e55b3052 	ldrb	r3, [fp, #-82]	; 0xffffffae
    c284:	e353006c 	cmp	r3, #108	; 0x6c
    c288:	1a000007 	bne	c2ac <_ZL8_vprintfPFvcPPvES0_PKcS_+0x2ec>
    c28c:	e51b30a0 	ldr	r3, [fp, #-160]	; 0xffffff60
    c290:	e5d33000 	ldrb	r3, [r3]
    c294:	e54b3052 	strb	r3, [fp, #-82]	; 0xffffffae
    c298:	e51b30a0 	ldr	r3, [fp, #-160]	; 0xffffff60
    c29c:	e2833001 	add	r3, r3, #1
    c2a0:	e50b30a0 	str	r3, [fp, #-160]	; 0xffffff60
    c2a4:	e3a03001 	mov	r3, #1
    c2a8:	e50b3030 	str	r3, [fp, #-48]	; 0xffffffd0
    c2ac:	e55b3052 	ldrb	r3, [fp, #-82]	; 0xffffffae
    c2b0:	e353007a 	cmp	r3, #122	; 0x7a
    c2b4:	1a000007 	bne	c2d8 <_ZL8_vprintfPFvcPPvES0_PKcS_+0x318>
    c2b8:	e51b30a0 	ldr	r3, [fp, #-160]	; 0xffffff60
    c2bc:	e5d33000 	ldrb	r3, [r3]
    c2c0:	e54b3052 	strb	r3, [fp, #-82]	; 0xffffffae
    c2c4:	e51b30a0 	ldr	r3, [fp, #-160]	; 0xffffff60
    c2c8:	e2833001 	add	r3, r3, #1
    c2cc:	e50b30a0 	str	r3, [fp, #-160]	; 0xffffff60
    c2d0:	e3a03001 	mov	r3, #1
    c2d4:	e50b3034 	str	r3, [fp, #-52]	; 0xffffffcc
    c2d8:	e55b3052 	ldrb	r3, [fp, #-82]	; 0xffffffae
    c2dc:	e2433042 	sub	r3, r3, #66	; 0x42
    c2e0:	e3530036 	cmp	r3, #54	; 0x36
    c2e4:	979ff103 	ldrls	pc, [pc, r3, lsl #2]
    c2e8:	ea00008e 	b	c528 <_ZL8_vprintfPFvcPPvES0_PKcS_+0x568>
    c2ec:	0000c3d0 	.word	0x0000c3d0
    c2f0:	0000c528 	.word	0x0000c528
    c2f4:	0000c3d0 	.word	0x0000c3d0
    c2f8:	0000c528 	.word	0x0000c528
    c2fc:	0000c528 	.word	0x0000c528
    c300:	0000c528 	.word	0x0000c528
    c304:	0000c528 	.word	0x0000c528
    c308:	0000c528 	.word	0x0000c528
    c30c:	0000c528 	.word	0x0000c528
    c310:	0000c528 	.word	0x0000c528
    c314:	0000c528 	.word	0x0000c528
    c318:	0000c528 	.word	0x0000c528
    c31c:	0000c528 	.word	0x0000c528
    c320:	0000c528 	.word	0x0000c528
    c324:	0000c528 	.word	0x0000c528
    c328:	0000c528 	.word	0x0000c528
    c32c:	0000c528 	.word	0x0000c528
    c330:	0000c528 	.word	0x0000c528
    c334:	0000c528 	.word	0x0000c528
    c338:	0000c3d0 	.word	0x0000c3d0
    c33c:	0000c528 	.word	0x0000c528
    c340:	0000c528 	.word	0x0000c528
    c344:	0000c3d0 	.word	0x0000c3d0
    c348:	0000c528 	.word	0x0000c528
    c34c:	0000c528 	.word	0x0000c528
    c350:	0000c528 	.word	0x0000c528
    c354:	0000c528 	.word	0x0000c528
    c358:	0000c528 	.word	0x0000c528
    c35c:	0000c528 	.word	0x0000c528
    c360:	0000c528 	.word	0x0000c528
    c364:	0000c528 	.word	0x0000c528
    c368:	0000c528 	.word	0x0000c528
    c36c:	0000c3d0 	.word	0x0000c3d0
    c370:	0000c528 	.word	0x0000c528
    c374:	0000c3d0 	.word	0x0000c3d0
    c378:	0000c528 	.word	0x0000c528
    c37c:	0000c528 	.word	0x0000c528
    c380:	0000c528 	.word	0x0000c528
    c384:	0000c528 	.word	0x0000c528
    c388:	0000c528 	.word	0x0000c528
    c38c:	0000c528 	.word	0x0000c528
    c390:	0000c528 	.word	0x0000c528
    c394:	0000c528 	.word	0x0000c528
    c398:	0000c528 	.word	0x0000c528
    c39c:	0000c528 	.word	0x0000c528
    c3a0:	0000c528 	.word	0x0000c528
    c3a4:	0000c3c8 	.word	0x0000c3c8
    c3a8:	0000c528 	.word	0x0000c528
    c3ac:	0000c528 	.word	0x0000c528
    c3b0:	0000c528 	.word	0x0000c528
    c3b4:	0000c528 	.word	0x0000c528
    c3b8:	0000c3d0 	.word	0x0000c3d0
    c3bc:	0000c528 	.word	0x0000c528
    c3c0:	0000c528 	.word	0x0000c528
    c3c4:	0000c3d0 	.word	0x0000c3d0
    c3c8:	e3a03001 	mov	r3, #1
    c3cc:	e50b3034 	str	r3, [fp, #-52]	; 0xffffffcc
    c3d0:	e51b3030 	ldr	r3, [fp, #-48]	; 0xffffffd0
    c3d4:	e3530000 	cmp	r3, #0
    c3d8:	0a00000f 	beq	c41c <_ZL8_vprintfPFvcPPvES0_PKcS_+0x45c>
    c3dc:	e51b10a4 	ldr	r1, [fp, #-164]	; 0xffffff5c
    c3e0:	e50b10b0 	str	r1, [fp, #-176]	; 0xffffff50
    c3e4:	e51b20b0 	ldr	r2, [fp, #-176]	; 0xffffff50
    c3e8:	e2822007 	add	r2, r2, #7
    c3ec:	e50b20b0 	str	r2, [fp, #-176]	; 0xffffff50
    c3f0:	e51b30b0 	ldr	r3, [fp, #-176]	; 0xffffff50
    c3f4:	e3c33007 	bic	r3, r3, #7
    c3f8:	e50b30b0 	str	r3, [fp, #-176]	; 0xffffff50
    c3fc:	e51b00b0 	ldr	r0, [fp, #-176]	; 0xffffff50
    c400:	e2803008 	add	r3, r0, #8
    c404:	e50b30a4 	str	r3, [fp, #-164]	; 0xffffff5c
    c408:	e51b30b0 	ldr	r3, [fp, #-176]	; 0xffffff50
    c40c:	e8930018 	ldm	r3, {r3, r4}
    c410:	e50b302c 	str	r3, [fp, #-44]	; 0xffffffd4
    c414:	e50b4028 	str	r4, [fp, #-40]	; 0xffffffd8
    c418:	ea000013 	b	c46c <_ZL8_vprintfPFvcPPvES0_PKcS_+0x4ac>
    c41c:	e51b3034 	ldr	r3, [fp, #-52]	; 0xffffffcc
    c420:	e3530000 	cmp	r3, #0
    c424:	0a000008 	beq	c44c <_ZL8_vprintfPFvcPPvES0_PKcS_+0x48c>
    c428:	e51b20a4 	ldr	r2, [fp, #-164]	; 0xffffff5c
    c42c:	e2823004 	add	r3, r2, #4
    c430:	e50b30a4 	str	r3, [fp, #-164]	; 0xffffff5c
    c434:	e1a03002 	mov	r3, r2
    c438:	e5933000 	ldr	r3, [r3]
    c43c:	e1a04fc3 	asr	r4, r3, #31
    c440:	e50b302c 	str	r3, [fp, #-44]	; 0xffffffd4
    c444:	e50b4028 	str	r4, [fp, #-40]	; 0xffffffd8
    c448:	ea000007 	b	c46c <_ZL8_vprintfPFvcPPvES0_PKcS_+0x4ac>
    c44c:	e51b20a4 	ldr	r2, [fp, #-164]	; 0xffffff5c
    c450:	e2823004 	add	r3, r2, #4
    c454:	e50b30a4 	str	r3, [fp, #-164]	; 0xffffff5c
    c458:	e1a03002 	mov	r3, r2
    c45c:	e5933000 	ldr	r3, [r3]
    c460:	e1a04fc3 	asr	r4, r3, #31
    c464:	e50b302c 	str	r3, [fp, #-44]	; 0xffffffd4
    c468:	e50b4028 	str	r4, [fp, #-40]	; 0xffffffd8
    c46c:	e55b3052 	ldrb	r3, [fp, #-82]	; 0xffffffae
    c470:	e3530064 	cmp	r3, #100	; 0x64
    c474:	0a000002 	beq	c484 <_ZL8_vprintfPFvcPPvES0_PKcS_+0x4c4>
    c478:	e55b3052 	ldrb	r3, [fp, #-82]	; 0xffffffae
    c47c:	e3530044 	cmp	r3, #68	; 0x44
    c480:	1a000011 	bne	c4cc <_ZL8_vprintfPFvcPPvES0_PKcS_+0x50c>
    c484:	e51b3028 	ldr	r3, [fp, #-40]	; 0xffffffd8
    c488:	e3530000 	cmp	r3, #0
    c48c:	ba000005 	blt	c4a8 <_ZL8_vprintfPFvcPPvES0_PKcS_+0x4e8>
    c490:	e51b3028 	ldr	r3, [fp, #-40]	; 0xffffffd8
    c494:	e3530000 	cmp	r3, #0
    c498:	1a000022 	bne	c528 <_ZL8_vprintfPFvcPPvES0_PKcS_+0x568>
    c49c:	e51b302c 	ldr	r3, [fp, #-44]	; 0xffffffd4
    c4a0:	e3530000 	cmp	r3, #0
    c4a4:	ea00001f 	b	c528 <_ZL8_vprintfPFvcPPvES0_PKcS_+0x568>
    c4a8:	e3a0302d 	mov	r3, #45	; 0x2d
    c4ac:	e54b3051 	strb	r3, [fp, #-81]	; 0xffffffaf
    c4b0:	e24b302c 	sub	r3, fp, #44	; 0x2c
    c4b4:	e8930018 	ldm	r3, {r3, r4}
    c4b8:	e2733000 	rsbs	r3, r3, #0
    c4bc:	e2e44000 	rsc	r4, r4, #0
    c4c0:	e50b302c 	str	r3, [fp, #-44]	; 0xffffffd4
    c4c4:	e50b4028 	str	r4, [fp, #-40]	; 0xffffffd8
    c4c8:	ea000016 	b	c528 <_ZL8_vprintfPFvcPPvES0_PKcS_+0x568>
    c4cc:	e51b3034 	ldr	r3, [fp, #-52]	; 0xffffffcc
    c4d0:	e3530000 	cmp	r3, #0
    c4d4:	0a000008 	beq	c4fc <_ZL8_vprintfPFvcPPvES0_PKcS_+0x53c>
    c4d8:	e24b302c 	sub	r3, fp, #44	; 0x2c
    c4dc:	e8930018 	ldm	r3, {r3, r4}
    c4e0:	e3e01000 	mvn	r1, #0
    c4e4:	e3a02000 	mov	r2, #0
    c4e8:	e0033001 	and	r3, r3, r1
    c4ec:	e0044002 	and	r4, r4, r2
    c4f0:	e50b302c 	str	r3, [fp, #-44]	; 0xffffffd4
    c4f4:	e50b4028 	str	r4, [fp, #-40]	; 0xffffffd8
    c4f8:	ea00000a 	b	c528 <_ZL8_vprintfPFvcPPvES0_PKcS_+0x568>
    c4fc:	e51b3030 	ldr	r3, [fp, #-48]	; 0xffffffd0
    c500:	e3530000 	cmp	r3, #0
    c504:	1a000007 	bne	c528 <_ZL8_vprintfPFvcPPvES0_PKcS_+0x568>
    c508:	e24b302c 	sub	r3, fp, #44	; 0x2c
    c50c:	e8930018 	ldm	r3, {r3, r4}
    c510:	e3e01000 	mvn	r1, #0
    c514:	e3a02000 	mov	r2, #0
    c518:	e0033001 	and	r3, r3, r1
    c51c:	e0044002 	and	r4, r4, r2
    c520:	e50b302c 	str	r3, [fp, #-44]	; 0xffffffd4
    c524:	e50b4028 	str	r4, [fp, #-40]	; 0xffffffd8
    c528:	e55b3052 	ldrb	r3, [fp, #-82]	; 0xffffffae
    c52c:	e2433025 	sub	r3, r3, #37	; 0x25
    c530:	e3530053 	cmp	r3, #83	; 0x53
    c534:	979ff103 	ldrls	pc, [pc, r3, lsl #2]
    c538:	ea000151 	b	ca84 <_ZL8_vprintfPFvcPPvES0_PKcS_+0xac4>
    c53c:	0000ca60 	.word	0x0000ca60
    c540:	0000ca84 	.word	0x0000ca84
    c544:	0000ca84 	.word	0x0000ca84
    c548:	0000ca84 	.word	0x0000ca84
    c54c:	0000ca84 	.word	0x0000ca84
    c550:	0000ca84 	.word	0x0000ca84
    c554:	0000ca84 	.word	0x0000ca84
    c558:	0000ca84 	.word	0x0000ca84
    c55c:	0000ca84 	.word	0x0000ca84
    c560:	0000ca84 	.word	0x0000ca84
    c564:	0000ca84 	.word	0x0000ca84
    c568:	0000ca84 	.word	0x0000ca84
    c56c:	0000ca84 	.word	0x0000ca84
    c570:	0000ca84 	.word	0x0000ca84
    c574:	0000ca84 	.word	0x0000ca84
    c578:	0000ca84 	.word	0x0000ca84
    c57c:	0000ca84 	.word	0x0000ca84
    c580:	0000ca84 	.word	0x0000ca84
    c584:	0000ca84 	.word	0x0000ca84
    c588:	0000ca84 	.word	0x0000ca84
    c58c:	0000ca84 	.word	0x0000ca84
    c590:	0000ca84 	.word	0x0000ca84
    c594:	0000ca84 	.word	0x0000ca84
    c598:	0000ca84 	.word	0x0000ca84
    c59c:	0000ca84 	.word	0x0000ca84
    c5a0:	0000ca84 	.word	0x0000ca84
    c5a4:	0000ca84 	.word	0x0000ca84
    c5a8:	0000ca84 	.word	0x0000ca84
    c5ac:	0000ca84 	.word	0x0000ca84
    c5b0:	0000c940 	.word	0x0000c940
    c5b4:	0000c900 	.word	0x0000c900
    c5b8:	0000c6d0 	.word	0x0000c6d0
    c5bc:	0000ca84 	.word	0x0000ca84
    c5c0:	0000ca84 	.word	0x0000ca84
    c5c4:	0000ca84 	.word	0x0000ca84
    c5c8:	0000ca84 	.word	0x0000ca84
    c5cc:	0000ca84 	.word	0x0000ca84
    c5d0:	0000ca84 	.word	0x0000ca84
    c5d4:	0000ca84 	.word	0x0000ca84
    c5d8:	0000ca84 	.word	0x0000ca84
    c5dc:	0000ca84 	.word	0x0000ca84
    c5e0:	0000ca84 	.word	0x0000ca84
    c5e4:	0000ca84 	.word	0x0000ca84
    c5e8:	0000ca84 	.word	0x0000ca84
    c5ec:	0000ca84 	.word	0x0000ca84
    c5f0:	0000ca84 	.word	0x0000ca84
    c5f4:	0000c85c 	.word	0x0000c85c
    c5f8:	0000ca84 	.word	0x0000ca84
    c5fc:	0000c6d0 	.word	0x0000c6d0
    c600:	0000ca84 	.word	0x0000ca84
    c604:	0000ca84 	.word	0x0000ca84
    c608:	0000c6d0 	.word	0x0000c6d0
    c60c:	0000ca84 	.word	0x0000ca84
    c610:	0000ca84 	.word	0x0000ca84
    c614:	0000ca84 	.word	0x0000ca84
    c618:	0000ca84 	.word	0x0000ca84
    c61c:	0000ca84 	.word	0x0000ca84
    c620:	0000ca84 	.word	0x0000ca84
    c624:	0000ca84 	.word	0x0000ca84
    c628:	0000ca84 	.word	0x0000ca84
    c62c:	0000ca84 	.word	0x0000ca84
    c630:	0000c940 	.word	0x0000c940
    c634:	0000c900 	.word	0x0000c900
    c638:	0000c6d0 	.word	0x0000c6d0
    c63c:	0000ca84 	.word	0x0000ca84
    c640:	0000ca84 	.word	0x0000ca84
    c644:	0000ca84 	.word	0x0000ca84
    c648:	0000ca84 	.word	0x0000ca84
    c64c:	0000ca84 	.word	0x0000ca84
    c650:	0000ca84 	.word	0x0000ca84
    c654:	0000ca84 	.word	0x0000ca84
    c658:	0000ca84 	.word	0x0000ca84
    c65c:	0000ca84 	.word	0x0000ca84
    c660:	0000ca84 	.word	0x0000ca84
    c664:	0000ca84 	.word	0x0000ca84
    c668:	0000c68c 	.word	0x0000c68c
    c66c:	0000ca84 	.word	0x0000ca84
    c670:	0000ca84 	.word	0x0000ca84
    c674:	0000c85c 	.word	0x0000c85c
    c678:	0000ca84 	.word	0x0000ca84
    c67c:	0000c6d0 	.word	0x0000c6d0
    c680:	0000ca84 	.word	0x0000ca84
    c684:	0000ca84 	.word	0x0000ca84
    c688:	0000c6d0 	.word	0x0000c6d0
    c68c:	e51b3098 	ldr	r3, [fp, #-152]	; 0xffffff68
    c690:	e3a00030 	mov	r0, #48	; 0x30
    c694:	e51b109c 	ldr	r1, [fp, #-156]	; 0xffffff64
    c698:	e1a0e00f 	mov	lr, pc
    c69c:	e12fff13 	bx	r3
    c6a0:	e51b3098 	ldr	r3, [fp, #-152]	; 0xffffff68
    c6a4:	e3a00078 	mov	r0, #120	; 0x78
    c6a8:	e51b109c 	ldr	r1, [fp, #-156]	; 0xffffff64
    c6ac:	e1a0e00f 	mov	lr, pc
    c6b0:	e12fff13 	bx	r3
    c6b4:	e3a03001 	mov	r3, #1
    c6b8:	e50b3044 	str	r3, [fp, #-68]	; 0xffffffbc
    c6bc:	e3a03008 	mov	r3, #8
    c6c0:	e50b304c 	str	r3, [fp, #-76]	; 0xffffffb4
    c6c4:	e51b3024 	ldr	r3, [fp, #-36]	; 0xffffffdc
    c6c8:	e2833002 	add	r3, r3, #2
    c6cc:	e50b3024 	str	r3, [fp, #-36]	; 0xffffffdc
    c6d0:	e55b3052 	ldrb	r3, [fp, #-82]	; 0xffffffae
    c6d4:	e2433044 	sub	r3, r3, #68	; 0x44
    c6d8:	e3530034 	cmp	r3, #52	; 0x34
    c6dc:	979ff103 	ldrls	pc, [pc, r3, lsl #2]
    c6e0:	ea00005a 	b	c850 <_ZL8_vprintfPFvcPPvES0_PKcS_+0x890>
    c6e4:	0000c7b8 	.word	0x0000c7b8
    c6e8:	0000c850 	.word	0x0000c850
    c6ec:	0000c850 	.word	0x0000c850
    c6f0:	0000c850 	.word	0x0000c850
    c6f4:	0000c850 	.word	0x0000c850
    c6f8:	0000c850 	.word	0x0000c850
    c6fc:	0000c850 	.word	0x0000c850
    c700:	0000c850 	.word	0x0000c850
    c704:	0000c850 	.word	0x0000c850
    c708:	0000c850 	.word	0x0000c850
    c70c:	0000c850 	.word	0x0000c850
    c710:	0000c850 	.word	0x0000c850
    c714:	0000c850 	.word	0x0000c850
    c718:	0000c850 	.word	0x0000c850
    c71c:	0000c850 	.word	0x0000c850
    c720:	0000c850 	.word	0x0000c850
    c724:	0000c850 	.word	0x0000c850
    c728:	0000c7b8 	.word	0x0000c7b8
    c72c:	0000c850 	.word	0x0000c850
    c730:	0000c850 	.word	0x0000c850
    c734:	0000c820 	.word	0x0000c820
    c738:	0000c850 	.word	0x0000c850
    c73c:	0000c850 	.word	0x0000c850
    c740:	0000c850 	.word	0x0000c850
    c744:	0000c850 	.word	0x0000c850
    c748:	0000c850 	.word	0x0000c850
    c74c:	0000c850 	.word	0x0000c850
    c750:	0000c850 	.word	0x0000c850
    c754:	0000c850 	.word	0x0000c850
    c758:	0000c850 	.word	0x0000c850
    c75c:	0000c850 	.word	0x0000c850
    c760:	0000c850 	.word	0x0000c850
    c764:	0000c7b8 	.word	0x0000c7b8
    c768:	0000c850 	.word	0x0000c850
    c76c:	0000c850 	.word	0x0000c850
    c770:	0000c850 	.word	0x0000c850
    c774:	0000c850 	.word	0x0000c850
    c778:	0000c850 	.word	0x0000c850
    c77c:	0000c850 	.word	0x0000c850
    c780:	0000c850 	.word	0x0000c850
    c784:	0000c850 	.word	0x0000c850
    c788:	0000c850 	.word	0x0000c850
    c78c:	0000c850 	.word	0x0000c850
    c790:	0000c850 	.word	0x0000c850
    c794:	0000c7ec 	.word	0x0000c7ec
    c798:	0000c850 	.word	0x0000c850
    c79c:	0000c850 	.word	0x0000c850
    c7a0:	0000c850 	.word	0x0000c850
    c7a4:	0000c850 	.word	0x0000c850
    c7a8:	0000c7b8 	.word	0x0000c7b8
    c7ac:	0000c850 	.word	0x0000c850
    c7b0:	0000c850 	.word	0x0000c850
    c7b4:	0000c7ec 	.word	0x0000c7ec
    c7b8:	e24b302c 	sub	r3, fp, #44	; 0x2c
    c7bc:	e8930018 	ldm	r3, {r3, r4}
    c7c0:	e59f2548 	ldr	r2, [pc, #1352]	; cd10 <_ZL8_vprintfPFvcPPvES0_PKcS_+0xd50>
    c7c4:	e24bc092 	sub	ip, fp, #146	; 0x92
    c7c8:	e58d2000 	str	r2, [sp]
    c7cc:	e1a00003 	mov	r0, r3
    c7d0:	e1a01004 	mov	r1, r4
    c7d4:	e1a0200c 	mov	r2, ip
    c7d8:	e3a0300a 	mov	r3, #10
    c7dc:	ebfffbd3 	bl	b730 <_ZL4_cvtyPclS_>
    c7e0:	e1a03000 	mov	r3, r0
    c7e4:	e50b3020 	str	r3, [fp, #-32]	; 0xffffffe0
    c7e8:	ea000018 	b	c850 <_ZL8_vprintfPFvcPPvES0_PKcS_+0x890>
    c7ec:	e24b302c 	sub	r3, fp, #44	; 0x2c
    c7f0:	e8930018 	ldm	r3, {r3, r4}
    c7f4:	e59f2518 	ldr	r2, [pc, #1304]	; cd14 <_ZL8_vprintfPFvcPPvES0_PKcS_+0xd54>
    c7f8:	e24bc092 	sub	ip, fp, #146	; 0x92
    c7fc:	e58d2000 	str	r2, [sp]
    c800:	e1a00003 	mov	r0, r3
    c804:	e1a01004 	mov	r1, r4
    c808:	e1a0200c 	mov	r2, ip
    c80c:	e3a03010 	mov	r3, #16
    c810:	ebfffbc6 	bl	b730 <_ZL4_cvtyPclS_>
    c814:	e1a03000 	mov	r3, r0
    c818:	e50b3020 	str	r3, [fp, #-32]	; 0xffffffe0
    c81c:	ea00000b 	b	c850 <_ZL8_vprintfPFvcPPvES0_PKcS_+0x890>
    c820:	e24b302c 	sub	r3, fp, #44	; 0x2c
    c824:	e8930018 	ldm	r3, {r3, r4}
    c828:	e59f24e8 	ldr	r2, [pc, #1256]	; cd18 <_ZL8_vprintfPFvcPPvES0_PKcS_+0xd58>
    c82c:	e24bc092 	sub	ip, fp, #146	; 0x92
    c830:	e58d2000 	str	r2, [sp]
    c834:	e1a00003 	mov	r0, r3
    c838:	e1a01004 	mov	r1, r4
    c83c:	e1a0200c 	mov	r2, ip
    c840:	e3a03010 	mov	r3, #16
    c844:	ebfffbb9 	bl	b730 <_ZL4_cvtyPclS_>
    c848:	e1a03000 	mov	r3, r0
    c84c:	e50b3020 	str	r3, [fp, #-32]	; 0xffffffe0
    c850:	e24b3092 	sub	r3, fp, #146	; 0x92
    c854:	e50b3050 	str	r3, [fp, #-80]	; 0xffffffb0
    c858:	ea000098 	b	cac0 <_ZL8_vprintfPFvcPPvES0_PKcS_+0xb00>
    c85c:	e51b20a4 	ldr	r2, [fp, #-164]	; 0xffffff5c
    c860:	e2823004 	add	r3, r2, #4
    c864:	e50b30a4 	str	r3, [fp, #-164]	; 0xffffff5c
    c868:	e1a03002 	mov	r3, r2
    c86c:	e5933000 	ldr	r3, [r3]
    c870:	e50b3050 	str	r3, [fp, #-80]	; 0xffffffb0
    c874:	e51b3050 	ldr	r3, [fp, #-80]	; 0xffffffb0
    c878:	e3530000 	cmp	r3, #0
    c87c:	1a000002 	bne	c88c <_ZL8_vprintfPFvcPPvES0_PKcS_+0x8cc>
    c880:	e59f3494 	ldr	r3, [pc, #1172]	; cd1c <_ZL8_vprintfPFvcPPvES0_PKcS_+0xd5c>
    c884:	e50b3050 	str	r3, [fp, #-80]	; 0xffffffb0
    c888:	ea00000f 	b	c8cc <_ZL8_vprintfPFvcPPvES0_PKcS_+0x90c>
    c88c:	e51b0050 	ldr	r0, [fp, #-80]	; 0xffffffb0
    c890:	ebfffb64 	bl	b628 <_ZL17diag_check_stringPKc>
    c894:	e1a03000 	mov	r3, r0
    c898:	e3530000 	cmp	r3, #0
    c89c:	13a03000 	movne	r3, #0
    c8a0:	03a03001 	moveq	r3, #1
    c8a4:	e20330ff 	and	r3, r3, #255	; 0xff
    c8a8:	e3530000 	cmp	r3, #0
    c8ac:	0a000006 	beq	c8cc <_ZL8_vprintfPFvcPPvES0_PKcS_+0x90c>
    c8b0:	e59f0468 	ldr	r0, [pc, #1128]	; cd20 <_ZL8_vprintfPFvcPPvES0_PKcS_+0xd60>
    c8b4:	ebfffdad 	bl	bf70 <diag_write_string>
    c8b8:	e51b3050 	ldr	r3, [fp, #-80]	; 0xffffffb0
    c8bc:	e1a00003 	mov	r0, r3
    c8c0:	ebfffd9b 	bl	bf34 <diag_write_hex>
    c8c4:	e59f3458 	ldr	r3, [pc, #1112]	; cd24 <_ZL8_vprintfPFvcPPvES0_PKcS_+0xd64>
    c8c8:	e50b3050 	str	r3, [fp, #-80]	; 0xffffffb0
    c8cc:	e3a03000 	mov	r3, #0
    c8d0:	e50b3020 	str	r3, [fp, #-32]	; 0xffffffe0
    c8d4:	ea000002 	b	c8e4 <_ZL8_vprintfPFvcPPvES0_PKcS_+0x924>
    c8d8:	e51b3020 	ldr	r3, [fp, #-32]	; 0xffffffe0
    c8dc:	e2833001 	add	r3, r3, #1
    c8e0:	e50b3020 	str	r3, [fp, #-32]	; 0xffffffe0
    c8e4:	e51b2020 	ldr	r2, [fp, #-32]	; 0xffffffe0
    c8e8:	e51b3050 	ldr	r3, [fp, #-80]	; 0xffffffb0
    c8ec:	e0833002 	add	r3, r3, r2
    c8f0:	e5d33000 	ldrb	r3, [r3]
    c8f4:	e3530000 	cmp	r3, #0
    c8f8:	1afffff6 	bne	c8d8 <_ZL8_vprintfPFvcPPvES0_PKcS_+0x918>
    c8fc:	ea00006f 	b	cac0 <_ZL8_vprintfPFvcPPvES0_PKcS_+0xb00>
    c900:	e51b20a4 	ldr	r2, [fp, #-164]	; 0xffffff5c
    c904:	e2823004 	add	r3, r2, #4
    c908:	e50b30a4 	str	r3, [fp, #-164]	; 0xffffff5c
    c90c:	e1a03002 	mov	r3, r2
    c910:	e5933000 	ldr	r3, [r3]
    c914:	e54b3052 	strb	r3, [fp, #-82]	; 0xffffffae
    c918:	e55b3052 	ldrb	r3, [fp, #-82]	; 0xffffffae
    c91c:	e51b2098 	ldr	r2, [fp, #-152]	; 0xffffff68
    c920:	e1a00003 	mov	r0, r3
    c924:	e51b109c 	ldr	r1, [fp, #-156]	; 0xffffff64
    c928:	e1a0e00f 	mov	lr, pc
    c92c:	e12fff12 	bx	r2
    c930:	e51b3024 	ldr	r3, [fp, #-36]	; 0xffffffdc
    c934:	e2833001 	add	r3, r3, #1
    c938:	e50b3024 	str	r3, [fp, #-36]	; 0xffffffdc
    c93c:	ea0000dc 	b	ccb4 <_ZL8_vprintfPFvcPPvES0_PKcS_+0xcf4>
    c940:	e51b304c 	ldr	r3, [fp, #-76]	; 0xffffffb4
    c944:	e50b3020 	str	r3, [fp, #-32]	; 0xffffffe0
    c948:	e51b304c 	ldr	r3, [fp, #-76]	; 0xffffffb4
    c94c:	e3530000 	cmp	r3, #0
    c950:	1a00000d 	bne	c98c <_ZL8_vprintfPFvcPPvES0_PKcS_+0x9cc>
    c954:	e51b3030 	ldr	r3, [fp, #-48]	; 0xffffffd0
    c958:	e3530000 	cmp	r3, #0
    c95c:	0a000002 	beq	c96c <_ZL8_vprintfPFvcPPvES0_PKcS_+0x9ac>
    c960:	e3a03040 	mov	r3, #64	; 0x40
    c964:	e50b3020 	str	r3, [fp, #-32]	; 0xffffffe0
    c968:	ea000007 	b	c98c <_ZL8_vprintfPFvcPPvES0_PKcS_+0x9cc>
    c96c:	e51b3034 	ldr	r3, [fp, #-52]	; 0xffffffcc
    c970:	e3530000 	cmp	r3, #0
    c974:	0a000002 	beq	c984 <_ZL8_vprintfPFvcPPvES0_PKcS_+0x9c4>
    c978:	e3a03020 	mov	r3, #32
    c97c:	e50b3020 	str	r3, [fp, #-32]	; 0xffffffe0
    c980:	ea000001 	b	c98c <_ZL8_vprintfPFvcPPvES0_PKcS_+0x9cc>
    c984:	e3a03020 	mov	r3, #32
    c988:	e50b3020 	str	r3, [fp, #-32]	; 0xffffffe0
    c98c:	e3a03000 	mov	r3, #0
    c990:	e50b3038 	str	r3, [fp, #-56]	; 0xffffffc8
    c994:	ea000029 	b	ca40 <_ZL8_vprintfPFvcPPvES0_PKcS_+0xa80>
    c998:	e51b1038 	ldr	r1, [fp, #-56]	; 0xffffffc8
    c99c:	e50b10ac 	str	r1, [fp, #-172]	; 0xffffff54
    c9a0:	e51b3038 	ldr	r3, [fp, #-56]	; 0xffffffc8
    c9a4:	e2431020 	sub	r1, r3, #32
    c9a8:	e51b3028 	ldr	r3, [fp, #-40]	; 0xffffffd8
    c9ac:	e1a06153 	asr	r6, r3, r1
    c9b0:	e51b3038 	ldr	r3, [fp, #-56]	; 0xffffffc8
    c9b4:	e2632020 	rsb	r2, r3, #32
    c9b8:	e51b3028 	ldr	r3, [fp, #-40]	; 0xffffffd8
    c9bc:	e1a00213 	lsl	r0, r3, r2
    c9c0:	e51bc02c 	ldr	ip, [fp, #-44]	; 0xffffffd4
    c9c4:	e51b2038 	ldr	r2, [fp, #-56]	; 0xffffffc8
    c9c8:	e3510000 	cmp	r1, #0
    c9cc:	e51b5028 	ldr	r5, [fp, #-40]	; 0xffffffd8
    c9d0:	e51b1038 	ldr	r1, [fp, #-56]	; 0xffffffc8
    c9d4:	e1a0323c 	lsr	r3, ip, r2
    c9d8:	e1803003 	orr	r3, r0, r3
    c9dc:	a1a03006 	movge	r3, r6
    c9e0:	e1a04155 	asr	r4, r5, r1
    c9e4:	e3a01001 	mov	r1, #1
    c9e8:	e3a02000 	mov	r2, #0
    c9ec:	e0033001 	and	r3, r3, r1
    c9f0:	e0044002 	and	r4, r4, r2
    c9f4:	e20330ff 	and	r3, r3, #255	; 0xff
    c9f8:	e3530000 	cmp	r3, #0
    c9fc:	0a000002 	beq	ca0c <_ZL8_vprintfPFvcPPvES0_PKcS_+0xa4c>
    ca00:	e3a02031 	mov	r2, #49	; 0x31
    ca04:	e50b20a8 	str	r2, [fp, #-168]	; 0xffffff58
    ca08:	ea000001 	b	ca14 <_ZL8_vprintfPFvcPPvES0_PKcS_+0xa54>
    ca0c:	e3a0302e 	mov	r3, #46	; 0x2e
    ca10:	e50b30a8 	str	r3, [fp, #-168]	; 0xffffff58
    ca14:	e3e02075 	mvn	r2, #117	; 0x75
    ca18:	e24b001c 	sub	r0, fp, #28
    ca1c:	e51b10ac 	ldr	r1, [fp, #-172]	; 0xffffff54
    ca20:	e0803001 	add	r3, r0, r1
    ca24:	e0832002 	add	r2, r3, r2
    ca28:	e51b00a8 	ldr	r0, [fp, #-168]	; 0xffffff58
    ca2c:	e1a03000 	mov	r3, r0
    ca30:	e5c23000 	strb	r3, [r2]
    ca34:	e51b3038 	ldr	r3, [fp, #-56]	; 0xffffffc8
    ca38:	e2833001 	add	r3, r3, #1
    ca3c:	e50b3038 	str	r3, [fp, #-56]	; 0xffffffc8
    ca40:	e51b3020 	ldr	r3, [fp, #-32]	; 0xffffffe0
    ca44:	e2432001 	sub	r2, r3, #1
    ca48:	e51b3038 	ldr	r3, [fp, #-56]	; 0xffffffc8
    ca4c:	e1520003 	cmp	r2, r3
    ca50:	caffffd0 	bgt	c998 <_ZL8_vprintfPFvcPPvES0_PKcS_+0x9d8>
    ca54:	e24b3092 	sub	r3, fp, #146	; 0x92
    ca58:	e50b3050 	str	r3, [fp, #-80]	; 0xffffffb0
    ca5c:	ea000017 	b	cac0 <_ZL8_vprintfPFvcPPvES0_PKcS_+0xb00>
    ca60:	e51b3098 	ldr	r3, [fp, #-152]	; 0xffffff68
    ca64:	e3a00025 	mov	r0, #37	; 0x25
    ca68:	e51b109c 	ldr	r1, [fp, #-156]	; 0xffffff64
    ca6c:	e1a0e00f 	mov	lr, pc
    ca70:	e12fff13 	bx	r3
    ca74:	e51b3024 	ldr	r3, [fp, #-36]	; 0xffffffdc
    ca78:	e2833001 	add	r3, r3, #1
    ca7c:	e50b3024 	str	r3, [fp, #-36]	; 0xffffffdc
    ca80:	ea00008b 	b	ccb4 <_ZL8_vprintfPFvcPPvES0_PKcS_+0xcf4>
    ca84:	e51b3098 	ldr	r3, [fp, #-152]	; 0xffffff68
    ca88:	e3a00025 	mov	r0, #37	; 0x25
    ca8c:	e51b109c 	ldr	r1, [fp, #-156]	; 0xffffff64
    ca90:	e1a0e00f 	mov	lr, pc
    ca94:	e12fff13 	bx	r3
    ca98:	e55b3052 	ldrb	r3, [fp, #-82]	; 0xffffffae
    ca9c:	e51b2098 	ldr	r2, [fp, #-152]	; 0xffffff68
    caa0:	e1a00003 	mov	r0, r3
    caa4:	e51b109c 	ldr	r1, [fp, #-156]	; 0xffffff64
    caa8:	e1a0e00f 	mov	lr, pc
    caac:	e12fff12 	bx	r2
    cab0:	e51b3024 	ldr	r3, [fp, #-36]	; 0xffffffdc
    cab4:	e2833002 	add	r3, r3, #2
    cab8:	e50b3024 	str	r3, [fp, #-36]	; 0xffffffdc
    cabc:	ea00007c 	b	ccb4 <_ZL8_vprintfPFvcPPvES0_PKcS_+0xcf4>
    cac0:	e51b204c 	ldr	r2, [fp, #-76]	; 0xffffffb4
    cac4:	e51b3020 	ldr	r3, [fp, #-32]	; 0xffffffe0
    cac8:	e0633002 	rsb	r3, r3, r2
    cacc:	e50b3040 	str	r3, [fp, #-64]	; 0xffffffc0
    cad0:	e55b3051 	ldrb	r3, [fp, #-81]	; 0xffffffaf
    cad4:	e3530000 	cmp	r3, #0
    cad8:	0a000002 	beq	cae8 <_ZL8_vprintfPFvcPPvES0_PKcS_+0xb28>
    cadc:	e51b3040 	ldr	r3, [fp, #-64]	; 0xffffffc0
    cae0:	e2433001 	sub	r3, r3, #1
    cae4:	e50b3040 	str	r3, [fp, #-64]	; 0xffffffc0
    cae8:	e51b3044 	ldr	r3, [fp, #-68]	; 0xffffffbc
    caec:	e3530000 	cmp	r3, #0
    caf0:	0a000010 	beq	cb38 <_ZL8_vprintfPFvcPPvES0_PKcS_+0xb78>
    caf4:	e3a03030 	mov	r3, #48	; 0x30
    caf8:	e54b3052 	strb	r3, [fp, #-82]	; 0xffffffae
    cafc:	e55b3051 	ldrb	r3, [fp, #-81]	; 0xffffffaf
    cb00:	e3530000 	cmp	r3, #0
    cb04:	0a00000d 	beq	cb40 <_ZL8_vprintfPFvcPPvES0_PKcS_+0xb80>
    cb08:	e55b3051 	ldrb	r3, [fp, #-81]	; 0xffffffaf
    cb0c:	e51b2098 	ldr	r2, [fp, #-152]	; 0xffffff68
    cb10:	e1a00003 	mov	r0, r3
    cb14:	e51b109c 	ldr	r1, [fp, #-156]	; 0xffffff64
    cb18:	e1a0e00f 	mov	lr, pc
    cb1c:	e12fff12 	bx	r2
    cb20:	e51b3024 	ldr	r3, [fp, #-36]	; 0xffffffdc
    cb24:	e2833001 	add	r3, r3, #1
    cb28:	e50b3024 	str	r3, [fp, #-36]	; 0xffffffdc
    cb2c:	e3a03000 	mov	r3, #0
    cb30:	e54b3051 	strb	r3, [fp, #-81]	; 0xffffffaf
    cb34:	ea000001 	b	cb40 <_ZL8_vprintfPFvcPPvES0_PKcS_+0xb80>
    cb38:	e3a03020 	mov	r3, #32
    cb3c:	e54b3052 	strb	r3, [fp, #-82]	; 0xffffffae
    cb40:	e51b303c 	ldr	r3, [fp, #-60]	; 0xffffffc4
    cb44:	e3530000 	cmp	r3, #0
    cb48:	1a000013 	bne	cb9c <_ZL8_vprintfPFvcPPvES0_PKcS_+0xbdc>
    cb4c:	ea000008 	b	cb74 <_ZL8_vprintfPFvcPPvES0_PKcS_+0xbb4>
    cb50:	e55b3052 	ldrb	r3, [fp, #-82]	; 0xffffffae
    cb54:	e51b2098 	ldr	r2, [fp, #-152]	; 0xffffff68
    cb58:	e1a00003 	mov	r0, r3
    cb5c:	e51b109c 	ldr	r1, [fp, #-156]	; 0xffffff64
    cb60:	e1a0e00f 	mov	lr, pc
    cb64:	e12fff12 	bx	r2
    cb68:	e51b3024 	ldr	r3, [fp, #-36]	; 0xffffffdc
    cb6c:	e2833001 	add	r3, r3, #1
    cb70:	e50b3024 	str	r3, [fp, #-36]	; 0xffffffdc
    cb74:	e51b3040 	ldr	r3, [fp, #-64]	; 0xffffffc0
    cb78:	e3530000 	cmp	r3, #0
    cb7c:	d3a03000 	movle	r3, #0
    cb80:	c3a03001 	movgt	r3, #1
    cb84:	e20320ff 	and	r2, r3, #255	; 0xff
    cb88:	e51b3040 	ldr	r3, [fp, #-64]	; 0xffffffc0
    cb8c:	e2433001 	sub	r3, r3, #1
    cb90:	e50b3040 	str	r3, [fp, #-64]	; 0xffffffc0
    cb94:	e3520000 	cmp	r2, #0
    cb98:	1affffec 	bne	cb50 <_ZL8_vprintfPFvcPPvES0_PKcS_+0xb90>
    cb9c:	e55b3051 	ldrb	r3, [fp, #-81]	; 0xffffffaf
    cba0:	e3530000 	cmp	r3, #0
    cba4:	0a000018 	beq	cc0c <_ZL8_vprintfPFvcPPvES0_PKcS_+0xc4c>
    cba8:	e55b3051 	ldrb	r3, [fp, #-81]	; 0xffffffaf
    cbac:	e51b2098 	ldr	r2, [fp, #-152]	; 0xffffff68
    cbb0:	e1a00003 	mov	r0, r3
    cbb4:	e51b109c 	ldr	r1, [fp, #-156]	; 0xffffff64
    cbb8:	e1a0e00f 	mov	lr, pc
    cbbc:	e12fff12 	bx	r2
    cbc0:	e51b3024 	ldr	r3, [fp, #-36]	; 0xffffffdc
    cbc4:	e2833001 	add	r3, r3, #1
    cbc8:	e50b3024 	str	r3, [fp, #-36]	; 0xffffffdc
    cbcc:	ea00000e 	b	cc0c <_ZL8_vprintfPFvcPPvES0_PKcS_+0xc4c>
    cbd0:	e51b3050 	ldr	r3, [fp, #-80]	; 0xffffffb0
    cbd4:	e5d33000 	ldrb	r3, [r3]
    cbd8:	e54b3052 	strb	r3, [fp, #-82]	; 0xffffffae
    cbdc:	e51b3050 	ldr	r3, [fp, #-80]	; 0xffffffb0
    cbe0:	e2833001 	add	r3, r3, #1
    cbe4:	e50b3050 	str	r3, [fp, #-80]	; 0xffffffb0
    cbe8:	e55b3052 	ldrb	r3, [fp, #-82]	; 0xffffffae
    cbec:	e51b2098 	ldr	r2, [fp, #-152]	; 0xffffff68
    cbf0:	e1a00003 	mov	r0, r3
    cbf4:	e51b109c 	ldr	r1, [fp, #-156]	; 0xffffff64
    cbf8:	e1a0e00f 	mov	lr, pc
    cbfc:	e12fff12 	bx	r2
    cc00:	e51b3024 	ldr	r3, [fp, #-36]	; 0xffffffdc
    cc04:	e2833001 	add	r3, r3, #1
    cc08:	e50b3024 	str	r3, [fp, #-36]	; 0xffffffdc
    cc0c:	e51b3020 	ldr	r3, [fp, #-32]	; 0xffffffe0
    cc10:	e3530000 	cmp	r3, #0
    cc14:	d3a03000 	movle	r3, #0
    cc18:	c3a03001 	movgt	r3, #1
    cc1c:	e20320ff 	and	r2, r3, #255	; 0xff
    cc20:	e51b3020 	ldr	r3, [fp, #-32]	; 0xffffffe0
    cc24:	e2433001 	sub	r3, r3, #1
    cc28:	e50b3020 	str	r3, [fp, #-32]	; 0xffffffe0
    cc2c:	e3520000 	cmp	r2, #0
    cc30:	1affffe6 	bne	cbd0 <_ZL8_vprintfPFvcPPvES0_PKcS_+0xc10>
    cc34:	e51b303c 	ldr	r3, [fp, #-60]	; 0xffffffc4
    cc38:	e3530000 	cmp	r3, #0
    cc3c:	0a00001c 	beq	ccb4 <_ZL8_vprintfPFvcPPvES0_PKcS_+0xcf4>
    cc40:	ea000007 	b	cc64 <_ZL8_vprintfPFvcPPvES0_PKcS_+0xca4>
    cc44:	e51b3098 	ldr	r3, [fp, #-152]	; 0xffffff68
    cc48:	e3a00020 	mov	r0, #32
    cc4c:	e51b109c 	ldr	r1, [fp, #-156]	; 0xffffff64
    cc50:	e1a0e00f 	mov	lr, pc
    cc54:	e12fff13 	bx	r3
    cc58:	e51b3024 	ldr	r3, [fp, #-36]	; 0xffffffdc
    cc5c:	e2833001 	add	r3, r3, #1
    cc60:	e50b3024 	str	r3, [fp, #-36]	; 0xffffffdc
    cc64:	e51b3040 	ldr	r3, [fp, #-64]	; 0xffffffc0
    cc68:	e3530000 	cmp	r3, #0
    cc6c:	d3a03000 	movle	r3, #0
    cc70:	c3a03001 	movgt	r3, #1
    cc74:	e20320ff 	and	r2, r3, #255	; 0xff
    cc78:	e51b3040 	ldr	r3, [fp, #-64]	; 0xffffffc0
    cc7c:	e2433001 	sub	r3, r3, #1
    cc80:	e50b3040 	str	r3, [fp, #-64]	; 0xffffffc0
    cc84:	e3520000 	cmp	r2, #0
    cc88:	1affffed 	bne	cc44 <_ZL8_vprintfPFvcPPvES0_PKcS_+0xc84>
    cc8c:	ea000008 	b	ccb4 <_ZL8_vprintfPFvcPPvES0_PKcS_+0xcf4>
    cc90:	e55b3052 	ldrb	r3, [fp, #-82]	; 0xffffffae
    cc94:	e51b2098 	ldr	r2, [fp, #-152]	; 0xffffff68
    cc98:	e1a00003 	mov	r0, r3
    cc9c:	e51b109c 	ldr	r1, [fp, #-156]	; 0xffffff64
    cca0:	e1a0e00f 	mov	lr, pc
    cca4:	e12fff12 	bx	r2
    cca8:	e51b3024 	ldr	r3, [fp, #-36]	; 0xffffffdc
    ccac:	e2833001 	add	r3, r3, #1
    ccb0:	e50b3024 	str	r3, [fp, #-36]	; 0xffffffdc
    ccb4:	e51b30a0 	ldr	r3, [fp, #-160]	; 0xffffff60
    ccb8:	e5d33000 	ldrb	r3, [r3]
    ccbc:	e54b3052 	strb	r3, [fp, #-82]	; 0xffffffae
    ccc0:	e55b3052 	ldrb	r3, [fp, #-82]	; 0xffffffae
    ccc4:	e3530000 	cmp	r3, #0
    ccc8:	03a03000 	moveq	r3, #0
    cccc:	13a03001 	movne	r3, #1
    ccd0:	e20320ff 	and	r2, r3, #255	; 0xff
    ccd4:	e51b30a0 	ldr	r3, [fp, #-160]	; 0xffffff60
    ccd8:	e2833001 	add	r3, r3, #1
    ccdc:	e50b30a0 	str	r3, [fp, #-160]	; 0xffffff60
    cce0:	e3520000 	cmp	r2, #0
    cce4:	1afffcf2 	bne	c0b4 <_ZL8_vprintfPFvcPPvES0_PKcS_+0xf4>
    cce8:	e51b1024 	ldr	r1, [fp, #-36]	; 0xffffffdc
    ccec:	e50b10b4 	str	r1, [fp, #-180]	; 0xffffff4c
    ccf0:	e51b30b4 	ldr	r3, [fp, #-180]	; 0xffffff4c
    ccf4:	e1a00003 	mov	r0, r3
    ccf8:	e24bd018 	sub	sp, fp, #24
    ccfc:	e89d6870 	ldm	sp, {r4, r5, r6, fp, sp, lr}
    cd00:	e12fff1e 	bx	lr
    cd04:	00015b54 	.word	0x00015b54
    cd08:	00015b6c 	.word	0x00015b6c
    cd0c:	00015b70 	.word	0x00015b70
    cd10:	00015b74 	.word	0x00015b74
    cd14:	00015b80 	.word	0x00015b80
    cd18:	00015b40 	.word	0x00015b40
    cd1c:	00015b94 	.word	0x00015b94
    cd20:	00015b9c 	.word	0x00015b9c
    cd24:	00015bb0 	.word	0x00015bb0

0000cd28 <diag_vprintf>:
    cd28:	e1a0c00d 	mov	ip, sp
    cd2c:	e92dd800 	push	{fp, ip, lr, pc}
    cd30:	e24cb004 	sub	fp, ip, #4
    cd34:	e24dd010 	sub	sp, sp, #16
    cd38:	e50b0018 	str	r0, [fp, #-24]	; 0xffffffe8
    cd3c:	e50b101c 	str	r1, [fp, #-28]	; 0xffffffe4
    cd40:	e59f3030 	ldr	r3, [pc, #48]	; cd78 <diag_vprintf+0x50>
    cd44:	e5933000 	ldr	r3, [r3]
    cd48:	e1a00003 	mov	r0, r3
    cd4c:	e3a01000 	mov	r1, #0
    cd50:	e51b2018 	ldr	r2, [fp, #-24]	; 0xffffffe8
    cd54:	e51b301c 	ldr	r3, [fp, #-28]	; 0xffffffe4
    cd58:	ebfffc98 	bl	bfc0 <_ZL8_vprintfPFvcPPvES0_PKcS_>
    cd5c:	e1a03000 	mov	r3, r0
    cd60:	e50b3010 	str	r3, [fp, #-16]
    cd64:	e51b3010 	ldr	r3, [fp, #-16]
    cd68:	e1a00003 	mov	r0, r3
    cd6c:	e24bd00c 	sub	sp, fp, #12
    cd70:	e89d6800 	ldm	sp, {fp, sp, lr}
    cd74:	e12fff1e 	bx	lr
    cd78:	810002d0 	.word	0x810002d0

0000cd7c <diag_printf>:
    cd7c:	e1a0c00d 	mov	ip, sp
    cd80:	e92d000f 	push	{r0, r1, r2, r3}
    cd84:	e92dd800 	push	{fp, ip, lr, pc}
    cd88:	e24cb014 	sub	fp, ip, #20
    cd8c:	e24dd008 	sub	sp, sp, #8
    cd90:	e28b3008 	add	r3, fp, #8
    cd94:	e50b3014 	str	r3, [fp, #-20]	; 0xffffffec
    cd98:	e59f3034 	ldr	r3, [pc, #52]	; cdd4 <diag_printf+0x58>
    cd9c:	e5933000 	ldr	r3, [r3]
    cda0:	e51bc014 	ldr	ip, [fp, #-20]	; 0xffffffec
    cda4:	e1a00003 	mov	r0, r3
    cda8:	e3a01000 	mov	r1, #0
    cdac:	e59b2004 	ldr	r2, [fp, #4]
    cdb0:	e1a0300c 	mov	r3, ip
    cdb4:	ebfffc81 	bl	bfc0 <_ZL8_vprintfPFvcPPvES0_PKcS_>
    cdb8:	e1a03000 	mov	r3, r0
    cdbc:	e50b3010 	str	r3, [fp, #-16]
    cdc0:	e51b3010 	ldr	r3, [fp, #-16]
    cdc4:	e1a00003 	mov	r0, r3
    cdc8:	e24bd00c 	sub	sp, fp, #12
    cdcc:	e89d6800 	ldm	sp, {fp, sp, lr}
    cdd0:	e12fff1e 	bx	lr
    cdd4:	810002d0 	.word	0x810002d0

0000cdd8 <diag_dump_buf_with_offset_16bit>:
    cdd8:	e1a0c00d 	mov	ip, sp
    cddc:	e92dd800 	push	{fp, ip, lr, pc}
    cde0:	e24cb004 	sub	fp, ip, #4
    cde4:	e24dd018 	sub	sp, sp, #24
    cde8:	e50b0018 	str	r0, [fp, #-24]	; 0xffffffe8
    cdec:	e50b101c 	str	r1, [fp, #-28]	; 0xffffffe4
    cdf0:	e50b2020 	str	r2, [fp, #-32]	; 0xffffffe0
    cdf4:	e51b2018 	ldr	r2, [fp, #-24]	; 0xffffffe8
    cdf8:	e51b301c 	ldr	r3, [fp, #-28]	; 0xffffffe4
    cdfc:	e1520003 	cmp	r2, r3
    ce00:	2a00003b 	bcs	cef4 <diag_dump_buf_with_offset_16bit+0x11c>
    ce04:	e51b3018 	ldr	r3, [fp, #-24]	; 0xffffffe8
    ce08:	e51b201c 	ldr	r2, [fp, #-28]	; 0xffffffe4
    ce0c:	e0633002 	rsb	r3, r3, r2
    ce10:	e50b301c 	str	r3, [fp, #-28]	; 0xffffffe4
    ce14:	ea000036 	b	cef4 <diag_dump_buf_with_offset_16bit+0x11c>
    ce18:	e51b3020 	ldr	r3, [fp, #-32]	; 0xffffffe0
    ce1c:	e3530000 	cmp	r3, #0
    ce20:	0a000006 	beq	ce40 <diag_dump_buf_with_offset_16bit+0x68>
    ce24:	e51b3018 	ldr	r3, [fp, #-24]	; 0xffffffe8
    ce28:	e51b2020 	ldr	r2, [fp, #-32]	; 0xffffffe0
    ce2c:	e0623003 	rsb	r3, r2, r3
    ce30:	e59f00d4 	ldr	r0, [pc, #212]	; cf0c <diag_dump_buf_with_offset_16bit+0x134>
    ce34:	e1a01003 	mov	r1, r3
    ce38:	ebffffcf 	bl	cd7c <diag_printf>
    ce3c:	ea000003 	b	ce50 <diag_dump_buf_with_offset_16bit+0x78>
    ce40:	e51b3018 	ldr	r3, [fp, #-24]	; 0xffffffe8
    ce44:	e59f00c0 	ldr	r0, [pc, #192]	; cf0c <diag_dump_buf_with_offset_16bit+0x134>
    ce48:	e1a01003 	mov	r1, r3
    ce4c:	ebffffca 	bl	cd7c <diag_printf>
    ce50:	e3a03000 	mov	r3, #0
    ce54:	e50b3010 	str	r3, [fp, #-16]
    ce58:	ea00001a 	b	cec8 <diag_dump_buf_with_offset_16bit+0xf0>
    ce5c:	e51b201c 	ldr	r2, [fp, #-28]	; 0xffffffe4
    ce60:	e1a03fa2 	lsr	r3, r2, #31
    ce64:	e0833002 	add	r3, r3, r2
    ce68:	e1a030c3 	asr	r3, r3, #1
    ce6c:	e1a02003 	mov	r2, r3
    ce70:	e51b3010 	ldr	r3, [fp, #-16]
    ce74:	e1520003 	cmp	r2, r3
    ce78:	da00000d 	ble	ceb4 <diag_dump_buf_with_offset_16bit+0xdc>
    ce7c:	e51b3010 	ldr	r3, [fp, #-16]
    ce80:	e1a02083 	lsl	r2, r3, #1
    ce84:	e51b3018 	ldr	r3, [fp, #-24]	; 0xffffffe8
    ce88:	e0833002 	add	r3, r3, r2
    ce8c:	e1d330b0 	ldrh	r3, [r3]
    ce90:	e59f0078 	ldr	r0, [pc, #120]	; cf10 <diag_dump_buf_with_offset_16bit+0x138>
    ce94:	e1a01003 	mov	r1, r3
    ce98:	ebffffb7 	bl	cd7c <diag_printf>
    ce9c:	e51b3010 	ldr	r3, [fp, #-16]
    cea0:	e3530003 	cmp	r3, #3
    cea4:	1a000004 	bne	cebc <diag_dump_buf_with_offset_16bit+0xe4>
    cea8:	e59f0064 	ldr	r0, [pc, #100]	; cf14 <diag_dump_buf_with_offset_16bit+0x13c>
    ceac:	ebffffb2 	bl	cd7c <diag_printf>
    ceb0:	ea000001 	b	cebc <diag_dump_buf_with_offset_16bit+0xe4>
    ceb4:	e59f005c 	ldr	r0, [pc, #92]	; cf18 <diag_dump_buf_with_offset_16bit+0x140>
    ceb8:	ebffffaf 	bl	cd7c <diag_printf>
    cebc:	e51b3010 	ldr	r3, [fp, #-16]
    cec0:	e2833001 	add	r3, r3, #1
    cec4:	e50b3010 	str	r3, [fp, #-16]
    cec8:	e51b3010 	ldr	r3, [fp, #-16]
    cecc:	e3530007 	cmp	r3, #7
    ced0:	daffffe1 	ble	ce5c <diag_dump_buf_with_offset_16bit+0x84>
    ced4:	e59f0040 	ldr	r0, [pc, #64]	; cf1c <diag_dump_buf_with_offset_16bit+0x144>
    ced8:	ebffffa7 	bl	cd7c <diag_printf>
    cedc:	e51b301c 	ldr	r3, [fp, #-28]	; 0xffffffe4
    cee0:	e2433010 	sub	r3, r3, #16
    cee4:	e50b301c 	str	r3, [fp, #-28]	; 0xffffffe4
    cee8:	e51b3018 	ldr	r3, [fp, #-24]	; 0xffffffe8
    ceec:	e2833010 	add	r3, r3, #16
    cef0:	e50b3018 	str	r3, [fp, #-24]	; 0xffffffe8
    cef4:	e51b301c 	ldr	r3, [fp, #-28]	; 0xffffffe4
    cef8:	e3530000 	cmp	r3, #0
    cefc:	caffffc5 	bgt	ce18 <diag_dump_buf_with_offset_16bit+0x40>
    cf00:	e24bd00c 	sub	sp, fp, #12
    cf04:	e89d6800 	ldm	sp, {fp, sp, lr}
    cf08:	e12fff1e 	bx	lr
    cf0c:	00015b1c 	.word	0x00015b1c
    cf10:	00015bb4 	.word	0x00015bb4
    cf14:	00015b30 	.word	0x00015b30
    cf18:	00015bbc 	.word	0x00015bbc
    cf1c:	00015bc4 	.word	0x00015bc4

0000cf20 <diag_dump_buf_16bit>:
    cf20:	e1a0c00d 	mov	ip, sp
    cf24:	e92dd800 	push	{fp, ip, lr, pc}
    cf28:	e24cb004 	sub	fp, ip, #4
    cf2c:	e24dd008 	sub	sp, sp, #8
    cf30:	e50b0010 	str	r0, [fp, #-16]
    cf34:	e50b1014 	str	r1, [fp, #-20]	; 0xffffffec
    cf38:	e51b3010 	ldr	r3, [fp, #-16]
    cf3c:	e1a00003 	mov	r0, r3
    cf40:	e51b1014 	ldr	r1, [fp, #-20]	; 0xffffffec
    cf44:	e3a02000 	mov	r2, #0
    cf48:	ebffffa2 	bl	cdd8 <diag_dump_buf_with_offset_16bit>
    cf4c:	e24bd00c 	sub	sp, fp, #12
    cf50:	e89d6800 	ldm	sp, {fp, sp, lr}
    cf54:	e12fff1e 	bx	lr

0000cf58 <diag_dump_buf_with_offset_32bit>:
    cf58:	e1a0c00d 	mov	ip, sp
    cf5c:	e92dd800 	push	{fp, ip, lr, pc}
    cf60:	e24cb004 	sub	fp, ip, #4
    cf64:	e24dd018 	sub	sp, sp, #24
    cf68:	e50b0018 	str	r0, [fp, #-24]	; 0xffffffe8
    cf6c:	e50b101c 	str	r1, [fp, #-28]	; 0xffffffe4
    cf70:	e50b2020 	str	r2, [fp, #-32]	; 0xffffffe0
    cf74:	e51b2018 	ldr	r2, [fp, #-24]	; 0xffffffe8
    cf78:	e51b301c 	ldr	r3, [fp, #-28]	; 0xffffffe4
    cf7c:	e1520003 	cmp	r2, r3
    cf80:	2a000037 	bcs	d064 <diag_dump_buf_with_offset_32bit+0x10c>
    cf84:	e51b3018 	ldr	r3, [fp, #-24]	; 0xffffffe8
    cf88:	e51b201c 	ldr	r2, [fp, #-28]	; 0xffffffe4
    cf8c:	e0633002 	rsb	r3, r3, r2
    cf90:	e50b301c 	str	r3, [fp, #-28]	; 0xffffffe4
    cf94:	ea000032 	b	d064 <diag_dump_buf_with_offset_32bit+0x10c>
    cf98:	e51b3020 	ldr	r3, [fp, #-32]	; 0xffffffe0
    cf9c:	e3530000 	cmp	r3, #0
    cfa0:	0a000006 	beq	cfc0 <diag_dump_buf_with_offset_32bit+0x68>
    cfa4:	e51b3018 	ldr	r3, [fp, #-24]	; 0xffffffe8
    cfa8:	e51b2020 	ldr	r2, [fp, #-32]	; 0xffffffe0
    cfac:	e0623003 	rsb	r3, r2, r3
    cfb0:	e59f00c4 	ldr	r0, [pc, #196]	; d07c <diag_dump_buf_with_offset_32bit+0x124>
    cfb4:	e1a01003 	mov	r1, r3
    cfb8:	ebffff6f 	bl	cd7c <diag_printf>
    cfbc:	ea000003 	b	cfd0 <diag_dump_buf_with_offset_32bit+0x78>
    cfc0:	e51b3018 	ldr	r3, [fp, #-24]	; 0xffffffe8
    cfc4:	e59f00b0 	ldr	r0, [pc, #176]	; d07c <diag_dump_buf_with_offset_32bit+0x124>
    cfc8:	e1a01003 	mov	r1, r3
    cfcc:	ebffff6a 	bl	cd7c <diag_printf>
    cfd0:	e3a03000 	mov	r3, #0
    cfd4:	e50b3010 	str	r3, [fp, #-16]
    cfd8:	ea000016 	b	d038 <diag_dump_buf_with_offset_32bit+0xe0>
    cfdc:	e51b301c 	ldr	r3, [fp, #-28]	; 0xffffffe4
    cfe0:	e2832003 	add	r2, r3, #3
    cfe4:	e3530000 	cmp	r3, #0
    cfe8:	b1a03002 	movlt	r3, r2
    cfec:	e1a03143 	asr	r3, r3, #2
    cff0:	e1a02003 	mov	r2, r3
    cff4:	e51b3010 	ldr	r3, [fp, #-16]
    cff8:	e1520003 	cmp	r2, r3
    cffc:	da000008 	ble	d024 <diag_dump_buf_with_offset_32bit+0xcc>
    d000:	e51b3010 	ldr	r3, [fp, #-16]
    d004:	e1a02103 	lsl	r2, r3, #2
    d008:	e51b3018 	ldr	r3, [fp, #-24]	; 0xffffffe8
    d00c:	e0833002 	add	r3, r3, r2
    d010:	e5933000 	ldr	r3, [r3]
    d014:	e59f0064 	ldr	r0, [pc, #100]	; d080 <diag_dump_buf_with_offset_32bit+0x128>
    d018:	e1a01003 	mov	r1, r3
    d01c:	ebffff56 	bl	cd7c <diag_printf>
    d020:	ea000001 	b	d02c <diag_dump_buf_with_offset_32bit+0xd4>
    d024:	e59f0058 	ldr	r0, [pc, #88]	; d084 <diag_dump_buf_with_offset_32bit+0x12c>
    d028:	ebffff53 	bl	cd7c <diag_printf>
    d02c:	e51b3010 	ldr	r3, [fp, #-16]
    d030:	e2833001 	add	r3, r3, #1
    d034:	e50b3010 	str	r3, [fp, #-16]
    d038:	e51b3010 	ldr	r3, [fp, #-16]
    d03c:	e3530003 	cmp	r3, #3
    d040:	daffffe5 	ble	cfdc <diag_dump_buf_with_offset_32bit+0x84>
    d044:	e59f003c 	ldr	r0, [pc, #60]	; d088 <diag_dump_buf_with_offset_32bit+0x130>
    d048:	ebffff4b 	bl	cd7c <diag_printf>
    d04c:	e51b301c 	ldr	r3, [fp, #-28]	; 0xffffffe4
    d050:	e2433010 	sub	r3, r3, #16
    d054:	e50b301c 	str	r3, [fp, #-28]	; 0xffffffe4
    d058:	e51b3018 	ldr	r3, [fp, #-24]	; 0xffffffe8
    d05c:	e2833010 	add	r3, r3, #16
    d060:	e50b3018 	str	r3, [fp, #-24]	; 0xffffffe8
    d064:	e51b301c 	ldr	r3, [fp, #-28]	; 0xffffffe4
    d068:	e3530000 	cmp	r3, #0
    d06c:	caffffc9 	bgt	cf98 <diag_dump_buf_with_offset_32bit+0x40>
    d070:	e24bd00c 	sub	sp, fp, #12
    d074:	e89d6800 	ldm	sp, {fp, sp, lr}
    d078:	e12fff1e 	bx	lr
    d07c:	00015b1c 	.word	0x00015b1c
    d080:	00015bc8 	.word	0x00015bc8
    d084:	00015bd0 	.word	0x00015bd0
    d088:	00015bc4 	.word	0x00015bc4

0000d08c <diag_dump_buf_32bit>:
    d08c:	e1a0c00d 	mov	ip, sp
    d090:	e92dd800 	push	{fp, ip, lr, pc}
    d094:	e24cb004 	sub	fp, ip, #4
    d098:	e24dd008 	sub	sp, sp, #8
    d09c:	e50b0010 	str	r0, [fp, #-16]
    d0a0:	e50b1014 	str	r1, [fp, #-20]	; 0xffffffec
    d0a4:	e51b3010 	ldr	r3, [fp, #-16]
    d0a8:	e1a00003 	mov	r0, r3
    d0ac:	e51b1014 	ldr	r1, [fp, #-20]	; 0xffffffec
    d0b0:	e3a02000 	mov	r2, #0
    d0b4:	ebffffa7 	bl	cf58 <diag_dump_buf_with_offset_32bit>
    d0b8:	e24bd00c 	sub	sp, fp, #12
    d0bc:	e89d6800 	ldm	sp, {fp, sp, lr}
    d0c0:	e12fff1e 	bx	lr

0000d0c4 <diag_sprintf>:
    d0c4:	e1a0c00d 	mov	ip, sp
    d0c8:	e92d000e 	push	{r1, r2, r3}
    d0cc:	e92dd800 	push	{fp, ip, lr, pc}
    d0d0:	e24cb010 	sub	fp, ip, #16
    d0d4:	e24dd024 	sub	sp, sp, #36	; 0x24
    d0d8:	e50b002c 	str	r0, [fp, #-44]	; 0xffffffd4
    d0dc:	e28b3008 	add	r3, fp, #8
    d0e0:	e50b3018 	str	r3, [fp, #-24]	; 0xffffffe8
    d0e4:	e51b302c 	ldr	r3, [fp, #-44]	; 0xffffffd4
    d0e8:	e50b3024 	str	r3, [fp, #-36]	; 0xffffffdc
    d0ec:	e3a03b01 	mov	r3, #1024	; 0x400
    d0f0:	e50b3020 	str	r3, [fp, #-32]	; 0xffffffe0
    d0f4:	e3a03000 	mov	r3, #0
    d0f8:	e50b301c 	str	r3, [fp, #-28]	; 0xffffffe4
    d0fc:	e24b3024 	sub	r3, fp, #36	; 0x24
    d100:	e51bc018 	ldr	ip, [fp, #-24]	; 0xffffffe8
    d104:	e59f0028 	ldr	r0, [pc, #40]	; d134 <diag_sprintf+0x70>
    d108:	e1a01003 	mov	r1, r3
    d10c:	e59b2004 	ldr	r2, [fp, #4]
    d110:	e1a0300c 	mov	r3, ip
    d114:	ebfffba9 	bl	bfc0 <_ZL8_vprintfPFvcPPvES0_PKcS_>
    d118:	e1a03000 	mov	r3, r0
    d11c:	e50b3014 	str	r3, [fp, #-20]	; 0xffffffec
    d120:	e51b301c 	ldr	r3, [fp, #-28]	; 0xffffffe4
    d124:	e1a00003 	mov	r0, r3
    d128:	e24bd00c 	sub	sp, fp, #12
    d12c:	e89d6800 	ldm	sp, {fp, sp, lr}
    d130:	e12fff1e 	bx	lr
    d134:	0000b88c 	.word	0x0000b88c

0000d138 <_ZL16_diag_write_charcPPv>:
    d138:	e1a0c00d 	mov	ip, sp
    d13c:	e92dd800 	push	{fp, ip, lr, pc}
    d140:	e24cb004 	sub	fp, ip, #4
    d144:	e24dd008 	sub	sp, sp, #8
    d148:	e1a03000 	mov	r3, r0
    d14c:	e50b1014 	str	r1, [fp, #-20]	; 0xffffffec
    d150:	e54b300d 	strb	r3, [fp, #-13]
    d154:	e55b300d 	ldrb	r3, [fp, #-13]
    d158:	e1a00003 	mov	r0, r3
    d15c:	ebfffab4 	bl	bc34 <diag_write_char>
    d160:	e24bd00c 	sub	sp, fp, #12
    d164:	e89d6800 	ldm	sp, {fp, sp, lr}
    d168:	e12fff1e 	bx	lr

0000d16c <_memcpy>:
    d16c:	e1a0c00d 	mov	ip, sp
    d170:	e92dd800 	push	{fp, ip, lr, pc}
    d174:	e24cb004 	sub	fp, ip, #4
    d178:	e24dd020 	sub	sp, sp, #32
    d17c:	e50b0020 	str	r0, [fp, #-32]	; 0xffffffe0
    d180:	e50b1024 	str	r1, [fp, #-36]	; 0xffffffdc
    d184:	e50b2028 	str	r2, [fp, #-40]	; 0xffffffd8
    d188:	e51b3020 	ldr	r3, [fp, #-32]	; 0xffffffe0
    d18c:	e50b301c 	str	r3, [fp, #-28]	; 0xffffffe4
    d190:	e51b3024 	ldr	r3, [fp, #-36]	; 0xffffffdc
    d194:	e50b3018 	str	r3, [fp, #-24]	; 0xffffffe8
    d198:	e51b3028 	ldr	r3, [fp, #-40]	; 0xffffffd8
    d19c:	e3530003 	cmp	r3, #3
    d1a0:	9a000010 	bls	d1e8 <_memcpy+0x7c>
    d1a4:	e51b2018 	ldr	r2, [fp, #-24]	; 0xffffffe8
    d1a8:	e51b301c 	ldr	r3, [fp, #-28]	; 0xffffffe4
    d1ac:	e1823003 	orr	r3, r2, r3
    d1b0:	e2033003 	and	r3, r3, #3
    d1b4:	e3530000 	cmp	r3, #0
    d1b8:	0a000017 	beq	d21c <_memcpy+0xb0>
    d1bc:	ea000009 	b	d1e8 <_memcpy+0x7c>
    d1c0:	e51b3018 	ldr	r3, [fp, #-24]	; 0xffffffe8
    d1c4:	e5d33000 	ldrb	r3, [r3]
    d1c8:	e51b201c 	ldr	r2, [fp, #-28]	; 0xffffffe4
    d1cc:	e5c23000 	strb	r3, [r2]
    d1d0:	e51b301c 	ldr	r3, [fp, #-28]	; 0xffffffe4
    d1d4:	e2833001 	add	r3, r3, #1
    d1d8:	e50b301c 	str	r3, [fp, #-28]	; 0xffffffe4
    d1dc:	e51b3018 	ldr	r3, [fp, #-24]	; 0xffffffe8
    d1e0:	e2833001 	add	r3, r3, #1
    d1e4:	e50b3018 	str	r3, [fp, #-24]	; 0xffffffe8
    d1e8:	e51b3028 	ldr	r3, [fp, #-40]	; 0xffffffd8
    d1ec:	e3530000 	cmp	r3, #0
    d1f0:	03a03000 	moveq	r3, #0
    d1f4:	13a03001 	movne	r3, #1
    d1f8:	e20320ff 	and	r2, r3, #255	; 0xff
    d1fc:	e51b3028 	ldr	r3, [fp, #-40]	; 0xffffffd8
    d200:	e2433001 	sub	r3, r3, #1
    d204:	e50b3028 	str	r3, [fp, #-40]	; 0xffffffd8
    d208:	e3520000 	cmp	r2, #0
    d20c:	1affffeb 	bne	d1c0 <_memcpy+0x54>
    d210:	e51b3020 	ldr	r3, [fp, #-32]	; 0xffffffe0
    d214:	e50b302c 	str	r3, [fp, #-44]	; 0xffffffd4
    d218:	ea00005e 	b	d398 <_memcpy+0x22c>
    d21c:	e51b301c 	ldr	r3, [fp, #-28]	; 0xffffffe4
    d220:	e50b3014 	str	r3, [fp, #-20]	; 0xffffffec
    d224:	e51b3018 	ldr	r3, [fp, #-24]	; 0xffffffe8
    d228:	e50b3010 	str	r3, [fp, #-16]
    d22c:	ea00002a 	b	d2dc <_memcpy+0x170>
    d230:	e51b3010 	ldr	r3, [fp, #-16]
    d234:	e5932000 	ldr	r2, [r3]
    d238:	e51b3014 	ldr	r3, [fp, #-20]	; 0xffffffec
    d23c:	e5832000 	str	r2, [r3]
    d240:	e51b3014 	ldr	r3, [fp, #-20]	; 0xffffffec
    d244:	e2833004 	add	r3, r3, #4
    d248:	e50b3014 	str	r3, [fp, #-20]	; 0xffffffec
    d24c:	e51b3010 	ldr	r3, [fp, #-16]
    d250:	e2833004 	add	r3, r3, #4
    d254:	e50b3010 	str	r3, [fp, #-16]
    d258:	e51b3010 	ldr	r3, [fp, #-16]
    d25c:	e5932000 	ldr	r2, [r3]
    d260:	e51b3014 	ldr	r3, [fp, #-20]	; 0xffffffec
    d264:	e5832000 	str	r2, [r3]
    d268:	e51b3014 	ldr	r3, [fp, #-20]	; 0xffffffec
    d26c:	e2833004 	add	r3, r3, #4
    d270:	e50b3014 	str	r3, [fp, #-20]	; 0xffffffec
    d274:	e51b3010 	ldr	r3, [fp, #-16]
    d278:	e2833004 	add	r3, r3, #4
    d27c:	e50b3010 	str	r3, [fp, #-16]
    d280:	e51b3010 	ldr	r3, [fp, #-16]
    d284:	e5932000 	ldr	r2, [r3]
    d288:	e51b3014 	ldr	r3, [fp, #-20]	; 0xffffffec
    d28c:	e5832000 	str	r2, [r3]
    d290:	e51b3014 	ldr	r3, [fp, #-20]	; 0xffffffec
    d294:	e2833004 	add	r3, r3, #4
    d298:	e50b3014 	str	r3, [fp, #-20]	; 0xffffffec
    d29c:	e51b3010 	ldr	r3, [fp, #-16]
    d2a0:	e2833004 	add	r3, r3, #4
    d2a4:	e50b3010 	str	r3, [fp, #-16]
    d2a8:	e51b3010 	ldr	r3, [fp, #-16]
    d2ac:	e5932000 	ldr	r2, [r3]
    d2b0:	e51b3014 	ldr	r3, [fp, #-20]	; 0xffffffec
    d2b4:	e5832000 	str	r2, [r3]
    d2b8:	e51b3014 	ldr	r3, [fp, #-20]	; 0xffffffec
    d2bc:	e2833004 	add	r3, r3, #4
    d2c0:	e50b3014 	str	r3, [fp, #-20]	; 0xffffffec
    d2c4:	e51b3010 	ldr	r3, [fp, #-16]
    d2c8:	e2833004 	add	r3, r3, #4
    d2cc:	e50b3010 	str	r3, [fp, #-16]
    d2d0:	e51b3028 	ldr	r3, [fp, #-40]	; 0xffffffd8
    d2d4:	e2433010 	sub	r3, r3, #16
    d2d8:	e50b3028 	str	r3, [fp, #-40]	; 0xffffffd8
    d2dc:	e51b3028 	ldr	r3, [fp, #-40]	; 0xffffffd8
    d2e0:	e353000f 	cmp	r3, #15
    d2e4:	8affffd1 	bhi	d230 <_memcpy+0xc4>
    d2e8:	ea00000c 	b	d320 <_memcpy+0x1b4>
    d2ec:	e51b3010 	ldr	r3, [fp, #-16]
    d2f0:	e5932000 	ldr	r2, [r3]
    d2f4:	e51b3014 	ldr	r3, [fp, #-20]	; 0xffffffec
    d2f8:	e5832000 	str	r2, [r3]
    d2fc:	e51b3014 	ldr	r3, [fp, #-20]	; 0xffffffec
    d300:	e2833004 	add	r3, r3, #4
    d304:	e50b3014 	str	r3, [fp, #-20]	; 0xffffffec
    d308:	e51b3010 	ldr	r3, [fp, #-16]
    d30c:	e2833004 	add	r3, r3, #4
    d310:	e50b3010 	str	r3, [fp, #-16]
    d314:	e51b3028 	ldr	r3, [fp, #-40]	; 0xffffffd8
    d318:	e2433004 	sub	r3, r3, #4
    d31c:	e50b3028 	str	r3, [fp, #-40]	; 0xffffffd8
    d320:	e51b3028 	ldr	r3, [fp, #-40]	; 0xffffffd8
    d324:	e3530003 	cmp	r3, #3
    d328:	8affffef 	bhi	d2ec <_memcpy+0x180>
    d32c:	e51b3014 	ldr	r3, [fp, #-20]	; 0xffffffec
    d330:	e50b301c 	str	r3, [fp, #-28]	; 0xffffffe4
    d334:	e51b3010 	ldr	r3, [fp, #-16]
    d338:	e50b3018 	str	r3, [fp, #-24]	; 0xffffffe8
    d33c:	ea000009 	b	d368 <_memcpy+0x1fc>
    d340:	e51b3018 	ldr	r3, [fp, #-24]	; 0xffffffe8
    d344:	e5d33000 	ldrb	r3, [r3]
    d348:	e51b201c 	ldr	r2, [fp, #-28]	; 0xffffffe4
    d34c:	e5c23000 	strb	r3, [r2]
    d350:	e51b301c 	ldr	r3, [fp, #-28]	; 0xffffffe4
    d354:	e2833001 	add	r3, r3, #1
    d358:	e50b301c 	str	r3, [fp, #-28]	; 0xffffffe4
    d35c:	e51b3018 	ldr	r3, [fp, #-24]	; 0xffffffe8
    d360:	e2833001 	add	r3, r3, #1
    d364:	e50b3018 	str	r3, [fp, #-24]	; 0xffffffe8
    d368:	e51b3028 	ldr	r3, [fp, #-40]	; 0xffffffd8
    d36c:	e3530000 	cmp	r3, #0
    d370:	03a03000 	moveq	r3, #0
    d374:	13a03001 	movne	r3, #1
    d378:	e20320ff 	and	r2, r3, #255	; 0xff
    d37c:	e51b3028 	ldr	r3, [fp, #-40]	; 0xffffffd8
    d380:	e2433001 	sub	r3, r3, #1
    d384:	e50b3028 	str	r3, [fp, #-40]	; 0xffffffd8
    d388:	e3520000 	cmp	r2, #0
    d38c:	1affffeb 	bne	d340 <_memcpy+0x1d4>
    d390:	e51b3020 	ldr	r3, [fp, #-32]	; 0xffffffe0
    d394:	e50b302c 	str	r3, [fp, #-44]	; 0xffffffd4
    d398:	e51b302c 	ldr	r3, [fp, #-44]	; 0xffffffd4
    d39c:	e1a00003 	mov	r0, r3
    d3a0:	e24bd00c 	sub	sp, fp, #12
    d3a4:	e89d6800 	ldm	sp, {fp, sp, lr}
    d3a8:	e12fff1e 	bx	lr

0000d3ac <bist>:
    d3ac:	e1a0c00d 	mov	ip, sp
    d3b0:	e92dd800 	push	{fp, ip, lr, pc}
    d3b4:	e24cb004 	sub	fp, ip, #4
    d3b8:	e24bd00c 	sub	sp, fp, #12
    d3bc:	e89d6800 	ldm	sp, {fp, sp, lr}
    d3c0:	e12fff1e 	bx	lr

0000d3c4 <do_version>:
    d3c4:	e1a0c00d 	mov	ip, sp
    d3c8:	e92dd800 	push	{fp, ip, lr, pc}
    d3cc:	e24cb004 	sub	fp, ip, #4
    d3d0:	e24dd010 	sub	sp, sp, #16
    d3d4:	e50b0018 	str	r0, [fp, #-24]	; 0xffffffe8
    d3d8:	e50b101c 	str	r1, [fp, #-28]	; 0xffffffe4
    d3dc:	eb00002a 	bl	d48c <__call_vv_CYGNUM_CALL_IF_MONITOR_VERSION>
    d3e0:	e1a03000 	mov	r3, r0
    d3e4:	e50b3010 	str	r3, [fp, #-16]
    d3e8:	e51b0010 	ldr	r0, [fp, #-16]
    d3ec:	ebfffe62 	bl	cd7c <diag_printf>
    d3f0:	e59f0068 	ldr	r0, [pc, #104]	; d460 <do_version+0x9c>
    d3f4:	ebfffe60 	bl	cd7c <diag_printf>
    d3f8:	e59f0064 	ldr	r0, [pc, #100]	; d464 <do_version+0xa0>
    d3fc:	ebfffe5e 	bl	cd7c <diag_printf>
    d400:	e59f0060 	ldr	r0, [pc, #96]	; d468 <do_version+0xa4>
    d404:	e59f1060 	ldr	r1, [pc, #96]	; d46c <do_version+0xa8>
    d408:	e59f2060 	ldr	r2, [pc, #96]	; d470 <do_version+0xac>
    d40c:	e59f3060 	ldr	r3, [pc, #96]	; d474 <do_version+0xb0>
    d410:	ebfffe59 	bl	cd7c <diag_printf>
    d414:	e59f305c 	ldr	r3, [pc, #92]	; d478 <do_version+0xb4>
    d418:	e5932000 	ldr	r2, [r3]
    d41c:	e59f3058 	ldr	r3, [pc, #88]	; d47c <do_version+0xb8>
    d420:	e5933000 	ldr	r3, [r3]
    d424:	e59f0054 	ldr	r0, [pc, #84]	; d480 <do_version+0xbc>
    d428:	e1a01002 	mov	r1, r2
    d42c:	e1a02003 	mov	r2, r3
    d430:	ebfffe51 	bl	cd7c <diag_printf>
    d434:	e59f3048 	ldr	r3, [pc, #72]	; d484 <do_version+0xc0>
    d438:	e5932000 	ldr	r2, [r3]
    d43c:	e59f3040 	ldr	r3, [pc, #64]	; d484 <do_version+0xc0>
    d440:	e5933004 	ldr	r3, [r3, #4]
    d444:	e59f003c 	ldr	r0, [pc, #60]	; d488 <do_version+0xc4>
    d448:	e1a01002 	mov	r1, r2
    d44c:	e1a02003 	mov	r2, r3
    d450:	ebfffe49 	bl	cd7c <diag_printf>
    d454:	e24bd00c 	sub	sp, fp, #12
    d458:	e89d6800 	ldm	sp, {fp, sp, lr}
    d45c:	e12fff1e 	bx	lr
    d460:	00015cb0 	.word	0x00015cb0
    d464:	00015d1c 	.word	0x00015d1c
    d468:	00015e70 	.word	0x00015e70
    d46c:	00015e88 	.word	0x00015e88
    d470:	00015ea4 	.word	0x00015ea4
    d474:	00015c08 	.word	0x00015c08
    d478:	81005728 	.word	0x81005728
    d47c:	810056dc 	.word	0x810056dc
    d480:	00015eb0 	.word	0x00015eb0
    d484:	81005734 	.word	0x81005734
    d488:	00015ebc 	.word	0x00015ebc

0000d48c <__call_vv_CYGNUM_CALL_IF_MONITOR_VERSION>:
    d48c:	e1a0c00d 	mov	ip, sp
    d490:	e92dd800 	push	{fp, ip, lr, pc}
    d494:	e24cb004 	sub	fp, ip, #4
    d498:	e59f3010 	ldr	r3, [pc, #16]	; d4b0 <__call_vv_CYGNUM_CALL_IF_MONITOR_VERSION+0x24>
    d49c:	e5933038 	ldr	r3, [r3, #56]	; 0x38
    d4a0:	e1a00003 	mov	r0, r3
    d4a4:	e24bd00c 	sub	sp, fp, #12
    d4a8:	e89d6800 	ldm	sp, {fp, sp, lr}
    d4ac:	e12fff1e 	bx	lr
    d4b0:	40000050 	.word	0x40000050

0000d4b4 <do_idle>:
    d4b4:	e1a0c00d 	mov	ip, sp
    d4b8:	e92dd800 	push	{fp, ip, lr, pc}
    d4bc:	e24cb004 	sub	fp, ip, #4
    d4c0:	e24dd010 	sub	sp, sp, #16
    d4c4:	e50b0018 	str	r0, [fp, #-24]	; 0xffffffe8
    d4c8:	e59f3040 	ldr	r3, [pc, #64]	; d510 <do_idle+0x5c>
    d4cc:	e50b3010 	str	r3, [fp, #-16]
    d4d0:	ea000007 	b	d4f4 <do_idle+0x40>
    d4d4:	e51b3010 	ldr	r3, [fp, #-16]
    d4d8:	e5933000 	ldr	r3, [r3]
    d4dc:	e51b0018 	ldr	r0, [fp, #-24]	; 0xffffffe8
    d4e0:	e1a0e00f 	mov	lr, pc
    d4e4:	e12fff13 	bx	r3
    d4e8:	e51b3010 	ldr	r3, [fp, #-16]
    d4ec:	e2833004 	add	r3, r3, #4
    d4f0:	e50b3010 	str	r3, [fp, #-16]
    d4f4:	e51b2010 	ldr	r2, [fp, #-16]
    d4f8:	e59f3014 	ldr	r3, [pc, #20]	; d514 <do_idle+0x60>
    d4fc:	e1520003 	cmp	r2, r3
    d500:	1afffff3 	bne	d4d4 <do_idle+0x20>
    d504:	e24bd00c 	sub	sp, fp, #12
    d508:	e89d6800 	ldm	sp, {fp, sp, lr}
    d50c:	e12fff1e 	bx	lr
    d510:	810004f8 	.word	0x810004f8
    d514:	810004f8 	.word	0x810004f8

0000d518 <_mon_write_char>:
    d518:	e1a0c00d 	mov	ip, sp
    d51c:	e92dd800 	push	{fp, ip, lr, pc}
    d520:	e24cb004 	sub	fp, ip, #4
    d524:	e24dd008 	sub	sp, sp, #8
    d528:	e1a03000 	mov	r3, r0
    d52c:	e50b1014 	str	r1, [fp, #-20]	; 0xffffffec
    d530:	e54b300d 	strb	r3, [fp, #-13]
    d534:	e55b300d 	ldrb	r3, [fp, #-13]
    d538:	e353000a 	cmp	r3, #10
    d53c:	1a000001 	bne	d548 <_mon_write_char+0x30>
    d540:	e3a0000d 	mov	r0, #13
    d544:	eb000539 	bl	ea30 <mon_write_char>
    d548:	e55b300d 	ldrb	r3, [fp, #-13]
    d54c:	e1a00003 	mov	r0, r3
    d550:	eb000536 	bl	ea30 <mon_write_char>
    d554:	e24bd00c 	sub	sp, fp, #12
    d558:	e89d6800 	ldm	sp, {fp, sp, lr}
    d55c:	e12fff1e 	bx	lr

0000d560 <error_handler>:
    d560:	e1a0c00d 	mov	ip, sp
    d564:	e92dd800 	push	{fp, ip, lr, pc}
    d568:	e24cb004 	sub	fp, ip, #4
    d56c:	e59f0010 	ldr	r0, [pc, #16]	; d584 <error_handler+0x24>
    d570:	e3a01001 	mov	r1, #1
    d574:	eb00125e 	bl	11ef4 <hal_longjmp>
    d578:	e24bd00c 	sub	sp, fp, #12
    d57c:	e89d6800 	ldm	sp, {fp, sp, lr}
    d580:	e12fff1e 	bx	lr
    d584:	81003390 	.word	0x81003390

0000d588 <cyg_start>:
    d588:	e1a0c00d 	mov	ip, sp
    d58c:	e92dd800 	push	{fp, ip, lr, pc}
    d590:	e24cb004 	sub	fp, ip, #4
    d594:	e24dd038 	sub	sp, sp, #56	; 0x38
    d598:	e3a03000 	mov	r3, #0
    d59c:	e50b3034 	str	r3, [fp, #-52]	; 0xffffffcc
    d5a0:	e3a03001 	mov	r3, #1
    d5a4:	e50b3030 	str	r3, [fp, #-48]	; 0xffffffd0
    d5a8:	e59f23f8 	ldr	r2, [pc, #1016]	; d9a8 <cyg_start+0x420>
    d5ac:	e59f33f8 	ldr	r3, [pc, #1016]	; d9ac <cyg_start+0x424>
    d5b0:	e5832038 	str	r2, [r3, #56]	; 0x38
    d5b4:	e59f23f4 	ldr	r2, [pc, #1012]	; d9b0 <cyg_start+0x428>
    d5b8:	e59f33ec 	ldr	r3, [pc, #1004]	; d9ac <cyg_start+0x424>
    d5bc:	e5832054 	str	r2, [r3, #84]	; 0x54
    d5c0:	e59f03ec 	ldr	r0, [pc, #1004]	; d9b4 <cyg_start+0x42c>
    d5c4:	ebfff80b 	bl	b5f8 <diag_init_putc>
    d5c8:	ebfff68a 	bl	aff8 <hal_if_diag_init>
    d5cc:	e3e00000 	mvn	r0, #0
    d5d0:	eb000130 	bl	da98 <__call_vv_CYGNUM_CALL_IF_SET_CONSOLE_COMM>
    d5d4:	e1a03000 	mov	r3, r0
    d5d8:	e50b3028 	str	r3, [fp, #-40]	; 0xffffffd8
    d5dc:	e3a00000 	mov	r0, #0
    d5e0:	eb00012c 	bl	da98 <__call_vv_CYGNUM_CALL_IF_SET_CONSOLE_COMM>
    d5e4:	e59f23cc 	ldr	r2, [pc, #972]	; d9b8 <cyg_start+0x430>
    d5e8:	e3a03000 	mov	r3, #0
    d5ec:	e5823000 	str	r3, [r2]
    d5f0:	e59f23c4 	ldr	r2, [pc, #964]	; d9bc <cyg_start+0x434>
    d5f4:	e3a03001 	mov	r3, #1
    d5f8:	e5823000 	str	r3, [r2]
    d5fc:	e59f23bc 	ldr	r2, [pc, #956]	; d9c0 <cyg_start+0x438>
    d600:	e3a03481 	mov	r3, #-2130706432	; 0x81000000
    d604:	e5823000 	str	r3, [r2]
    d608:	e59f23b4 	ldr	r2, [pc, #948]	; d9c4 <cyg_start+0x43c>
    d60c:	e3a03481 	mov	r3, #-2130706432	; 0x81000000
    d610:	e2833502 	add	r3, r3, #8388608	; 0x800000
    d614:	e5823000 	str	r3, [r2]
    d618:	e59f23a8 	ldr	r2, [pc, #936]	; d9c8 <cyg_start+0x440>
    d61c:	e59f33a8 	ldr	r3, [pc, #936]	; d9cc <cyg_start+0x444>
    d620:	e5823000 	str	r3, [r2]
    d624:	e59f33a0 	ldr	r3, [pc, #928]	; d9cc <cyg_start+0x444>
    d628:	e2633481 	rsb	r3, r3, #-2130706432	; 0x81000000
    d62c:	e2833601 	add	r3, r3, #1048576	; 0x100000
    d630:	e59f2394 	ldr	r2, [pc, #916]	; d9cc <cyg_start+0x444>
    d634:	e0832002 	add	r2, r3, r2
    d638:	e59f3390 	ldr	r3, [pc, #912]	; d9d0 <cyg_start+0x448>
    d63c:	e5832000 	str	r2, [r3]
    d640:	e59f337c 	ldr	r3, [pc, #892]	; d9c4 <cyg_start+0x43c>
    d644:	e5932000 	ldr	r2, [r3]
    d648:	e59f3380 	ldr	r3, [pc, #896]	; d9d0 <cyg_start+0x448>
    d64c:	e5933000 	ldr	r3, [r3]
    d650:	e1520003 	cmp	r2, r3
    d654:	2a000003 	bcs	d668 <cyg_start+0xe0>
    d658:	e59f3364 	ldr	r3, [pc, #868]	; d9c4 <cyg_start+0x43c>
    d65c:	e5932000 	ldr	r2, [r3]
    d660:	e59f3368 	ldr	r3, [pc, #872]	; d9d0 <cyg_start+0x448>
    d664:	e5832000 	str	r2, [r3]
    d668:	e59f3360 	ldr	r3, [pc, #864]	; d9d0 <cyg_start+0x448>
    d66c:	e5932000 	ldr	r2, [r3]
    d670:	e59f335c 	ldr	r3, [pc, #860]	; d9d4 <cyg_start+0x44c>
    d674:	e5832000 	str	r2, [r3]
    d678:	e59f2358 	ldr	r2, [pc, #856]	; d9d8 <cyg_start+0x450>
    d67c:	e3e03000 	mvn	r3, #0
    d680:	e5823000 	str	r3, [r2]
    d684:	ebffff48 	bl	d3ac <bist>
    d688:	e59f334c 	ldr	r3, [pc, #844]	; d9dc <cyg_start+0x454>
    d68c:	e50b3024 	str	r3, [fp, #-36]	; 0xffffffdc
    d690:	ea000006 	b	d6b0 <cyg_start+0x128>
    d694:	e51b3024 	ldr	r3, [fp, #-36]	; 0xffffffdc
    d698:	e5933000 	ldr	r3, [r3]
    d69c:	e1a0e00f 	mov	lr, pc
    d6a0:	e12fff13 	bx	r3
    d6a4:	e51b3024 	ldr	r3, [fp, #-36]	; 0xffffffdc
    d6a8:	e2833004 	add	r3, r3, #4
    d6ac:	e50b3024 	str	r3, [fp, #-36]	; 0xffffffdc
    d6b0:	e51b2024 	ldr	r2, [fp, #-36]	; 0xffffffdc
    d6b4:	e59f3324 	ldr	r3, [pc, #804]	; d9e0 <cyg_start+0x458>
    d6b8:	e1520003 	cmp	r2, r3
    d6bc:	1afffff4 	bne	d694 <cyg_start+0x10c>
    d6c0:	e59f3300 	ldr	r3, [pc, #768]	; d9c8 <cyg_start+0x440>
    d6c4:	e5932000 	ldr	r2, [r3]
    d6c8:	e59f3314 	ldr	r3, [pc, #788]	; d9e4 <cyg_start+0x45c>
    d6cc:	e5832000 	str	r2, [r3]
    d6d0:	e59f32f8 	ldr	r3, [pc, #760]	; d9d0 <cyg_start+0x448>
    d6d4:	e5932000 	ldr	r2, [r3]
    d6d8:	e59f3304 	ldr	r3, [pc, #772]	; d9e4 <cyg_start+0x45c>
    d6dc:	e5832004 	str	r2, [r3, #4]
    d6e0:	e3a00000 	mov	r0, #0
    d6e4:	e3a01000 	mov	r1, #0
    d6e8:	ebffff35 	bl	d3c4 <do_version>
    d6ec:	e51b3030 	ldr	r3, [fp, #-48]	; 0xffffffd0
    d6f0:	e3530000 	cmp	r3, #0
    d6f4:	0a000003 	beq	d708 <cyg_start+0x180>
    d6f8:	e59f02e8 	ldr	r0, [pc, #744]	; d9e8 <cyg_start+0x460>
    d6fc:	ebfffd9e 	bl	cd7c <diag_printf>
    d700:	e3a03000 	mov	r3, #0
    d704:	e50b3030 	str	r3, [fp, #-48]	; 0xffffffd0
    d708:	e59f22dc 	ldr	r2, [pc, #732]	; d9ec <cyg_start+0x464>
    d70c:	e3a03001 	mov	r3, #1
    d710:	e5823000 	str	r3, [r2]
    d714:	e59f02d4 	ldr	r0, [pc, #724]	; d9f0 <cyg_start+0x468>
    d718:	e3a01c01 	mov	r1, #256	; 0x100
    d71c:	e3a0200a 	mov	r2, #10
    d720:	eb0009a1 	bl	fdac <_rb_gets>
    d724:	e1a03000 	mov	r3, r0
    d728:	e50b3034 	str	r3, [fp, #-52]	; 0xffffffcc
    d72c:	e59f22b8 	ldr	r2, [pc, #696]	; d9ec <cyg_start+0x464>
    d730:	e3a03000 	mov	r3, #0
    d734:	e5823000 	str	r3, [r2]
    d738:	e51b3034 	ldr	r3, [fp, #-52]	; 0xffffffcc
    d73c:	e3730001 	cmn	r3, #1
    d740:	0affffe9 	beq	d6ec <cyg_start+0x164>
    d744:	e51b3034 	ldr	r3, [fp, #-52]	; 0xffffffcc
    d748:	e3530000 	cmp	r3, #0
    d74c:	1a000053 	bne	d8a0 <cyg_start+0x318>
    d750:	e59f329c 	ldr	r3, [pc, #668]	; d9f4 <cyg_start+0x46c>
    d754:	e3a02001 	mov	r2, #1
    d758:	e5832000 	str	r2, [r3]
    d75c:	e3a03000 	mov	r3, #0
    d760:	e50b3018 	str	r3, [fp, #-24]	; 0xffffffe8
    d764:	ea000012 	b	d7b4 <cyg_start+0x22c>
    d768:	e51b0018 	ldr	r0, [fp, #-24]	; 0xffffffe8
    d76c:	eb0000c9 	bl	da98 <__call_vv_CYGNUM_CALL_IF_SET_CONSOLE_COMM>
    d770:	eb0000ac 	bl	da28 <__call_vv_CYGNUM_CALL_IF_CONSOLE_PROCS>
    d774:	e1a03000 	mov	r3, r0
    d778:	e50b301c 	str	r3, [fp, #-28]	; 0xffffffe4
    d77c:	e51b301c 	ldr	r3, [fp, #-28]	; 0xffffffe4
    d780:	e5933014 	ldr	r3, [r3, #20]
    d784:	e1a02003 	mov	r2, r3
    d788:	e51b301c 	ldr	r3, [fp, #-28]	; 0xffffffe4
    d78c:	e5933000 	ldr	r3, [r3]
    d790:	e1a00003 	mov	r0, r3
    d794:	e3a01004 	mov	r1, #4
    d798:	e1a0e00f 	mov	lr, pc
    d79c:	e12fff12 	bx	r2
    d7a0:	e1a03000 	mov	r3, r0
    d7a4:	e50b3014 	str	r3, [fp, #-20]	; 0xffffffec
    d7a8:	e51b3018 	ldr	r3, [fp, #-24]	; 0xffffffe8
    d7ac:	e2833001 	add	r3, r3, #1
    d7b0:	e50b3018 	str	r3, [fp, #-24]	; 0xffffffe8
    d7b4:	e51b3018 	ldr	r3, [fp, #-24]	; 0xffffffe8
    d7b8:	e3530000 	cmp	r3, #0
    d7bc:	daffffe9 	ble	d768 <cyg_start+0x1e0>
    d7c0:	e51b0028 	ldr	r0, [fp, #-40]	; 0xffffffd8
    d7c4:	eb0000b3 	bl	da98 <__call_vv_CYGNUM_CALL_IF_SET_CONSOLE_COMM>
    d7c8:	e59f3200 	ldr	r3, [pc, #512]	; d9d0 <cyg_start+0x448>
    d7cc:	e5933000 	ldr	r3, [r3]
    d7d0:	e50b303c 	str	r3, [fp, #-60]	; 0xffffffc4
    d7d4:	e51b303c 	ldr	r3, [fp, #-60]	; 0xffffffc4
    d7d8:	e3c3300f 	bic	r3, r3, #15
    d7dc:	e50b3044 	str	r3, [fp, #-68]	; 0xffffffbc
    d7e0:	e51b1044 	ldr	r1, [fp, #-68]	; 0xffffffbc
    d7e4:	e2413050 	sub	r3, r1, #80	; 0x50
    d7e8:	e50b3040 	str	r3, [fp, #-64]	; 0xffffffc0
    d7ec:	e3a03000 	mov	r3, #0
    d7f0:	e50b3010 	str	r3, [fp, #-16]
    d7f4:	ea000006 	b	d814 <cyg_start+0x28c>
    d7f8:	e51b2010 	ldr	r2, [fp, #-16]
    d7fc:	e51b3010 	ldr	r3, [fp, #-16]
    d800:	e51b1040 	ldr	r1, [fp, #-64]	; 0xffffffc0
    d804:	e7813102 	str	r3, [r1, r2, lsl #2]
    d808:	e51b3010 	ldr	r3, [fp, #-16]
    d80c:	e2833001 	add	r3, r3, #1
    d810:	e50b3010 	str	r3, [fp, #-16]
    d814:	e51b3010 	ldr	r3, [fp, #-16]
    d818:	e353000a 	cmp	r3, #10
    d81c:	dafffff5 	ble	d7f8 <cyg_start+0x270>
    d820:	e59f31d0 	ldr	r3, [pc, #464]	; d9f8 <cyg_start+0x470>
    d824:	e51b2040 	ldr	r2, [fp, #-64]	; 0xffffffc0
    d828:	e5823000 	str	r3, [r2]
    d82c:	e51b1044 	ldr	r1, [fp, #-68]	; 0xffffffbc
    d830:	e51b3040 	ldr	r3, [fp, #-64]	; 0xffffffc0
    d834:	e5831034 	str	r1, [r3, #52]	; 0x34
    d838:	e59f31bc 	ldr	r3, [pc, #444]	; d9fc <cyg_start+0x474>
    d83c:	e51b2040 	ldr	r2, [fp, #-64]	; 0xffffffc0
    d840:	e5823038 	str	r3, [r2, #56]	; 0x38
    d844:	e59f31b0 	ldr	r3, [pc, #432]	; d9fc <cyg_start+0x474>
    d848:	e51b1040 	ldr	r1, [fp, #-64]	; 0xffffffc0
    d84c:	e581303c 	str	r3, [r1, #60]	; 0x3c
    d850:	e3a03013 	mov	r3, #19
    d854:	e51b2040 	ldr	r2, [fp, #-64]	; 0xffffffc0
    d858:	e5823040 	str	r3, [r2, #64]	; 0x40
    d85c:	e51b3040 	ldr	r3, [fp, #-64]	; 0xffffffc0
    d860:	e50b303c 	str	r3, [fp, #-60]	; 0xffffffc4
    d864:	e24b303c 	sub	r3, fp, #60	; 0x3c
    d868:	e59f2190 	ldr	r2, [pc, #400]	; da00 <cyg_start+0x478>
    d86c:	e1a00003 	mov	r0, r3
    d870:	e1a01002 	mov	r1, r2
    d874:	eb00118c 	bl	11eac <hal_thread_switch_context>
    d878:	e59f2174 	ldr	r2, [pc, #372]	; d9f4 <cyg_start+0x46c>
    d87c:	e3a03000 	mov	r3, #0
    d880:	e5823000 	str	r3, [r2]
    d884:	e3e00000 	mvn	r0, #0
    d888:	eb000070 	bl	da50 <__call_vv_CYGNUM_CALL_IF_SET_DEBUG_COMM>
    d88c:	e1a03000 	mov	r3, r0
    d890:	e50b3020 	str	r3, [fp, #-32]	; 0xffffffe0
    d894:	e51b0020 	ldr	r0, [fp, #-32]	; 0xffffffe0
    d898:	eb00007e 	bl	da98 <__call_vv_CYGNUM_CALL_IF_SET_CONSOLE_COMM>
    d89c:	eaffff92 	b	d6ec <cyg_start+0x164>
    d8a0:	e59f0148 	ldr	r0, [pc, #328]	; d9f0 <cyg_start+0x468>
    d8a4:	e3a01c01 	mov	r1, #256	; 0x100
    d8a8:	eb000f2d 	bl	11564 <expand_aliases>
    d8ac:	e59f313c 	ldr	r3, [pc, #316]	; d9f0 <cyg_start+0x468>
    d8b0:	e50b3038 	str	r3, [fp, #-56]	; 0xffffffc8
    d8b4:	e51b3038 	ldr	r3, [fp, #-56]	; 0xffffffc8
    d8b8:	e5d33000 	ldrb	r3, [r3]
    d8bc:	e3530023 	cmp	r3, #35	; 0x23
    d8c0:	0a000003 	beq	d8d4 <cyg_start+0x34c>
    d8c4:	e51b3038 	ldr	r3, [fp, #-56]	; 0xffffffc8
    d8c8:	e5d33000 	ldrb	r3, [r3]
    d8cc:	e353003d 	cmp	r3, #61	; 0x3d
    d8d0:	1a00002d 	bne	d98c <cyg_start+0x404>
    d8d4:	e51b3038 	ldr	r3, [fp, #-56]	; 0xffffffc8
    d8d8:	e5d33000 	ldrb	r3, [r3]
    d8dc:	e353003d 	cmp	r3, #61	; 0x3d
    d8e0:	1a00002d 	bne	d99c <cyg_start+0x414>
    d8e4:	e59f0118 	ldr	r0, [pc, #280]	; da04 <cyg_start+0x47c>
    d8e8:	e59f1118 	ldr	r1, [pc, #280]	; da08 <cyg_start+0x480>
    d8ec:	ebfffd22 	bl	cd7c <diag_printf>
    d8f0:	ea000029 	b	d99c <cyg_start+0x414>
    d8f4:	e24b3038 	sub	r3, fp, #56	; 0x38
    d8f8:	e1a00003 	mov	r0, r3
    d8fc:	e59f1108 	ldr	r1, [pc, #264]	; da0c <cyg_start+0x484>
    d900:	e59f2108 	ldr	r2, [pc, #264]	; da10 <cyg_start+0x488>
    d904:	eb000a8f 	bl	10348 <parse>
    d908:	e1a03000 	mov	r3, r0
    d90c:	e50b302c 	str	r3, [fp, #-44]	; 0xffffffd4
    d910:	e51b302c 	ldr	r3, [fp, #-44]	; 0xffffffd4
    d914:	e3530000 	cmp	r3, #0
    d918:	0a000016 	beq	d978 <cyg_start+0x3f0>
    d91c:	e59f30f0 	ldr	r3, [pc, #240]	; da14 <cyg_start+0x48c>
    d920:	e59f20f0 	ldr	r2, [pc, #240]	; da18 <cyg_start+0x490>
    d924:	e5832000 	str	r2, [r3]
    d928:	e59f00ec 	ldr	r0, [pc, #236]	; da1c <cyg_start+0x494>
    d92c:	eb00116d 	bl	11ee8 <hal_setjmp>
    d930:	e1a03000 	mov	r3, r0
    d934:	e3530000 	cmp	r3, #0
    d938:	0a000002 	beq	d948 <cyg_start+0x3c0>
    d93c:	e59f00dc 	ldr	r0, [pc, #220]	; da20 <cyg_start+0x498>
    d940:	ebfffd0d 	bl	cd7c <diag_printf>
    d944:	ea000007 	b	d968 <cyg_start+0x3e0>
    d948:	e51b302c 	ldr	r3, [fp, #-44]	; 0xffffffd4
    d94c:	e593200c 	ldr	r2, [r3, #12]
    d950:	e59f30b4 	ldr	r3, [pc, #180]	; da0c <cyg_start+0x484>
    d954:	e5933000 	ldr	r3, [r3]
    d958:	e1a00003 	mov	r0, r3
    d95c:	e59f10ac 	ldr	r1, [pc, #172]	; da10 <cyg_start+0x488>
    d960:	e1a0e00f 	mov	lr, pc
    d964:	e12fff12 	bx	r2
    d968:	e59f20a4 	ldr	r2, [pc, #164]	; da14 <cyg_start+0x48c>
    d96c:	e3a03000 	mov	r3, #0
    d970:	e5823000 	str	r3, [r2]
    d974:	ea000004 	b	d98c <cyg_start+0x404>
    d978:	e59f3090 	ldr	r3, [pc, #144]	; da10 <cyg_start+0x488>
    d97c:	e5933000 	ldr	r3, [r3]
    d980:	e59f009c 	ldr	r0, [pc, #156]	; da24 <cyg_start+0x49c>
    d984:	e1a01003 	mov	r1, r3
    d988:	ebfffcfb 	bl	cd7c <diag_printf>
    d98c:	e51b3038 	ldr	r3, [fp, #-56]	; 0xffffffc8
    d990:	e5d33000 	ldrb	r3, [r3]
    d994:	e3530000 	cmp	r3, #0
    d998:	1affffd5 	bne	d8f4 <cyg_start+0x36c>
    d99c:	e3a03001 	mov	r3, #1
    d9a0:	e50b3030 	str	r3, [fp, #-48]	; 0xffffffd0
    d9a4:	eaffff50 	b	d6ec <cyg_start+0x164>
    d9a8:	81000184 	.word	0x81000184
    d9ac:	40000050 	.word	0x40000050
    d9b0:	0000dd08 	.word	0x0000dd08
    d9b4:	0000d518 	.word	0x0000d518
    d9b8:	810056d4 	.word	0x810056d4
    d9bc:	8100572c 	.word	0x8100572c
    d9c0:	81005728 	.word	0x81005728
    d9c4:	810056dc 	.word	0x810056dc
    d9c8:	8100573c 	.word	0x8100573c
    d9cc:	81005750 	.word	0x81005750
    d9d0:	81005740 	.word	0x81005740
    d9d4:	810056d8 	.word	0x810056d8
    d9d8:	81005730 	.word	0x81005730
    d9dc:	810004f8 	.word	0x810004f8
    d9e0:	810004f8 	.word	0x810004f8
    d9e4:	81005734 	.word	0x81005734
    d9e8:	00015ed0 	.word	0x00015ed0
    d9ec:	8100574c 	.word	0x8100574c
    d9f0:	81003285 	.word	0x81003285
    d9f4:	81005744 	.word	0x81005744
    d9f8:	00005360 	.word	0x00005360
    d9fc:	0000dcbc 	.word	0x0000dcbc
    da00:	81003388 	.word	0x81003388
    da04:	00015edc 	.word	0x00015edc
    da08:	81003287 	.word	0x81003287
    da0c:	81005724 	.word	0x81005724
    da10:	810056e0 	.word	0x810056e0
    da14:	810031c0 	.word	0x810031c0
    da18:	0000d560 	.word	0x0000d560
    da1c:	81003390 	.word	0x81003390
    da20:	00015ee0 	.word	0x00015ee0
    da24:	00015f0c 	.word	0x00015f0c

0000da28 <__call_vv_CYGNUM_CALL_IF_CONSOLE_PROCS>:
    da28:	e1a0c00d 	mov	ip, sp
    da2c:	e92dd800 	push	{fp, ip, lr, pc}
    da30:	e24cb004 	sub	fp, ip, #4
    da34:	e59f3010 	ldr	r3, [pc, #16]	; da4c <__call_vv_CYGNUM_CALL_IF_CONSOLE_PROCS+0x24>
    da38:	e5933014 	ldr	r3, [r3, #20]
    da3c:	e1a00003 	mov	r0, r3
    da40:	e24bd00c 	sub	sp, fp, #12
    da44:	e89d6800 	ldm	sp, {fp, sp, lr}
    da48:	e12fff1e 	bx	lr
    da4c:	40000050 	.word	0x40000050

0000da50 <__call_vv_CYGNUM_CALL_IF_SET_DEBUG_COMM>:
    da50:	e1a0c00d 	mov	ip, sp
    da54:	e92dd800 	push	{fp, ip, lr, pc}
    da58:	e24cb004 	sub	fp, ip, #4
    da5c:	e24dd010 	sub	sp, sp, #16
    da60:	e50b0018 	str	r0, [fp, #-24]	; 0xffffffe8
    da64:	e59f3028 	ldr	r3, [pc, #40]	; da94 <__call_vv_CYGNUM_CALL_IF_SET_DEBUG_COMM+0x44>
    da68:	e5933030 	ldr	r3, [r3, #48]	; 0x30
    da6c:	e51b0018 	ldr	r0, [fp, #-24]	; 0xffffffe8
    da70:	e1a0e00f 	mov	lr, pc
    da74:	e12fff13 	bx	r3
    da78:	e1a03000 	mov	r3, r0
    da7c:	e50b3010 	str	r3, [fp, #-16]
    da80:	e51b3010 	ldr	r3, [fp, #-16]
    da84:	e1a00003 	mov	r0, r3
    da88:	e24bd00c 	sub	sp, fp, #12
    da8c:	e89d6800 	ldm	sp, {fp, sp, lr}
    da90:	e12fff1e 	bx	lr
    da94:	40000050 	.word	0x40000050

0000da98 <__call_vv_CYGNUM_CALL_IF_SET_CONSOLE_COMM>:
    da98:	e1a0c00d 	mov	ip, sp
    da9c:	e92dd800 	push	{fp, ip, lr, pc}
    daa0:	e24cb004 	sub	fp, ip, #4
    daa4:	e24dd010 	sub	sp, sp, #16
    daa8:	e50b0018 	str	r0, [fp, #-24]	; 0xffffffe8
    daac:	e59f3028 	ldr	r3, [pc, #40]	; dadc <__call_vv_CYGNUM_CALL_IF_SET_CONSOLE_COMM+0x44>
    dab0:	e5933034 	ldr	r3, [r3, #52]	; 0x34
    dab4:	e51b0018 	ldr	r0, [fp, #-24]	; 0xffffffe8
    dab8:	e1a0e00f 	mov	lr, pc
    dabc:	e12fff13 	bx	r3
    dac0:	e1a03000 	mov	r3, r0
    dac4:	e50b3010 	str	r3, [fp, #-16]
    dac8:	e51b3010 	ldr	r3, [fp, #-16]
    dacc:	e1a00003 	mov	r0, r3
    dad0:	e24bd00c 	sub	sp, fp, #12
    dad4:	e89d6800 	ldm	sp, {fp, sp, lr}
    dad8:	e12fff1e 	bx	lr
    dadc:	40000050 	.word	0x40000050

0000dae0 <show_help>:
    dae0:	e1a0c00d 	mov	ip, sp
    dae4:	e92dd800 	push	{fp, ip, lr, pc}
    dae8:	e24cb004 	sub	fp, ip, #4
    daec:	e24dd020 	sub	sp, sp, #32
    daf0:	e50b0018 	str	r0, [fp, #-24]	; 0xffffffe8
    daf4:	e50b101c 	str	r1, [fp, #-28]	; 0xffffffe4
    daf8:	e50b2020 	str	r2, [fp, #-32]	; 0xffffffe0
    dafc:	e50b3024 	str	r3, [fp, #-36]	; 0xffffffdc
    db00:	e3a03000 	mov	r3, #0
    db04:	e50b3010 	str	r3, [fp, #-16]
    db08:	e51b3020 	ldr	r3, [fp, #-32]	; 0xffffffe0
    db0c:	e3530000 	cmp	r3, #0
    db10:	0a000036 	beq	dbf0 <show_help+0x110>
    db14:	e51b0020 	ldr	r0, [fp, #-32]	; 0xffffffe0
    db18:	eb000f7d 	bl	11914 <__strlen>
    db1c:	e1a03000 	mov	r3, r0
    db20:	e50b3010 	str	r3, [fp, #-16]
    db24:	ea000031 	b	dbf0 <show_help+0x110>
    db28:	e3a03001 	mov	r3, #1
    db2c:	e50b3014 	str	r3, [fp, #-20]	; 0xffffffec
    db30:	e51b3020 	ldr	r3, [fp, #-32]	; 0xffffffe0
    db34:	e3530000 	cmp	r3, #0
    db38:	0a00000a 	beq	db68 <show_help+0x88>
    db3c:	e51b3018 	ldr	r3, [fp, #-24]	; 0xffffffe8
    db40:	e5933000 	ldr	r3, [r3]
    db44:	e51b2010 	ldr	r2, [fp, #-16]
    db48:	e51b0020 	ldr	r0, [fp, #-32]	; 0xffffffe0
    db4c:	e1a01003 	mov	r1, r3
    db50:	eb0002fb 	bl	e744 <strncasecmp>
    db54:	e1a03000 	mov	r3, r0
    db58:	e3530000 	cmp	r3, #0
    db5c:	0a000001 	beq	db68 <show_help+0x88>
    db60:	e3a03000 	mov	r3, #0
    db64:	e50b3014 	str	r3, [fp, #-20]	; 0xffffffec
    db68:	e51b3014 	ldr	r3, [fp, #-20]	; 0xffffffec
    db6c:	e3530000 	cmp	r3, #0
    db70:	0a00001b 	beq	dbe4 <show_help+0x104>
    db74:	e51b3018 	ldr	r3, [fp, #-24]	; 0xffffffe8
    db78:	e5932004 	ldr	r2, [r3, #4]
    db7c:	e51b3018 	ldr	r3, [fp, #-24]	; 0xffffffe8
    db80:	e593c000 	ldr	ip, [r3]
    db84:	e51b3018 	ldr	r3, [fp, #-24]	; 0xffffffe8
    db88:	e5933008 	ldr	r3, [r3, #8]
    db8c:	e58d3000 	str	r3, [sp]
    db90:	e59f0074 	ldr	r0, [pc, #116]	; dc0c <show_help+0x12c>
    db94:	e1a01002 	mov	r1, r2
    db98:	e51b2024 	ldr	r2, [fp, #-36]	; 0xffffffdc
    db9c:	e1a0300c 	mov	r3, ip
    dba0:	ebfffc75 	bl	cd7c <diag_printf>
    dba4:	e51b3018 	ldr	r3, [fp, #-24]	; 0xffffffe8
    dba8:	e5933010 	ldr	r3, [r3, #16]
    dbac:	e3530000 	cmp	r3, #0
    dbb0:	0a00000b 	beq	dbe4 <show_help+0x104>
    dbb4:	e51b3020 	ldr	r3, [fp, #-32]	; 0xffffffe0
    dbb8:	e3530000 	cmp	r3, #0
    dbbc:	0a000008 	beq	dbe4 <show_help+0x104>
    dbc0:	e51b3018 	ldr	r3, [fp, #-24]	; 0xffffffe8
    dbc4:	e5932010 	ldr	r2, [r3, #16]
    dbc8:	e51b3018 	ldr	r3, [fp, #-24]	; 0xffffffe8
    dbcc:	e5931014 	ldr	r1, [r3, #20]
    dbd0:	e51b3018 	ldr	r3, [fp, #-24]	; 0xffffffe8
    dbd4:	e5933000 	ldr	r3, [r3]
    dbd8:	e1a00002 	mov	r0, r2
    dbdc:	e3a02000 	mov	r2, #0
    dbe0:	ebffffbe 	bl	dae0 <show_help>
    dbe4:	e51b3018 	ldr	r3, [fp, #-24]	; 0xffffffe8
    dbe8:	e2833018 	add	r3, r3, #24
    dbec:	e50b3018 	str	r3, [fp, #-24]	; 0xffffffe8
    dbf0:	e51b2018 	ldr	r2, [fp, #-24]	; 0xffffffe8
    dbf4:	e51b301c 	ldr	r3, [fp, #-28]	; 0xffffffe4
    dbf8:	e1520003 	cmp	r2, r3
    dbfc:	1affffc9 	bne	db28 <show_help+0x48>
    dc00:	e24bd00c 	sub	sp, fp, #12
    dc04:	e89d6800 	ldm	sp, {fp, sp, lr}
    dc08:	e12fff1e 	bx	lr
    dc0c:	00015f30 	.word	0x00015f30

0000dc10 <do_help>:
    dc10:	e1a0c00d 	mov	ip, sp
    dc14:	e92dd800 	push	{fp, ip, lr, pc}
    dc18:	e24cb004 	sub	fp, ip, #4
    dc1c:	e24dd020 	sub	sp, sp, #32
    dc20:	e50b0018 	str	r0, [fp, #-24]	; 0xffffffe8
    dc24:	e50b101c 	str	r1, [fp, #-28]	; 0xffffffe4
    dc28:	e3a03000 	mov	r3, #0
    dc2c:	e50b3014 	str	r3, [fp, #-20]	; 0xffffffec
    dc30:	e3a03000 	mov	r3, #0
    dc34:	e58d3000 	str	r3, [sp]
    dc38:	e24b3014 	sub	r3, fp, #20
    dc3c:	e58d3004 	str	r3, [sp, #4]
    dc40:	e3a03001 	mov	r3, #1
    dc44:	e58d3008 	str	r3, [sp, #8]
    dc48:	e59f3058 	ldr	r3, [pc, #88]	; dca8 <do_help+0x98>
    dc4c:	e58d300c 	str	r3, [sp, #12]
    dc50:	e51b0018 	ldr	r0, [fp, #-24]	; 0xffffffe8
    dc54:	e51b101c 	ldr	r1, [fp, #-28]	; 0xffffffe4
    dc58:	e3a02001 	mov	r2, #1
    dc5c:	e3a03000 	mov	r3, #0
    dc60:	eb000b0e 	bl	108a0 <scan_opts>
    dc64:	e1a03000 	mov	r3, r0
    dc68:	e3530000 	cmp	r3, #0
    dc6c:	1a000002 	bne	dc7c <do_help+0x6c>
    dc70:	e59f0034 	ldr	r0, [pc, #52]	; dcac <do_help+0x9c>
    dc74:	ebfffc40 	bl	cd7c <diag_printf>
    dc78:	ea000007 	b	dc9c <do_help+0x8c>
    dc7c:	e59f302c 	ldr	r3, [pc, #44]	; dcb0 <do_help+0xa0>
    dc80:	e50b3010 	str	r3, [fp, #-16]
    dc84:	e51b3014 	ldr	r3, [fp, #-20]	; 0xffffffec
    dc88:	e51b0010 	ldr	r0, [fp, #-16]
    dc8c:	e59f1020 	ldr	r1, [pc, #32]	; dcb4 <do_help+0xa4>
    dc90:	e1a02003 	mov	r2, r3
    dc94:	e59f301c 	ldr	r3, [pc, #28]	; dcb8 <do_help+0xa8>
    dc98:	ebffff90 	bl	dae0 <show_help>
    dc9c:	e24bd00c 	sub	sp, fp, #12
    dca0:	e89d6800 	ldm	sp, {fp, sp, lr}
    dca4:	e12fff1e 	bx	lr
    dca8:	00015f40 	.word	0x00015f40
    dcac:	00015f48 	.word	0x00015f48
    dcb0:	81000318 	.word	0x81000318
    dcb4:	810004f8 	.word	0x810004f8
    dcb8:	00015c08 	.word	0x00015c08

0000dcbc <trampoline>:
    dcbc:	e1a0c00d 	mov	ip, sp
    dcc0:	e92dd810 	push	{r4, fp, ip, lr, pc}
    dcc4:	e24cb004 	sub	fp, ip, #4
    dcc8:	e24dd014 	sub	sp, sp, #20
    dccc:	e50b0020 	str	r0, [fp, #-32]	; 0xffffffe0
    dcd0:	e51b3020 	ldr	r3, [fp, #-32]	; 0xffffffe0
    dcd4:	e50b301c 	str	r3, [fp, #-28]	; 0xffffffe4
    dcd8:	e10f3000 	mrs	r3, CPSR
    dcdc:	e10f4000 	mrs	r4, CPSR
    dce0:	e38440c0 	orr	r4, r4, #192	; 0xc0
    dce4:	e129f004 	msr	CPSR_fc, r4
    dce8:	e50b3018 	str	r3, [fp, #-24]	; 0xffffffe8
    dcec:	e51b301c 	ldr	r3, [fp, #-28]	; 0xffffffe4
    dcf0:	e1a0e00f 	mov	lr, pc
    dcf4:	e12fff13 	bx	r3
    dcf8:	e59f3004 	ldr	r3, [pc, #4]	; dd04 <trampoline+0x48>
    dcfc:	e1a00003 	mov	r0, r3
    dd00:	eb001070 	bl	11ec8 <hal_thread_load_context>
    dd04:	81003388 	.word	0x81003388

0000dd08 <return_to_redboot>:
    dd08:	e1a0c00d 	mov	ip, sp
    dd0c:	e92dd800 	push	{fp, ip, lr, pc}
    dd10:	e24cb004 	sub	fp, ip, #4
    dd14:	e24dd008 	sub	sp, sp, #8
    dd18:	e50b0010 	str	r0, [fp, #-16]
    dd1c:	e59f3010 	ldr	r3, [pc, #16]	; dd34 <return_to_redboot+0x2c>
    dd20:	e51b2010 	ldr	r2, [fp, #-16]
    dd24:	e5832000 	str	r2, [r3]
    dd28:	e59f3008 	ldr	r3, [pc, #8]	; dd38 <return_to_redboot+0x30>
    dd2c:	e1a00003 	mov	r0, r3
    dd30:	eb001064 	bl	11ec8 <hal_thread_load_context>
    dd34:	8100338c 	.word	0x8100338c
    dd38:	81003388 	.word	0x81003388

0000dd3c <do_go>:
    dd3c:	e1a0c00d 	mov	ip, sp
    dd40:	e92dd810 	push	{r4, fp, ip, lr, pc}
    dd44:	e24cb004 	sub	fp, ip, #4
    dd48:	e24dd0b4 	sub	sp, sp, #180	; 0xb4
    dd4c:	e50b00a8 	str	r0, [fp, #-168]	; 0xffffff58
    dd50:	e50b10ac 	str	r1, [fp, #-172]	; 0xffffff54
    dd54:	e3a03000 	mov	r3, #0
    dd58:	e50b3050 	str	r3, [fp, #-80]	; 0xffffffb0
    dd5c:	e59f2338 	ldr	r2, [pc, #824]	; e09c <do_go+0x360>
    dd60:	e3a03000 	mov	r3, #0
    dd64:	e5823000 	str	r3, [r2]
    dd68:	e59f3330 	ldr	r3, [pc, #816]	; e0a0 <do_go+0x364>
    dd6c:	e5933000 	ldr	r3, [r3]
    dd70:	e50b3044 	str	r3, [fp, #-68]	; 0xffffffbc
    dd74:	e24b2098 	sub	r2, fp, #152	; 0x98
    dd78:	e24b304c 	sub	r3, fp, #76	; 0x4c
    dd7c:	e58d3000 	str	r3, [sp]
    dd80:	e24b3048 	sub	r3, fp, #72	; 0x48
    dd84:	e58d3004 	str	r3, [sp, #4]
    dd88:	e59f3314 	ldr	r3, [pc, #788]	; e0a4 <do_go+0x368>
    dd8c:	e58d3008 	str	r3, [sp, #8]
    dd90:	e1a00002 	mov	r0, r2
    dd94:	e3a01077 	mov	r1, #119	; 0x77
    dd98:	e3a02001 	mov	r2, #1
    dd9c:	e3a03000 	mov	r3, #0
    dda0:	eb000aa0 	bl	10828 <init_opts>
    dda4:	e24b3098 	sub	r3, fp, #152	; 0x98
    dda8:	e2832018 	add	r2, r3, #24
    ddac:	e24b3050 	sub	r3, fp, #80	; 0x50
    ddb0:	e58d3000 	str	r3, [sp]
    ddb4:	e3a03000 	mov	r3, #0
    ddb8:	e58d3004 	str	r3, [sp, #4]
    ddbc:	e59f32e4 	ldr	r3, [pc, #740]	; e0a8 <do_go+0x36c>
    ddc0:	e58d3008 	str	r3, [sp, #8]
    ddc4:	e1a00002 	mov	r0, r2
    ddc8:	e3a01063 	mov	r1, #99	; 0x63
    ddcc:	e3a02000 	mov	r2, #0
    ddd0:	e3a03002 	mov	r3, #2
    ddd4:	eb000a93 	bl	10828 <init_opts>
    ddd8:	e3a03002 	mov	r3, #2
    dddc:	e50b3038 	str	r3, [fp, #-56]	; 0xffffffc8
    dde0:	e24bc098 	sub	ip, fp, #152	; 0x98
    dde4:	e51b3038 	ldr	r3, [fp, #-56]	; 0xffffffc8
    dde8:	e58d3000 	str	r3, [sp]
    ddec:	e24b3044 	sub	r3, fp, #68	; 0x44
    ddf0:	e58d3004 	str	r3, [sp, #4]
    ddf4:	e3a03000 	mov	r3, #0
    ddf8:	e58d3008 	str	r3, [sp, #8]
    ddfc:	e59f32a8 	ldr	r3, [pc, #680]	; e0ac <do_go+0x370>
    de00:	e58d300c 	str	r3, [sp, #12]
    de04:	e51b00a8 	ldr	r0, [fp, #-168]	; 0xffffff58
    de08:	e51b10ac 	ldr	r1, [fp, #-172]	; 0xffffff54
    de0c:	e3a02001 	mov	r2, #1
    de10:	e1a0300c 	mov	r3, ip
    de14:	eb000aa1 	bl	108a0 <scan_opts>
    de18:	e1a03000 	mov	r3, r0
    de1c:	e3530000 	cmp	r3, #0
    de20:	0a00009a 	beq	e090 <do_go+0x354>
    de24:	e51b3044 	ldr	r3, [fp, #-68]	; 0xffffffbc
    de28:	e3730001 	cmn	r3, #1
    de2c:	1a000002 	bne	de3c <do_go+0x100>
    de30:	e59f0278 	ldr	r0, [pc, #632]	; e0b0 <do_go+0x374>
    de34:	eb000a61 	bl	107c0 <err_printf>
    de38:	ea000094 	b	e090 <do_go+0x354>
    de3c:	e51b3048 	ldr	r3, [fp, #-72]	; 0xffffffb8
    de40:	e3530000 	cmp	r3, #0
    de44:	0a00001d 	beq	dec0 <do_go+0x184>
    de48:	e51b104c 	ldr	r1, [fp, #-76]	; 0xffffffb4
    de4c:	e1a03001 	mov	r3, r1
    de50:	e1a02103 	lsl	r2, r3, #2
    de54:	e1a03282 	lsl	r3, r2, #5
    de58:	e0623003 	rsb	r3, r2, r3
    de5c:	e0833001 	add	r3, r3, r1
    de60:	e1a03183 	lsl	r3, r3, #3
    de64:	e50b3028 	str	r3, [fp, #-40]	; 0xffffffd8
    de68:	e51b3044 	ldr	r3, [fp, #-68]	; 0xffffffbc
    de6c:	e51b204c 	ldr	r2, [fp, #-76]	; 0xffffffb4
    de70:	e59f023c 	ldr	r0, [pc, #572]	; e0b4 <do_go+0x378>
    de74:	e1a01003 	mov	r1, r3
    de78:	ebfffbbf 	bl	cd7c <diag_printf>
    de7c:	ea00000c 	b	deb4 <do_go+0x178>
    de80:	e24b30a0 	sub	r3, fp, #160	; 0xa0
    de84:	e1a00003 	mov	r0, r3
    de88:	e3a01008 	mov	r1, #8
    de8c:	e3a0200a 	mov	r2, #10
    de90:	eb0007c5 	bl	fdac <_rb_gets>
    de94:	e1a03000 	mov	r3, r0
    de98:	e50b3030 	str	r3, [fp, #-48]	; 0xffffffd0
    de9c:	e51b3030 	ldr	r3, [fp, #-48]	; 0xffffffd0
    dea0:	e3730002 	cmn	r3, #2
    dea4:	0a000079 	beq	e090 <do_go+0x354>
    dea8:	e51b3028 	ldr	r3, [fp, #-40]	; 0xffffffd8
    deac:	e243300a 	sub	r3, r3, #10
    deb0:	e50b3028 	str	r3, [fp, #-40]	; 0xffffffd8
    deb4:	e51b3028 	ldr	r3, [fp, #-40]	; 0xffffffd8
    deb8:	e3530009 	cmp	r3, #9
    debc:	caffffef 	bgt	de80 <do_go+0x144>
    dec0:	e3e00000 	mvn	r0, #0
    dec4:	ebfffef3 	bl	da98 <__call_vv_CYGNUM_CALL_IF_SET_CONSOLE_COMM>
    dec8:	e1a03000 	mov	r3, r0
    decc:	e50b303c 	str	r3, [fp, #-60]	; 0xffffffc4
    ded0:	e3a03000 	mov	r3, #0
    ded4:	e50b3040 	str	r3, [fp, #-64]	; 0xffffffc0
    ded8:	ea000012 	b	df28 <do_go+0x1ec>
    dedc:	e51b0040 	ldr	r0, [fp, #-64]	; 0xffffffc0
    dee0:	ebfffeec 	bl	da98 <__call_vv_CYGNUM_CALL_IF_SET_CONSOLE_COMM>
    dee4:	ebfffecf 	bl	da28 <__call_vv_CYGNUM_CALL_IF_CONSOLE_PROCS>
    dee8:	e1a03000 	mov	r3, r0
    deec:	e50b302c 	str	r3, [fp, #-44]	; 0xffffffd4
    def0:	e51b302c 	ldr	r3, [fp, #-44]	; 0xffffffd4
    def4:	e5933014 	ldr	r3, [r3, #20]
    def8:	e1a02003 	mov	r2, r3
    defc:	e51b302c 	ldr	r3, [fp, #-44]	; 0xffffffd4
    df00:	e5933000 	ldr	r3, [r3]
    df04:	e1a00003 	mov	r0, r3
    df08:	e3a01004 	mov	r1, #4
    df0c:	e1a0e00f 	mov	lr, pc
    df10:	e12fff12 	bx	r2
    df14:	e1a03000 	mov	r3, r0
    df18:	e50b3024 	str	r3, [fp, #-36]	; 0xffffffdc
    df1c:	e51b3040 	ldr	r3, [fp, #-64]	; 0xffffffc0
    df20:	e2833001 	add	r3, r3, #1
    df24:	e50b3040 	str	r3, [fp, #-64]	; 0xffffffc0
    df28:	e51b3040 	ldr	r3, [fp, #-64]	; 0xffffffc0
    df2c:	e3530000 	cmp	r3, #0
    df30:	daffffe9 	ble	dedc <do_go+0x1a0>
    df34:	e51b003c 	ldr	r0, [fp, #-60]	; 0xffffffc4
    df38:	ebfffed6 	bl	da98 <__call_vv_CYGNUM_CALL_IF_SET_CONSOLE_COMM>
    df3c:	ebfffeb9 	bl	da28 <__call_vv_CYGNUM_CALL_IF_CONSOLE_PROCS>
    df40:	e1a03000 	mov	r3, r0
    df44:	e50b302c 	str	r3, [fp, #-44]	; 0xffffffd4
    df48:	e51b302c 	ldr	r3, [fp, #-44]	; 0xffffffd4
    df4c:	e5933014 	ldr	r3, [r3, #20]
    df50:	e1a02003 	mov	r2, r3
    df54:	e51b302c 	ldr	r3, [fp, #-44]	; 0xffffffd4
    df58:	e5933000 	ldr	r3, [r3]
    df5c:	e1a00003 	mov	r0, r3
    df60:	e3a01009 	mov	r1, #9
    df64:	e1a0e00f 	mov	lr, pc
    df68:	e12fff12 	bx	r2
    df6c:	e1a03000 	mov	r3, r0
    df70:	e50b3020 	str	r3, [fp, #-32]	; 0xffffffe0
    df74:	e10f3000 	mrs	r3, CPSR
    df78:	e10f4000 	mrs	r4, CPSR
    df7c:	e38440c0 	orr	r4, r4, #192	; 0xc0
    df80:	e129f004 	msr	CPSR_fc, r4
    df84:	e50b3034 	str	r3, [fp, #-52]	; 0xffffffcc
    df88:	e59f3128 	ldr	r3, [pc, #296]	; e0b8 <do_go+0x37c>
    df8c:	e5933000 	ldr	r3, [r3]
    df90:	e50b30a4 	str	r3, [fp, #-164]	; 0xffffff5c
    df94:	e51b30a4 	ldr	r3, [fp, #-164]	; 0xffffff5c
    df98:	e3c3300f 	bic	r3, r3, #15
    df9c:	e50b30b4 	str	r3, [fp, #-180]	; 0xffffff4c
    dfa0:	e51b10b4 	ldr	r1, [fp, #-180]	; 0xffffff4c
    dfa4:	e2413050 	sub	r3, r1, #80	; 0x50
    dfa8:	e50b30b0 	str	r3, [fp, #-176]	; 0xffffff50
    dfac:	e3a03000 	mov	r3, #0
    dfb0:	e50b301c 	str	r3, [fp, #-28]	; 0xffffffe4
    dfb4:	ea000006 	b	dfd4 <do_go+0x298>
    dfb8:	e51b201c 	ldr	r2, [fp, #-28]	; 0xffffffe4
    dfbc:	e51b301c 	ldr	r3, [fp, #-28]	; 0xffffffe4
    dfc0:	e51b10b0 	ldr	r1, [fp, #-176]	; 0xffffff50
    dfc4:	e7813102 	str	r3, [r1, r2, lsl #2]
    dfc8:	e51b301c 	ldr	r3, [fp, #-28]	; 0xffffffe4
    dfcc:	e2833001 	add	r3, r3, #1
    dfd0:	e50b301c 	str	r3, [fp, #-28]	; 0xffffffe4
    dfd4:	e51b301c 	ldr	r3, [fp, #-28]	; 0xffffffe4
    dfd8:	e353000a 	cmp	r3, #10
    dfdc:	dafffff5 	ble	dfb8 <do_go+0x27c>
    dfe0:	e51b3044 	ldr	r3, [fp, #-68]	; 0xffffffbc
    dfe4:	e51b20b0 	ldr	r2, [fp, #-176]	; 0xffffff50
    dfe8:	e5823000 	str	r3, [r2]
    dfec:	e51b10b4 	ldr	r1, [fp, #-180]	; 0xffffff4c
    dff0:	e51b30b0 	ldr	r3, [fp, #-176]	; 0xffffff50
    dff4:	e5831034 	str	r1, [r3, #52]	; 0x34
    dff8:	e59f30bc 	ldr	r3, [pc, #188]	; e0bc <do_go+0x380>
    dffc:	e51b20b0 	ldr	r2, [fp, #-176]	; 0xffffff50
    e000:	e5823038 	str	r3, [r2, #56]	; 0x38
    e004:	e59f30b0 	ldr	r3, [pc, #176]	; e0bc <do_go+0x380>
    e008:	e51b10b0 	ldr	r1, [fp, #-176]	; 0xffffff50
    e00c:	e581303c 	str	r3, [r1, #60]	; 0x3c
    e010:	e3a03013 	mov	r3, #19
    e014:	e51b20b0 	ldr	r2, [fp, #-176]	; 0xffffff50
    e018:	e5823040 	str	r3, [r2, #64]	; 0x40
    e01c:	e51b30b0 	ldr	r3, [fp, #-176]	; 0xffffff50
    e020:	e50b30a4 	str	r3, [fp, #-164]	; 0xffffff5c
    e024:	e24b30a4 	sub	r3, fp, #164	; 0xa4
    e028:	e59f2090 	ldr	r2, [pc, #144]	; e0c0 <do_go+0x384>
    e02c:	e1a00003 	mov	r0, r3
    e030:	e1a01002 	mov	r1, r2
    e034:	eb000f9c 	bl	11eac <hal_thread_switch_context>
    e038:	e51b302c 	ldr	r3, [fp, #-44]	; 0xffffffd4
    e03c:	e5933014 	ldr	r3, [r3, #20]
    e040:	e1a02003 	mov	r2, r3
    e044:	e51b302c 	ldr	r3, [fp, #-44]	; 0xffffffd4
    e048:	e5933000 	ldr	r3, [r3]
    e04c:	e1a00003 	mov	r0, r3
    e050:	e3a0100a 	mov	r1, #10
    e054:	e1a0e00f 	mov	lr, pc
    e058:	e12fff12 	bx	r2
    e05c:	e1a03000 	mov	r3, r0
    e060:	e50b3018 	str	r3, [fp, #-24]	; 0xffffffe8
    e064:	e51b2034 	ldr	r2, [fp, #-52]	; 0xffffffcc
    e068:	e10f3000 	mrs	r3, CPSR
    e06c:	e20240c0 	and	r4, r2, #192	; 0xc0
    e070:	e3c330c0 	bic	r3, r3, #192	; 0xc0
    e074:	e1833004 	orr	r3, r3, r4
    e078:	e129f003 	msr	CPSR_fc, r3
    e07c:	e59f3040 	ldr	r3, [pc, #64]	; e0c4 <do_go+0x388>
    e080:	e5933000 	ldr	r3, [r3]
    e084:	e59f003c 	ldr	r0, [pc, #60]	; e0c8 <do_go+0x38c>
    e088:	e1a01003 	mov	r1, r3
    e08c:	ebfffb3a 	bl	cd7c <diag_printf>
    e090:	e24bd010 	sub	sp, fp, #16
    e094:	e89d6810 	ldm	sp, {r4, fp, sp, lr}
    e098:	e12fff1e 	bx	lr
    e09c:	810031c0 	.word	0x810031c0
    e0a0:	81005730 	.word	0x81005730
    e0a4:	00015f5c 	.word	0x00015f5c
    e0a8:	00015f6c 	.word	0x00015f6c
    e0ac:	00015f84 	.word	0x00015f84
    e0b0:	00015f98 	.word	0x00015f98
    e0b4:	00015fb8 	.word	0x00015fb8
    e0b8:	81005740 	.word	0x81005740
    e0bc:	0000dcbc 	.word	0x0000dcbc
    e0c0:	81003388 	.word	0x81003388
    e0c4:	8100338c 	.word	0x8100338c
    e0c8:	00015ffc 	.word	0x00015ffc

0000e0cc <do_reset>:
    e0cc:	e1a0c00d 	mov	ip, sp
    e0d0:	e92dd800 	push	{fp, ip, lr, pc}
    e0d4:	e24cb004 	sub	fp, ip, #4
    e0d8:	e24dd008 	sub	sp, sp, #8
    e0dc:	e50b0010 	str	r0, [fp, #-16]
    e0e0:	e50b1014 	str	r1, [fp, #-20]	; 0xffffffec
    e0e4:	e59f002c 	ldr	r0, [pc, #44]	; e118 <do_reset+0x4c>
    e0e8:	ebfffb23 	bl	cd7c <diag_printf>
    e0ec:	e3a00bc3 	mov	r0, #199680	; 0x30c00
    e0f0:	e2800d05 	add	r0, r0, #320	; 0x140
    e0f4:	eb00000a 	bl	e124 <__call_vv_CYGNUM_CALL_IF_DELAY_US>
    e0f8:	e59f001c 	ldr	r0, [pc, #28]	; e11c <do_reset+0x50>
    e0fc:	ebfffb1e 	bl	cd7c <diag_printf>
    e100:	eb000015 	bl	e15c <__call_vv_CYGNUM_CALL_IF_RESET>
    e104:	e59f0014 	ldr	r0, [pc, #20]	; e120 <do_reset+0x54>
    e108:	ebfffb1b 	bl	cd7c <diag_printf>
    e10c:	e24bd00c 	sub	sp, fp, #12
    e110:	e89d6800 	ldm	sp, {fp, sp, lr}
    e114:	e12fff1e 	bx	lr
    e118:	00016020 	.word	0x00016020
    e11c:	00016030 	.word	0x00016030
    e120:	00016034 	.word	0x00016034

0000e124 <__call_vv_CYGNUM_CALL_IF_DELAY_US>:
    e124:	e1a0c00d 	mov	ip, sp
    e128:	e92dd800 	push	{fp, ip, lr, pc}
    e12c:	e24cb004 	sub	fp, ip, #4
    e130:	e24dd008 	sub	sp, sp, #8
    e134:	e50b0010 	str	r0, [fp, #-16]
    e138:	e59f3018 	ldr	r3, [pc, #24]	; e158 <__call_vv_CYGNUM_CALL_IF_DELAY_US+0x34>
    e13c:	e5933048 	ldr	r3, [r3, #72]	; 0x48
    e140:	e51b0010 	ldr	r0, [fp, #-16]
    e144:	e1a0e00f 	mov	lr, pc
    e148:	e12fff13 	bx	r3
    e14c:	e24bd00c 	sub	sp, fp, #12
    e150:	e89d6800 	ldm	sp, {fp, sp, lr}
    e154:	e12fff1e 	bx	lr
    e158:	40000050 	.word	0x40000050

0000e15c <__call_vv_CYGNUM_CALL_IF_RESET>:
    e15c:	e1a0c00d 	mov	ip, sp
    e160:	e92dd800 	push	{fp, ip, lr, pc}
    e164:	e24cb004 	sub	fp, ip, #4
    e168:	e59f3014 	ldr	r3, [pc, #20]	; e184 <__call_vv_CYGNUM_CALL_IF_RESET+0x28>
    e16c:	e5933040 	ldr	r3, [r3, #64]	; 0x40
    e170:	e1a0e00f 	mov	lr, pc
    e174:	e12fff13 	bx	r3
    e178:	e24bd00c 	sub	sp, fp, #12
    e17c:	e89d6800 	ldm	sp, {fp, sp, lr}
    e180:	e12fff1e 	bx	lr
    e184:	40000050 	.word	0x40000050

0000e188 <set_comm_baud_rate>:
    e188:	e1a0c00d 	mov	ip, sp
    e18c:	e92dd800 	push	{fp, ip, lr, pc}
    e190:	e24cb004 	sub	fp, ip, #4
    e194:	e24dd020 	sub	sp, sp, #32
    e198:	e50b0020 	str	r0, [fp, #-32]	; 0xffffffe0
    e19c:	e50b1024 	str	r1, [fp, #-36]	; 0xffffffdc
    e1a0:	e51b3020 	ldr	r3, [fp, #-32]	; 0xffffffe0
    e1a4:	e5933014 	ldr	r3, [r3, #20]
    e1a8:	e1a02003 	mov	r2, r3
    e1ac:	e51b3020 	ldr	r3, [fp, #-32]	; 0xffffffe0
    e1b0:	e5933000 	ldr	r3, [r3]
    e1b4:	e1a00003 	mov	r0, r3
    e1b8:	e3a01001 	mov	r1, #1
    e1bc:	e1a0e00f 	mov	lr, pc
    e1c0:	e12fff12 	bx	r2
    e1c4:	e1a03000 	mov	r3, r0
    e1c8:	e50b3014 	str	r3, [fp, #-20]	; 0xffffffec
    e1cc:	e51b3014 	ldr	r3, [fp, #-20]	; 0xffffffec
    e1d0:	e50b3018 	str	r3, [fp, #-24]	; 0xffffffe8
    e1d4:	e51b2024 	ldr	r2, [fp, #-36]	; 0xffffffdc
    e1d8:	e51b3018 	ldr	r3, [fp, #-24]	; 0xffffffe8
    e1dc:	e1520003 	cmp	r2, r3
    e1e0:	0a00000e 	beq	e220 <set_comm_baud_rate+0x98>
    e1e4:	e51b3020 	ldr	r3, [fp, #-32]	; 0xffffffe0
    e1e8:	e5933014 	ldr	r3, [r3, #20]
    e1ec:	e1a0c003 	mov	ip, r3
    e1f0:	e51b3020 	ldr	r3, [fp, #-32]	; 0xffffffe0
    e1f4:	e5933000 	ldr	r3, [r3]
    e1f8:	e1a00003 	mov	r0, r3
    e1fc:	e3a01000 	mov	r1, #0
    e200:	e51b2024 	ldr	r2, [fp, #-36]	; 0xffffffdc
    e204:	e1a0e00f 	mov	lr, pc
    e208:	e12fff1c 	bx	ip
    e20c:	e1a03000 	mov	r3, r0
    e210:	e50b3010 	str	r3, [fp, #-16]
    e214:	e51b3010 	ldr	r3, [fp, #-16]
    e218:	e50b3028 	str	r3, [fp, #-40]	; 0xffffffd8
    e21c:	ea000001 	b	e228 <set_comm_baud_rate+0xa0>
    e220:	e3a03000 	mov	r3, #0
    e224:	e50b3028 	str	r3, [fp, #-40]	; 0xffffffd8
    e228:	e51b3028 	ldr	r3, [fp, #-40]	; 0xffffffd8
    e22c:	e1a00003 	mov	r0, r3
    e230:	e24bd00c 	sub	sp, fp, #12
    e234:	e89d6800 	ldm	sp, {fp, sp, lr}
    e238:	e12fff1e 	bx	lr

0000e23c <set_console_baud_rate>:
    e23c:	e1a0c00d 	mov	ip, sp
    e240:	e92dd800 	push	{fp, ip, lr, pc}
    e244:	e24cb004 	sub	fp, ip, #4
    e248:	e24dd018 	sub	sp, sp, #24
    e24c:	e50b0020 	str	r0, [fp, #-32]	; 0xffffffe0
    e250:	e3e03000 	mvn	r3, #0
    e254:	e50b3018 	str	r3, [fp, #-24]	; 0xffffffe8
    e258:	e59f30c0 	ldr	r3, [pc, #192]	; e320 <set_console_baud_rate+0xe4>
    e25c:	e5933000 	ldr	r3, [r3]
    e260:	e3530000 	cmp	r3, #0
    e264:	1a00001b 	bne	e2d8 <set_console_baud_rate+0x9c>
    e268:	e3e00000 	mvn	r0, #0
    e26c:	ebfffe09 	bl	da98 <__call_vv_CYGNUM_CALL_IF_SET_CONSOLE_COMM>
    e270:	e1a03000 	mov	r3, r0
    e274:	e50b3014 	str	r3, [fp, #-20]	; 0xffffffec
    e278:	e3a03000 	mov	r3, #0
    e27c:	e50b3010 	str	r3, [fp, #-16]
    e280:	ea00000e 	b	e2c0 <set_console_baud_rate+0x84>
    e284:	e51b0010 	ldr	r0, [fp, #-16]
    e288:	ebfffe02 	bl	da98 <__call_vv_CYGNUM_CALL_IF_SET_CONSOLE_COMM>
    e28c:	ebfffde5 	bl	da28 <__call_vv_CYGNUM_CALL_IF_CONSOLE_PROCS>
    e290:	e1a03000 	mov	r3, r0
    e294:	e1a00003 	mov	r0, r3
    e298:	e51b1020 	ldr	r1, [fp, #-32]	; 0xffffffe0
    e29c:	ebffffb9 	bl	e188 <set_comm_baud_rate>
    e2a0:	e1a03000 	mov	r3, r0
    e2a4:	e50b3018 	str	r3, [fp, #-24]	; 0xffffffe8
    e2a8:	e51b3018 	ldr	r3, [fp, #-24]	; 0xffffffe8
    e2ac:	e3530000 	cmp	r3, #0
    e2b0:	ba000005 	blt	e2cc <set_console_baud_rate+0x90>
    e2b4:	e51b3010 	ldr	r3, [fp, #-16]
    e2b8:	e2833001 	add	r3, r3, #1
    e2bc:	e50b3010 	str	r3, [fp, #-16]
    e2c0:	e51b3010 	ldr	r3, [fp, #-16]
    e2c4:	e3530000 	cmp	r3, #0
    e2c8:	daffffed 	ble	e284 <set_console_baud_rate+0x48>
    e2cc:	e51b0014 	ldr	r0, [fp, #-20]	; 0xffffffec
    e2d0:	ebfffdf0 	bl	da98 <__call_vv_CYGNUM_CALL_IF_SET_CONSOLE_COMM>
    e2d4:	ea000006 	b	e2f4 <set_console_baud_rate+0xb8>
    e2d8:	ebfffdd2 	bl	da28 <__call_vv_CYGNUM_CALL_IF_CONSOLE_PROCS>
    e2dc:	e1a03000 	mov	r3, r0
    e2e0:	e1a00003 	mov	r0, r3
    e2e4:	e51b1020 	ldr	r1, [fp, #-32]	; 0xffffffe0
    e2e8:	ebffffa6 	bl	e188 <set_comm_baud_rate>
    e2ec:	e1a03000 	mov	r3, r0
    e2f0:	e50b3018 	str	r3, [fp, #-24]	; 0xffffffe8
    e2f4:	e51b3018 	ldr	r3, [fp, #-24]	; 0xffffffe8
    e2f8:	e3530000 	cmp	r3, #0
    e2fc:	aa000002 	bge	e30c <set_console_baud_rate+0xd0>
    e300:	e59f001c 	ldr	r0, [pc, #28]	; e324 <set_console_baud_rate+0xe8>
    e304:	e51b1020 	ldr	r1, [fp, #-32]	; 0xffffffe0
    e308:	ebfffa9b 	bl	cd7c <diag_printf>
    e30c:	e51b3018 	ldr	r3, [fp, #-24]	; 0xffffffe8
    e310:	e1a00003 	mov	r0, r3
    e314:	e24bd00c 	sub	sp, fp, #12
    e318:	e89d6800 	ldm	sp, {fp, sp, lr}
    e31c:	e12fff1e 	bx	lr
    e320:	810056d4 	.word	0x810056d4
    e324:	00016064 	.word	0x00016064

0000e328 <_sleep>:
    e328:	e1a0c00d 	mov	ip, sp
    e32c:	e92dd800 	push	{fp, ip, lr, pc}
    e330:	e24cb004 	sub	fp, ip, #4
    e334:	e24dd010 	sub	sp, sp, #16
    e338:	e50b0018 	str	r0, [fp, #-24]	; 0xffffffe8
    e33c:	e3a03000 	mov	r3, #0
    e340:	e50b3010 	str	r3, [fp, #-16]
    e344:	ea000004 	b	e35c <_sleep+0x34>
    e348:	e3a00ffa 	mov	r0, #1000	; 0x3e8
    e34c:	ebffff74 	bl	e124 <__call_vv_CYGNUM_CALL_IF_DELAY_US>
    e350:	e51b3010 	ldr	r3, [fp, #-16]
    e354:	e2833001 	add	r3, r3, #1
    e358:	e50b3010 	str	r3, [fp, #-16]
    e35c:	e51b2010 	ldr	r2, [fp, #-16]
    e360:	e51b3018 	ldr	r3, [fp, #-24]	; 0xffffffe8
    e364:	e1520003 	cmp	r2, r3
    e368:	bafffff6 	blt	e348 <_sleep+0x20>
    e36c:	e24bd00c 	sub	sp, fp, #12
    e370:	e89d6800 	ldm	sp, {fp, sp, lr}
    e374:	e12fff1e 	bx	lr

0000e378 <do_baud_rate>:
    e378:	e1a0c00d 	mov	ip, sp
    e37c:	e92dd800 	push	{fp, ip, lr, pc}
    e380:	e24cb004 	sub	fp, ip, #4
    e384:	e24dd050 	sub	sp, sp, #80	; 0x50
    e388:	e50b0048 	str	r0, [fp, #-72]	; 0xffffffb8
    e38c:	e50b104c 	str	r1, [fp, #-76]	; 0xffffffb4
    e390:	e24b2040 	sub	r2, fp, #64	; 0x40
    e394:	e24b3024 	sub	r3, fp, #36	; 0x24
    e398:	e58d3000 	str	r3, [sp]
    e39c:	e24b3028 	sub	r3, fp, #40	; 0x28
    e3a0:	e58d3004 	str	r3, [sp, #4]
    e3a4:	e59f31c0 	ldr	r3, [pc, #448]	; e56c <do_baud_rate+0x1f4>
    e3a8:	e58d3008 	str	r3, [sp, #8]
    e3ac:	e1a00002 	mov	r0, r2
    e3b0:	e3a01062 	mov	r1, #98	; 0x62
    e3b4:	e3a02001 	mov	r2, #1
    e3b8:	e3a03000 	mov	r3, #0
    e3bc:	eb000919 	bl	10828 <init_opts>
    e3c0:	e24bc040 	sub	ip, fp, #64	; 0x40
    e3c4:	e3a03001 	mov	r3, #1
    e3c8:	e58d3000 	str	r3, [sp]
    e3cc:	e3a03000 	mov	r3, #0
    e3d0:	e58d3004 	str	r3, [sp, #4]
    e3d4:	e3a03000 	mov	r3, #0
    e3d8:	e58d3008 	str	r3, [sp, #8]
    e3dc:	e59f318c 	ldr	r3, [pc, #396]	; e570 <do_baud_rate+0x1f8>
    e3e0:	e58d300c 	str	r3, [sp, #12]
    e3e4:	e51b0048 	ldr	r0, [fp, #-72]	; 0xffffffb8
    e3e8:	e51b104c 	ldr	r1, [fp, #-76]	; 0xffffffb4
    e3ec:	e3a02001 	mov	r2, #1
    e3f0:	e1a0300c 	mov	r3, ip
    e3f4:	eb000929 	bl	108a0 <scan_opts>
    e3f8:	e1a03000 	mov	r3, r0
    e3fc:	e3530000 	cmp	r3, #0
    e400:	0a000056 	beq	e560 <do_baud_rate+0x1e8>
    e404:	ebfffd87 	bl	da28 <__call_vv_CYGNUM_CALL_IF_CONSOLE_PROCS>
    e408:	e1a03000 	mov	r3, r0
    e40c:	e50b3018 	str	r3, [fp, #-24]	; 0xffffffe8
    e410:	e51b3028 	ldr	r3, [fp, #-40]	; 0xffffffd8
    e414:	e3530000 	cmp	r3, #0
    e418:	0a000038 	beq	e500 <do_baud_rate+0x188>
    e41c:	e51b3024 	ldr	r3, [fp, #-36]	; 0xffffffdc
    e420:	e59f014c 	ldr	r0, [pc, #332]	; e574 <do_baud_rate+0x1fc>
    e424:	e1a01003 	mov	r1, r3
    e428:	ebfffa53 	bl	cd7c <diag_printf>
    e42c:	e3a00f7d 	mov	r0, #500	; 0x1f4
    e430:	ebffffbc 	bl	e328 <_sleep>
    e434:	e51b3018 	ldr	r3, [fp, #-24]	; 0xffffffe8
    e438:	e5933014 	ldr	r3, [r3, #20]
    e43c:	e1a02003 	mov	r2, r3
    e440:	e51b3018 	ldr	r3, [fp, #-24]	; 0xffffffe8
    e444:	e5933000 	ldr	r3, [r3]
    e448:	e1a00003 	mov	r0, r3
    e44c:	e3a01001 	mov	r1, #1
    e450:	e1a0e00f 	mov	lr, pc
    e454:	e12fff12 	bx	r2
    e458:	e1a03000 	mov	r3, r0
    e45c:	e50b3014 	str	r3, [fp, #-20]	; 0xffffffec
    e460:	e51b3014 	ldr	r3, [fp, #-20]	; 0xffffffec
    e464:	e50b301c 	str	r3, [fp, #-28]	; 0xffffffe4
    e468:	e51b3024 	ldr	r3, [fp, #-36]	; 0xffffffdc
    e46c:	e1a00003 	mov	r0, r3
    e470:	ebffff71 	bl	e23c <set_console_baud_rate>
    e474:	e1a03000 	mov	r3, r0
    e478:	e50b3020 	str	r3, [fp, #-32]	; 0xffffffe0
    e47c:	e51b3020 	ldr	r3, [fp, #-32]	; 0xffffffe0
    e480:	e3530000 	cmp	r3, #0
    e484:	aa00000a 	bge	e4b4 <do_baud_rate+0x13c>
    e488:	e51b301c 	ldr	r3, [fp, #-28]	; 0xffffffe4
    e48c:	e3530000 	cmp	r3, #0
    e490:	da000032 	ble	e560 <do_baud_rate+0x1e8>
    e494:	e51b001c 	ldr	r0, [fp, #-28]	; 0xffffffe4
    e498:	ebffff67 	bl	e23c <set_console_baud_rate>
    e49c:	e3a00f7d 	mov	r0, #500	; 0x1f4
    e4a0:	ebffffa0 	bl	e328 <_sleep>
    e4a4:	e59f00cc 	ldr	r0, [pc, #204]	; e578 <do_baud_rate+0x200>
    e4a8:	e51b1020 	ldr	r1, [fp, #-32]	; 0xffffffe0
    e4ac:	ebfffa32 	bl	cd7c <diag_printf>
    e4b0:	ea00002a 	b	e560 <do_baud_rate+0x1e8>
    e4b4:	e3a00c27 	mov	r0, #9984	; 0x2700
    e4b8:	e2800010 	add	r0, r0, #16
    e4bc:	ebffff99 	bl	e328 <_sleep>
    e4c0:	e51b3024 	ldr	r3, [fp, #-36]	; 0xffffffdc
    e4c4:	e3a00d4e 	mov	r0, #4992	; 0x1380
    e4c8:	e2800008 	add	r0, r0, #8
    e4cc:	e59f10a8 	ldr	r1, [pc, #168]	; e57c <do_baud_rate+0x204>
    e4d0:	e1a02003 	mov	r2, r3
    e4d4:	eb00068a 	bl	ff04 <verify_action_with_timeout>
    e4d8:	e1a03000 	mov	r3, r0
    e4dc:	e3530000 	cmp	r3, #0
    e4e0:	1a00001e 	bne	e560 <do_baud_rate+0x1e8>
    e4e4:	e3a00f7d 	mov	r0, #500	; 0x1f4
    e4e8:	ebffff8e 	bl	e328 <_sleep>
    e4ec:	e51b001c 	ldr	r0, [fp, #-28]	; 0xffffffe4
    e4f0:	ebffff51 	bl	e23c <set_console_baud_rate>
    e4f4:	e3a00f7d 	mov	r0, #500	; 0x1f4
    e4f8:	ebffff8a 	bl	e328 <_sleep>
    e4fc:	ea000017 	b	e560 <do_baud_rate+0x1e8>
    e500:	e51b3018 	ldr	r3, [fp, #-24]	; 0xffffffe8
    e504:	e5933014 	ldr	r3, [r3, #20]
    e508:	e1a02003 	mov	r2, r3
    e50c:	e51b3018 	ldr	r3, [fp, #-24]	; 0xffffffe8
    e510:	e5933000 	ldr	r3, [r3]
    e514:	e1a00003 	mov	r0, r3
    e518:	e3a01001 	mov	r1, #1
    e51c:	e1a0e00f 	mov	lr, pc
    e520:	e12fff12 	bx	r2
    e524:	e1a03000 	mov	r3, r0
    e528:	e50b3010 	str	r3, [fp, #-16]
    e52c:	e51b3010 	ldr	r3, [fp, #-16]
    e530:	e50b3020 	str	r3, [fp, #-32]	; 0xffffffe0
    e534:	e59f0044 	ldr	r0, [pc, #68]	; e580 <do_baud_rate+0x208>
    e538:	ebfffa0f 	bl	cd7c <diag_printf>
    e53c:	e51b3020 	ldr	r3, [fp, #-32]	; 0xffffffe0
    e540:	e3530000 	cmp	r3, #0
    e544:	ca000002 	bgt	e554 <do_baud_rate+0x1dc>
    e548:	e59f0034 	ldr	r0, [pc, #52]	; e584 <do_baud_rate+0x20c>
    e54c:	ebfffa0a 	bl	cd7c <diag_printf>
    e550:	ea000002 	b	e560 <do_baud_rate+0x1e8>
    e554:	e59f002c 	ldr	r0, [pc, #44]	; e588 <do_baud_rate+0x210>
    e558:	e51b1020 	ldr	r1, [fp, #-32]	; 0xffffffe0
    e55c:	ebfffa06 	bl	cd7c <diag_printf>
    e560:	e24bd00c 	sub	sp, fp, #12
    e564:	e89d6800 	ldm	sp, {fp, sp, lr}
    e568:	e12fff1e 	bx	lr
    e56c:	0001608c 	.word	0x0001608c
    e570:	00015c08 	.word	0x00015c08
    e574:	0001609c 	.word	0x0001609c
    e578:	000160d4 	.word	0x000160d4
    e57c:	000160e0 	.word	0x000160e0
    e580:	000160f8 	.word	0x000160f8
    e584:	00016108 	.word	0x00016108
    e588:	00016114 	.word	0x00016114

0000e58c <valid_address>:
    e58c:	e1a0c00d 	mov	ip, sp
    e590:	e92dd800 	push	{fp, ip, lr, pc}
    e594:	e24cb004 	sub	fp, ip, #4
    e598:	e24dd010 	sub	sp, sp, #16
    e59c:	e50b0018 	str	r0, [fp, #-24]	; 0xffffffe8
    e5a0:	e3a03000 	mov	r3, #0
    e5a4:	e50b3010 	str	r3, [fp, #-16]
    e5a8:	ea00001a 	b	e618 <valid_address+0x8c>
    e5ac:	e51b3010 	ldr	r3, [fp, #-16]
    e5b0:	e59f2088 	ldr	r2, [pc, #136]	; e640 <valid_address+0xb4>
    e5b4:	e7923183 	ldr	r3, [r2, r3, lsl #3]
    e5b8:	e3730001 	cmn	r3, #1
    e5bc:	0a000012 	beq	e60c <valid_address+0x80>
    e5c0:	e51b2010 	ldr	r2, [fp, #-16]
    e5c4:	e59f3074 	ldr	r3, [pc, #116]	; e640 <valid_address+0xb4>
    e5c8:	e7932182 	ldr	r2, [r3, r2, lsl #3]
    e5cc:	e51b3018 	ldr	r3, [fp, #-24]	; 0xffffffe8
    e5d0:	e1520003 	cmp	r2, r3
    e5d4:	8a00000c 	bhi	e60c <valid_address+0x80>
    e5d8:	e51b3010 	ldr	r3, [fp, #-16]
    e5dc:	e59f205c 	ldr	r2, [pc, #92]	; e640 <valid_address+0xb4>
    e5e0:	e3a01004 	mov	r1, #4
    e5e4:	e1a03183 	lsl	r3, r3, #3
    e5e8:	e0823003 	add	r3, r2, r3
    e5ec:	e0833001 	add	r3, r3, r1
    e5f0:	e5932000 	ldr	r2, [r3]
    e5f4:	e51b3018 	ldr	r3, [fp, #-24]	; 0xffffffe8
    e5f8:	e1520003 	cmp	r2, r3
    e5fc:	9a000002 	bls	e60c <valid_address+0x80>
    e600:	e3a03001 	mov	r3, #1
    e604:	e50b301c 	str	r3, [fp, #-28]	; 0xffffffe4
    e608:	ea000007 	b	e62c <valid_address+0xa0>
    e60c:	e51b3010 	ldr	r3, [fp, #-16]
    e610:	e2833001 	add	r3, r3, #1
    e614:	e50b3010 	str	r3, [fp, #-16]
    e618:	e51b3010 	ldr	r3, [fp, #-16]
    e61c:	e3530000 	cmp	r3, #0
    e620:	daffffe1 	ble	e5ac <valid_address+0x20>
    e624:	e3a03000 	mov	r3, #0
    e628:	e50b301c 	str	r3, [fp, #-28]	; 0xffffffe4
    e62c:	e51b301c 	ldr	r3, [fp, #-28]	; 0xffffffe4
    e630:	e1a00003 	mov	r0, r3
    e634:	e24bd00c 	sub	sp, fp, #12
    e638:	e89d6800 	ldm	sp, {fp, sp, lr}
    e63c:	e12fff1e 	bx	lr
    e640:	81005734 	.word	0x81005734

0000e644 <strcasecmp>:
    e644:	e1a0c00d 	mov	ip, sp
    e648:	e92dd800 	push	{fp, ip, lr, pc}
    e64c:	e24cb004 	sub	fp, ip, #4
    e650:	e24dd018 	sub	sp, sp, #24
    e654:	e50b0018 	str	r0, [fp, #-24]	; 0xffffffe8
    e658:	e50b101c 	str	r1, [fp, #-28]	; 0xffffffe4
    e65c:	ea000005 	b	e678 <strcasecmp+0x34>
    e660:	e55b300e 	ldrb	r3, [fp, #-14]
    e664:	e3530000 	cmp	r3, #0
    e668:	1a000002 	bne	e678 <strcasecmp+0x34>
    e66c:	e3a03000 	mov	r3, #0
    e670:	e50b3020 	str	r3, [fp, #-32]	; 0xffffffe0
    e674:	ea000019 	b	e6e0 <strcasecmp+0x9c>
    e678:	e51b3018 	ldr	r3, [fp, #-24]	; 0xffffffe8
    e67c:	e5d32000 	ldrb	r2, [r3]
    e680:	e51b3018 	ldr	r3, [fp, #-24]	; 0xffffffe8
    e684:	e2833001 	add	r3, r3, #1
    e688:	e50b3018 	str	r3, [fp, #-24]	; 0xffffffe8
    e68c:	e1a00002 	mov	r0, r2
    e690:	eb000017 	bl	e6f4 <_tolower>
    e694:	e1a03000 	mov	r3, r0
    e698:	e54b300e 	strb	r3, [fp, #-14]
    e69c:	e51b301c 	ldr	r3, [fp, #-28]	; 0xffffffe4
    e6a0:	e5d32000 	ldrb	r2, [r3]
    e6a4:	e51b301c 	ldr	r3, [fp, #-28]	; 0xffffffe4
    e6a8:	e2833001 	add	r3, r3, #1
    e6ac:	e50b301c 	str	r3, [fp, #-28]	; 0xffffffe4
    e6b0:	e1a00002 	mov	r0, r2
    e6b4:	eb00000e 	bl	e6f4 <_tolower>
    e6b8:	e1a03000 	mov	r3, r0
    e6bc:	e54b300d 	strb	r3, [fp, #-13]
    e6c0:	e55b200e 	ldrb	r2, [fp, #-14]
    e6c4:	e55b300d 	ldrb	r3, [fp, #-13]
    e6c8:	e1520003 	cmp	r2, r3
    e6cc:	0affffe3 	beq	e660 <strcasecmp+0x1c>
    e6d0:	e55b200e 	ldrb	r2, [fp, #-14]
    e6d4:	e55b300d 	ldrb	r3, [fp, #-13]
    e6d8:	e0632002 	rsb	r2, r3, r2
    e6dc:	e50b2020 	str	r2, [fp, #-32]	; 0xffffffe0
    e6e0:	e51b3020 	ldr	r3, [fp, #-32]	; 0xffffffe0
    e6e4:	e1a00003 	mov	r0, r3
    e6e8:	e24bd00c 	sub	sp, fp, #12
    e6ec:	e89d6800 	ldm	sp, {fp, sp, lr}
    e6f0:	e12fff1e 	bx	lr

0000e6f4 <_tolower>:
    e6f4:	e1a0c00d 	mov	ip, sp
    e6f8:	e92dd800 	push	{fp, ip, lr, pc}
    e6fc:	e24cb004 	sub	fp, ip, #4
    e700:	e24dd008 	sub	sp, sp, #8
    e704:	e1a03000 	mov	r3, r0
    e708:	e54b300d 	strb	r3, [fp, #-13]
    e70c:	e55b300d 	ldrb	r3, [fp, #-13]
    e710:	e3530040 	cmp	r3, #64	; 0x40
    e714:	9a000005 	bls	e730 <_tolower+0x3c>
    e718:	e55b300d 	ldrb	r3, [fp, #-13]
    e71c:	e353005a 	cmp	r3, #90	; 0x5a
    e720:	8a000002 	bhi	e730 <_tolower+0x3c>
    e724:	e55b300d 	ldrb	r3, [fp, #-13]
    e728:	e2833020 	add	r3, r3, #32
    e72c:	e54b300d 	strb	r3, [fp, #-13]
    e730:	e55b300d 	ldrb	r3, [fp, #-13]
    e734:	e1a00003 	mov	r0, r3
    e738:	e24bd00c 	sub	sp, fp, #12
    e73c:	e89d6800 	ldm	sp, {fp, sp, lr}
    e740:	e12fff1e 	bx	lr

0000e744 <strncasecmp>:
    e744:	e1a0c00d 	mov	ip, sp
    e748:	e92dd800 	push	{fp, ip, lr, pc}
    e74c:	e24cb004 	sub	fp, ip, #4
    e750:	e24dd018 	sub	sp, sp, #24
    e754:	e50b0018 	str	r0, [fp, #-24]	; 0xffffffe8
    e758:	e50b101c 	str	r1, [fp, #-28]	; 0xffffffe4
    e75c:	e50b2020 	str	r2, [fp, #-32]	; 0xffffffe0
    e760:	e51b3020 	ldr	r3, [fp, #-32]	; 0xffffffe0
    e764:	e3530000 	cmp	r3, #0
    e768:	1a000002 	bne	e778 <strncasecmp+0x34>
    e76c:	e3a03000 	mov	r3, #0
    e770:	e50b3024 	str	r3, [fp, #-36]	; 0xffffffdc
    e774:	ea000025 	b	e810 <strncasecmp+0xcc>
    e778:	e51b3018 	ldr	r3, [fp, #-24]	; 0xffffffe8
    e77c:	e5d32000 	ldrb	r2, [r3]
    e780:	e51b3018 	ldr	r3, [fp, #-24]	; 0xffffffe8
    e784:	e2833001 	add	r3, r3, #1
    e788:	e50b3018 	str	r3, [fp, #-24]	; 0xffffffe8
    e78c:	e1a00002 	mov	r0, r2
    e790:	ebffffd7 	bl	e6f4 <_tolower>
    e794:	e1a03000 	mov	r3, r0
    e798:	e54b300e 	strb	r3, [fp, #-14]
    e79c:	e51b301c 	ldr	r3, [fp, #-28]	; 0xffffffe4
    e7a0:	e5d32000 	ldrb	r2, [r3]
    e7a4:	e51b301c 	ldr	r3, [fp, #-28]	; 0xffffffe4
    e7a8:	e2833001 	add	r3, r3, #1
    e7ac:	e50b301c 	str	r3, [fp, #-28]	; 0xffffffe4
    e7b0:	e1a00002 	mov	r0, r2
    e7b4:	ebffffce 	bl	e6f4 <_tolower>
    e7b8:	e1a03000 	mov	r3, r0
    e7bc:	e54b300d 	strb	r3, [fp, #-13]
    e7c0:	e55b200e 	ldrb	r2, [fp, #-14]
    e7c4:	e55b300d 	ldrb	r3, [fp, #-13]
    e7c8:	e1520003 	cmp	r2, r3
    e7cc:	0a000004 	beq	e7e4 <strncasecmp+0xa0>
    e7d0:	e55b200e 	ldrb	r2, [fp, #-14]
    e7d4:	e55b300d 	ldrb	r3, [fp, #-13]
    e7d8:	e0632002 	rsb	r2, r3, r2
    e7dc:	e50b2024 	str	r2, [fp, #-36]	; 0xffffffdc
    e7e0:	ea00000a 	b	e810 <strncasecmp+0xcc>
    e7e4:	e55b300e 	ldrb	r3, [fp, #-14]
    e7e8:	e3530000 	cmp	r3, #0
    e7ec:	0a000005 	beq	e808 <strncasecmp+0xc4>
    e7f0:	e51b3020 	ldr	r3, [fp, #-32]	; 0xffffffe0
    e7f4:	e2433001 	sub	r3, r3, #1
    e7f8:	e50b3020 	str	r3, [fp, #-32]	; 0xffffffe0
    e7fc:	e51b3020 	ldr	r3, [fp, #-32]	; 0xffffffe0
    e800:	e3530000 	cmp	r3, #0
    e804:	1affffdb 	bne	e778 <strncasecmp+0x34>
    e808:	e3a03000 	mov	r3, #0
    e80c:	e50b3024 	str	r3, [fp, #-36]	; 0xffffffdc
    e810:	e51b3024 	ldr	r3, [fp, #-36]	; 0xffffffdc
    e814:	e1a00003 	mov	r0, r3
    e818:	e24bd00c 	sub	sp, fp, #12
    e81c:	e89d6800 	ldm	sp, {fp, sp, lr}
    e820:	e12fff1e 	bx	lr

0000e824 <do_channel>:
    e824:	e1a0c00d 	mov	ip, sp
    e828:	e92dd800 	push	{fp, ip, lr, pc}
    e82c:	e24cb004 	sub	fp, ip, #4
    e830:	e24dd010 	sub	sp, sp, #16
    e834:	e50b0018 	str	r0, [fp, #-24]	; 0xffffffe8
    e838:	e50b101c 	str	r1, [fp, #-28]	; 0xffffffe4
    e83c:	e3e00000 	mvn	r0, #0
    e840:	eb000056 	bl	e9a0 <__call_vv_CYGNUM_CALL_IF_SET_CONSOLE_COMM>
    e844:	e1a03000 	mov	r3, r0
    e848:	e50b3010 	str	r3, [fp, #-16]
    e84c:	e51b3018 	ldr	r3, [fp, #-24]	; 0xffffffe8
    e850:	e3530002 	cmp	r3, #2
    e854:	1a00003a 	bne	e944 <do_channel+0x120>
    e858:	e51b301c 	ldr	r3, [fp, #-28]	; 0xffffffe4
    e85c:	e2833004 	add	r3, r3, #4
    e860:	e5933000 	ldr	r3, [r3]
    e864:	e1a00003 	mov	r0, r3
    e868:	e59f1110 	ldr	r1, [pc, #272]	; e980 <do_channel+0x15c>
    e86c:	eb000b51 	bl	115b8 <__strcmp>
    e870:	e1a03000 	mov	r3, r0
    e874:	e3530000 	cmp	r3, #0
    e878:	1a000006 	bne	e898 <do_channel+0x74>
    e87c:	e59f2100 	ldr	r2, [pc, #256]	; e984 <do_channel+0x160>
    e880:	e3a03000 	mov	r3, #0
    e884:	e5823000 	str	r3, [r2]
    e888:	e59f20f8 	ldr	r2, [pc, #248]	; e988 <do_channel+0x164>
    e88c:	e3a03001 	mov	r3, #1
    e890:	e5823000 	str	r3, [r2]
    e894:	ea000036 	b	e974 <do_channel+0x150>
    e898:	e51b301c 	ldr	r3, [fp, #-28]	; 0xffffffe4
    e89c:	e2833004 	add	r3, r3, #4
    e8a0:	e5933000 	ldr	r3, [r3]
    e8a4:	e24b2014 	sub	r2, fp, #20
    e8a8:	e1a00003 	mov	r0, r3
    e8ac:	e1a01002 	mov	r1, r2
    e8b0:	e3a02000 	mov	r2, #0
    e8b4:	e3a03000 	mov	r3, #0
    e8b8:	eb00092d 	bl	10d74 <parse_num>
    e8bc:	e1a03000 	mov	r3, r0
    e8c0:	e3530000 	cmp	r3, #0
    e8c4:	1a000006 	bne	e8e4 <do_channel+0xc0>
    e8c8:	e51b301c 	ldr	r3, [fp, #-28]	; 0xffffffe4
    e8cc:	e2833004 	add	r3, r3, #4
    e8d0:	e5933000 	ldr	r3, [r3]
    e8d4:	e59f00b0 	ldr	r0, [pc, #176]	; e98c <do_channel+0x168>
    e8d8:	e1a01003 	mov	r1, r3
    e8dc:	ebfff926 	bl	cd7c <diag_printf>
    e8e0:	ea000023 	b	e974 <do_channel+0x150>
    e8e4:	e51b3014 	ldr	r3, [fp, #-20]	; 0xffffffec
    e8e8:	e3530000 	cmp	r3, #0
    e8ec:	1a00000d 	bne	e928 <do_channel+0x104>
    e8f0:	e51b3014 	ldr	r3, [fp, #-20]	; 0xffffffec
    e8f4:	e1a00003 	mov	r0, r3
    e8f8:	eb000028 	bl	e9a0 <__call_vv_CYGNUM_CALL_IF_SET_CONSOLE_COMM>
    e8fc:	e51b3014 	ldr	r3, [fp, #-20]	; 0xffffffec
    e900:	e1a00003 	mov	r0, r3
    e904:	eb000037 	bl	e9e8 <__call_vv_CYGNUM_CALL_IF_SET_DEBUG_COMM>
    e908:	e51b2010 	ldr	r2, [fp, #-16]
    e90c:	e51b3014 	ldr	r3, [fp, #-20]	; 0xffffffec
    e910:	e1520003 	cmp	r2, r3
    e914:	0a000016 	beq	e974 <do_channel+0x150>
    e918:	e59f2068 	ldr	r2, [pc, #104]	; e988 <do_channel+0x164>
    e91c:	e3a03001 	mov	r3, #1
    e920:	e5823000 	str	r3, [r2]
    e924:	ea000012 	b	e974 <do_channel+0x150>
    e928:	e51b301c 	ldr	r3, [fp, #-28]	; 0xffffffe4
    e92c:	e2833004 	add	r3, r3, #4
    e930:	e5933000 	ldr	r3, [r3]
    e934:	e59f0054 	ldr	r0, [pc, #84]	; e990 <do_channel+0x16c>
    e938:	e1a01003 	mov	r1, r3
    e93c:	ebfff90e 	bl	cd7c <diag_printf>
    e940:	ea00000b 	b	e974 <do_channel+0x150>
    e944:	e59f0048 	ldr	r0, [pc, #72]	; e994 <do_channel+0x170>
    e948:	ebfff90b 	bl	cd7c <diag_printf>
    e94c:	e59f3030 	ldr	r3, [pc, #48]	; e984 <do_channel+0x160>
    e950:	e5933000 	ldr	r3, [r3]
    e954:	e3530000 	cmp	r3, #0
    e958:	1a000002 	bne	e968 <do_channel+0x144>
    e95c:	e59f0034 	ldr	r0, [pc, #52]	; e998 <do_channel+0x174>
    e960:	ebfff905 	bl	cd7c <diag_printf>
    e964:	ea000002 	b	e974 <do_channel+0x150>
    e968:	e59f002c 	ldr	r0, [pc, #44]	; e99c <do_channel+0x178>
    e96c:	e51b1010 	ldr	r1, [fp, #-16]
    e970:	ebfff901 	bl	cd7c <diag_printf>
    e974:	e24bd00c 	sub	sp, fp, #12
    e978:	e89d6800 	ldm	sp, {fp, sp, lr}
    e97c:	e12fff1e 	bx	lr
    e980:	00016158 	.word	0x00016158
    e984:	810056d4 	.word	0x810056d4
    e988:	8100572c 	.word	0x8100572c
    e98c:	0001615c 	.word	0x0001615c
    e990:	0001617c 	.word	0x0001617c
    e994:	000161a0 	.word	0x000161a0
    e998:	000161c0 	.word	0x000161c0
    e99c:	000161c4 	.word	0x000161c4

0000e9a0 <__call_vv_CYGNUM_CALL_IF_SET_CONSOLE_COMM>:
    e9a0:	e1a0c00d 	mov	ip, sp
    e9a4:	e92dd800 	push	{fp, ip, lr, pc}
    e9a8:	e24cb004 	sub	fp, ip, #4
    e9ac:	e24dd010 	sub	sp, sp, #16
    e9b0:	e50b0018 	str	r0, [fp, #-24]	; 0xffffffe8
    e9b4:	e59f3028 	ldr	r3, [pc, #40]	; e9e4 <__call_vv_CYGNUM_CALL_IF_SET_CONSOLE_COMM+0x44>
    e9b8:	e5933034 	ldr	r3, [r3, #52]	; 0x34
    e9bc:	e51b0018 	ldr	r0, [fp, #-24]	; 0xffffffe8
    e9c0:	e1a0e00f 	mov	lr, pc
    e9c4:	e12fff13 	bx	r3
    e9c8:	e1a03000 	mov	r3, r0
    e9cc:	e50b3010 	str	r3, [fp, #-16]
    e9d0:	e51b3010 	ldr	r3, [fp, #-16]
    e9d4:	e1a00003 	mov	r0, r3
    e9d8:	e24bd00c 	sub	sp, fp, #12
    e9dc:	e89d6800 	ldm	sp, {fp, sp, lr}
    e9e0:	e12fff1e 	bx	lr
    e9e4:	40000050 	.word	0x40000050

0000e9e8 <__call_vv_CYGNUM_CALL_IF_SET_DEBUG_COMM>:
    e9e8:	e1a0c00d 	mov	ip, sp
    e9ec:	e92dd800 	push	{fp, ip, lr, pc}
    e9f0:	e24cb004 	sub	fp, ip, #4
    e9f4:	e24dd010 	sub	sp, sp, #16
    e9f8:	e50b0018 	str	r0, [fp, #-24]	; 0xffffffe8
    e9fc:	e59f3028 	ldr	r3, [pc, #40]	; ea2c <__call_vv_CYGNUM_CALL_IF_SET_DEBUG_COMM+0x44>
    ea00:	e5933030 	ldr	r3, [r3, #48]	; 0x30
    ea04:	e51b0018 	ldr	r0, [fp, #-24]	; 0xffffffe8
    ea08:	e1a0e00f 	mov	lr, pc
    ea0c:	e12fff13 	bx	r3
    ea10:	e1a03000 	mov	r3, r0
    ea14:	e50b3010 	str	r3, [fp, #-16]
    ea18:	e51b3010 	ldr	r3, [fp, #-16]
    ea1c:	e1a00003 	mov	r0, r3
    ea20:	e24bd00c 	sub	sp, fp, #12
    ea24:	e89d6800 	ldm	sp, {fp, sp, lr}
    ea28:	e12fff1e 	bx	lr
    ea2c:	40000050 	.word	0x40000050

0000ea30 <mon_write_char>:
    ea30:	e1a0c00d 	mov	ip, sp
    ea34:	e92dd800 	push	{fp, ip, lr, pc}
    ea38:	e24cb004 	sub	fp, ip, #4
    ea3c:	e24dd018 	sub	sp, sp, #24
    ea40:	e1a03000 	mov	r3, r0
    ea44:	e54b301d 	strb	r3, [fp, #-29]	; 0xffffffe3
    ea48:	e59f30cc 	ldr	r3, [pc, #204]	; eb1c <mon_write_char+0xec>
    ea4c:	e5933000 	ldr	r3, [r3]
    ea50:	e3530000 	cmp	r3, #0
    ea54:	1a000019 	bne	eac0 <mon_write_char+0x90>
    ea58:	e3e00000 	mvn	r0, #0
    ea5c:	ebffffcf 	bl	e9a0 <__call_vv_CYGNUM_CALL_IF_SET_CONSOLE_COMM>
    ea60:	e1a03000 	mov	r3, r0
    ea64:	e50b3014 	str	r3, [fp, #-20]	; 0xffffffec
    ea68:	e3a03000 	mov	r3, #0
    ea6c:	e50b3010 	str	r3, [fp, #-16]
    ea70:	ea00000c 	b	eaa8 <mon_write_char+0x78>
    ea74:	e51b0010 	ldr	r0, [fp, #-16]
    ea78:	ebffffc8 	bl	e9a0 <__call_vv_CYGNUM_CALL_IF_SET_CONSOLE_COMM>
    ea7c:	eb000027 	bl	eb20 <__call_vv_CYGNUM_CALL_IF_CONSOLE_PROCS>
    ea80:	e1a03000 	mov	r3, r0
    ea84:	e50b3018 	str	r3, [fp, #-24]	; 0xffffffe8
    ea88:	e51b3018 	ldr	r3, [fp, #-24]	; 0xffffffe8
    ea8c:	e55b201d 	ldrb	r2, [fp, #-29]	; 0xffffffe3
    ea90:	e1a00003 	mov	r0, r3
    ea94:	e1a01002 	mov	r1, r2
    ea98:	eb000034 	bl	eb70 <__call_COMM_IF_PUTC>
    ea9c:	e51b3010 	ldr	r3, [fp, #-16]
    eaa0:	e2833001 	add	r3, r3, #1
    eaa4:	e50b3010 	str	r3, [fp, #-16]
    eaa8:	e51b3010 	ldr	r3, [fp, #-16]
    eaac:	e3530000 	cmp	r3, #0
    eab0:	daffffef 	ble	ea74 <mon_write_char+0x44>
    eab4:	e51b0014 	ldr	r0, [fp, #-20]	; 0xffffffec
    eab8:	ebffffb8 	bl	e9a0 <__call_vv_CYGNUM_CALL_IF_SET_CONSOLE_COMM>
    eabc:	ea000013 	b	eb10 <mon_write_char+0xe0>
    eac0:	eb000016 	bl	eb20 <__call_vv_CYGNUM_CALL_IF_CONSOLE_PROCS>
    eac4:	e1a03000 	mov	r3, r0
    eac8:	e50b3018 	str	r3, [fp, #-24]	; 0xffffffe8
    eacc:	e51b3018 	ldr	r3, [fp, #-24]	; 0xffffffe8
    ead0:	e3530000 	cmp	r3, #0
    ead4:	0a000005 	beq	eaf0 <mon_write_char+0xc0>
    ead8:	e51b3018 	ldr	r3, [fp, #-24]	; 0xffffffe8
    eadc:	e55b201d 	ldrb	r2, [fp, #-29]	; 0xffffffe3
    eae0:	e1a00003 	mov	r0, r3
    eae4:	e1a01002 	mov	r1, r2
    eae8:	eb000020 	bl	eb70 <__call_COMM_IF_PUTC>
    eaec:	ea000007 	b	eb10 <mon_write_char+0xe0>
    eaf0:	eb000014 	bl	eb48 <__call_vv_CYGNUM_CALL_IF_DEBUG_PROCS>
    eaf4:	e1a03000 	mov	r3, r0
    eaf8:	e50b3018 	str	r3, [fp, #-24]	; 0xffffffe8
    eafc:	e51b3018 	ldr	r3, [fp, #-24]	; 0xffffffe8
    eb00:	e55b201d 	ldrb	r2, [fp, #-29]	; 0xffffffe3
    eb04:	e1a00003 	mov	r0, r3
    eb08:	e1a01002 	mov	r1, r2
    eb0c:	eb000017 	bl	eb70 <__call_COMM_IF_PUTC>
    eb10:	e24bd00c 	sub	sp, fp, #12
    eb14:	e89d6800 	ldm	sp, {fp, sp, lr}
    eb18:	e12fff1e 	bx	lr
    eb1c:	810056d4 	.word	0x810056d4

0000eb20 <__call_vv_CYGNUM_CALL_IF_CONSOLE_PROCS>:
    eb20:	e1a0c00d 	mov	ip, sp
    eb24:	e92dd800 	push	{fp, ip, lr, pc}
    eb28:	e24cb004 	sub	fp, ip, #4
    eb2c:	e59f3010 	ldr	r3, [pc, #16]	; eb44 <__call_vv_CYGNUM_CALL_IF_CONSOLE_PROCS+0x24>
    eb30:	e5933014 	ldr	r3, [r3, #20]
    eb34:	e1a00003 	mov	r0, r3
    eb38:	e24bd00c 	sub	sp, fp, #12
    eb3c:	e89d6800 	ldm	sp, {fp, sp, lr}
    eb40:	e12fff1e 	bx	lr
    eb44:	40000050 	.word	0x40000050

0000eb48 <__call_vv_CYGNUM_CALL_IF_DEBUG_PROCS>:
    eb48:	e1a0c00d 	mov	ip, sp
    eb4c:	e92dd800 	push	{fp, ip, lr, pc}
    eb50:	e24cb004 	sub	fp, ip, #4
    eb54:	e59f3010 	ldr	r3, [pc, #16]	; eb6c <__call_vv_CYGNUM_CALL_IF_DEBUG_PROCS+0x24>
    eb58:	e5933018 	ldr	r3, [r3, #24]
    eb5c:	e1a00003 	mov	r0, r3
    eb60:	e24bd00c 	sub	sp, fp, #12
    eb64:	e89d6800 	ldm	sp, {fp, sp, lr}
    eb68:	e12fff1e 	bx	lr
    eb6c:	40000050 	.word	0x40000050

0000eb70 <__call_COMM_IF_PUTC>:
    eb70:	e1a0c00d 	mov	ip, sp
    eb74:	e92dd800 	push	{fp, ip, lr, pc}
    eb78:	e24cb004 	sub	fp, ip, #4
    eb7c:	e24dd010 	sub	sp, sp, #16
    eb80:	e50b0018 	str	r0, [fp, #-24]	; 0xffffffe8
    eb84:	e1a03001 	mov	r3, r1
    eb88:	e54b3019 	strb	r3, [fp, #-25]	; 0xffffffe7
    eb8c:	e51b3018 	ldr	r3, [fp, #-24]	; 0xffffffe8
    eb90:	e5933000 	ldr	r3, [r3]
    eb94:	e50b3010 	str	r3, [fp, #-16]
    eb98:	e51b3018 	ldr	r3, [fp, #-24]	; 0xffffffe8
    eb9c:	e283300c 	add	r3, r3, #12
    eba0:	e5933000 	ldr	r3, [r3]
    eba4:	e1a02003 	mov	r2, r3
    eba8:	e55b3019 	ldrb	r3, [fp, #-25]	; 0xffffffe7
    ebac:	e51b0010 	ldr	r0, [fp, #-16]
    ebb0:	e1a01003 	mov	r1, r3
    ebb4:	e1a0e00f 	mov	lr, pc
    ebb8:	e12fff12 	bx	r2
    ebbc:	e24bd00c 	sub	sp, fp, #12
    ebc0:	e89d6800 	ldm	sp, {fp, sp, lr}
    ebc4:	e12fff1e 	bx	lr

0000ebc8 <mon_read_char>:
    ebc8:	e1a0c00d 	mov	ip, sp
    ebcc:	e92dd800 	push	{fp, ip, lr, pc}
    ebd0:	e24cb004 	sub	fp, ip, #4
    ebd4:	e24dd010 	sub	sp, sp, #16
    ebd8:	e50b0018 	str	r0, [fp, #-24]	; 0xffffffe8
    ebdc:	ebffffcf 	bl	eb20 <__call_vv_CYGNUM_CALL_IF_CONSOLE_PROCS>
    ebe0:	e1a03000 	mov	r3, r0
    ebe4:	e50b3010 	str	r3, [fp, #-16]
    ebe8:	e51b3010 	ldr	r3, [fp, #-16]
    ebec:	e3530000 	cmp	r3, #0
    ebf0:	0a000006 	beq	ec10 <mon_read_char+0x48>
    ebf4:	e51b3010 	ldr	r3, [fp, #-16]
    ebf8:	e1a00003 	mov	r0, r3
    ebfc:	eb00000f 	bl	ec40 <__call_COMM_IF_GETC>
    ec00:	e1a03000 	mov	r3, r0
    ec04:	e51b2018 	ldr	r2, [fp, #-24]	; 0xffffffe8
    ec08:	e5c23000 	strb	r3, [r2]
    ec0c:	ea000008 	b	ec34 <mon_read_char+0x6c>
    ec10:	ebffffcc 	bl	eb48 <__call_vv_CYGNUM_CALL_IF_DEBUG_PROCS>
    ec14:	e1a03000 	mov	r3, r0
    ec18:	e50b3010 	str	r3, [fp, #-16]
    ec1c:	e51b3010 	ldr	r3, [fp, #-16]
    ec20:	e1a00003 	mov	r0, r3
    ec24:	eb000005 	bl	ec40 <__call_COMM_IF_GETC>
    ec28:	e1a03000 	mov	r3, r0
    ec2c:	e51b2018 	ldr	r2, [fp, #-24]	; 0xffffffe8
    ec30:	e5c23000 	strb	r3, [r2]
    ec34:	e24bd00c 	sub	sp, fp, #12
    ec38:	e89d6800 	ldm	sp, {fp, sp, lr}
    ec3c:	e12fff1e 	bx	lr

0000ec40 <__call_COMM_IF_GETC>:
    ec40:	e1a0c00d 	mov	ip, sp
    ec44:	e92dd800 	push	{fp, ip, lr, pc}
    ec48:	e24cb004 	sub	fp, ip, #4
    ec4c:	e24dd010 	sub	sp, sp, #16
    ec50:	e50b0018 	str	r0, [fp, #-24]	; 0xffffffe8
    ec54:	e51b3018 	ldr	r3, [fp, #-24]	; 0xffffffe8
    ec58:	e5933000 	ldr	r3, [r3]
    ec5c:	e50b3010 	str	r3, [fp, #-16]
    ec60:	e51b3018 	ldr	r3, [fp, #-24]	; 0xffffffe8
    ec64:	e2833010 	add	r3, r3, #16
    ec68:	e5933000 	ldr	r3, [r3]
    ec6c:	e51b0010 	ldr	r0, [fp, #-16]
    ec70:	e1a0e00f 	mov	lr, pc
    ec74:	e12fff13 	bx	r3
    ec78:	e1a03000 	mov	r3, r0
    ec7c:	e54b3011 	strb	r3, [fp, #-17]	; 0xffffffef
    ec80:	e55b3011 	ldrb	r3, [fp, #-17]	; 0xffffffef
    ec84:	e1a00003 	mov	r0, r3
    ec88:	e24bd00c 	sub	sp, fp, #12
    ec8c:	e89d6800 	ldm	sp, {fp, sp, lr}
    ec90:	e12fff1e 	bx	lr

0000ec94 <mon_read_char_with_timeout>:
    ec94:	e1a0c00d 	mov	ip, sp
    ec98:	e92dd800 	push	{fp, ip, lr, pc}
    ec9c:	e24cb004 	sub	fp, ip, #4
    eca0:	e24dd028 	sub	sp, sp, #40	; 0x28
    eca4:	e50b0030 	str	r0, [fp, #-48]	; 0xffffffd0
    eca8:	e3a03000 	mov	r3, #0
    ecac:	e50b3028 	str	r3, [fp, #-40]	; 0xffffffd8
    ecb0:	e59f31cc 	ldr	r3, [pc, #460]	; ee84 <mon_read_char_with_timeout+0x1f0>
    ecb4:	e5933000 	ldr	r3, [r3]
    ecb8:	e3530000 	cmp	r3, #0
    ecbc:	1a000053 	bne	ee10 <mon_read_char_with_timeout+0x17c>
    ecc0:	e3e00000 	mvn	r0, #0
    ecc4:	ebffff35 	bl	e9a0 <__call_vv_CYGNUM_CALL_IF_SET_CONSOLE_COMM>
    ecc8:	e1a03000 	mov	r3, r0
    eccc:	e50b3020 	str	r3, [fp, #-32]	; 0xffffffe0
    ecd0:	e3a03000 	mov	r3, #0
    ecd4:	e50b3014 	str	r3, [fp, #-20]	; 0xffffffec
    ecd8:	ea000044 	b	edf0 <mon_read_char_with_timeout+0x15c>
    ecdc:	e3a03000 	mov	r3, #0
    ece0:	e50b301c 	str	r3, [fp, #-28]	; 0xffffffe4
    ece4:	ea00003e 	b	ede4 <mon_read_char_with_timeout+0x150>
    ece8:	e51b001c 	ldr	r0, [fp, #-28]	; 0xffffffe4
    ecec:	ebffff2b 	bl	e9a0 <__call_vv_CYGNUM_CALL_IF_SET_CONSOLE_COMM>
    ecf0:	ebffff8a 	bl	eb20 <__call_vv_CYGNUM_CALL_IF_CONSOLE_PROCS>
    ecf4:	e1a03000 	mov	r3, r0
    ecf8:	e50b3024 	str	r3, [fp, #-36]	; 0xffffffdc
    ecfc:	e51b3024 	ldr	r3, [fp, #-36]	; 0xffffffdc
    ed00:	e1a00003 	mov	r0, r3
    ed04:	e51b1030 	ldr	r1, [fp, #-48]	; 0xffffffd0
    ed08:	eb00005f 	bl	ee8c <__call_COMM_IF_GETC_TIMEOUT>
    ed0c:	e1a03000 	mov	r3, r0
    ed10:	e50b3028 	str	r3, [fp, #-40]	; 0xffffffd8
    ed14:	e51b3028 	ldr	r3, [fp, #-40]	; 0xffffffd8
    ed18:	e3530000 	cmp	r3, #0
    ed1c:	0a00002a 	beq	edcc <mon_read_char_with_timeout+0x138>
    ed20:	e51b3030 	ldr	r3, [fp, #-48]	; 0xffffffd0
    ed24:	e5d33000 	ldrb	r3, [r3]
    ed28:	e3530000 	cmp	r3, #0
    ed2c:	0a000026 	beq	edcc <mon_read_char_with_timeout+0x138>
    ed30:	e59f314c 	ldr	r3, [pc, #332]	; ee84 <mon_read_char_with_timeout+0x1f0>
    ed34:	e3a02001 	mov	r2, #1
    ed38:	e5832000 	str	r2, [r3]
    ed3c:	e51b001c 	ldr	r0, [fp, #-28]	; 0xffffffe4
    ed40:	ebffff28 	bl	e9e8 <__call_vv_CYGNUM_CALL_IF_SET_DEBUG_COMM>
    ed44:	e3a03000 	mov	r3, #0
    ed48:	e50b3018 	str	r3, [fp, #-24]	; 0xffffffe8
    ed4c:	ea000016 	b	edac <mon_read_char_with_timeout+0x118>
    ed50:	e51b201c 	ldr	r2, [fp, #-28]	; 0xffffffe4
    ed54:	e51b3018 	ldr	r3, [fp, #-24]	; 0xffffffe8
    ed58:	e1520003 	cmp	r2, r3
    ed5c:	0a00000f 	beq	eda0 <mon_read_char_with_timeout+0x10c>
    ed60:	e51b0018 	ldr	r0, [fp, #-24]	; 0xffffffe8
    ed64:	ebffff0d 	bl	e9a0 <__call_vv_CYGNUM_CALL_IF_SET_CONSOLE_COMM>
    ed68:	ebffff6c 	bl	eb20 <__call_vv_CYGNUM_CALL_IF_CONSOLE_PROCS>
    ed6c:	e1a03000 	mov	r3, r0
    ed70:	e50b3024 	str	r3, [fp, #-36]	; 0xffffffdc
    ed74:	e51b3024 	ldr	r3, [fp, #-36]	; 0xffffffdc
    ed78:	e5933014 	ldr	r3, [r3, #20]
    ed7c:	e1a02003 	mov	r2, r3
    ed80:	e51b3024 	ldr	r3, [fp, #-36]	; 0xffffffdc
    ed84:	e5933000 	ldr	r3, [r3]
    ed88:	e1a00003 	mov	r0, r3
    ed8c:	e3a01004 	mov	r1, #4
    ed90:	e1a0e00f 	mov	lr, pc
    ed94:	e12fff12 	bx	r2
    ed98:	e1a03000 	mov	r3, r0
    ed9c:	e50b3010 	str	r3, [fp, #-16]
    eda0:	e51b3018 	ldr	r3, [fp, #-24]	; 0xffffffe8
    eda4:	e2833001 	add	r3, r3, #1
    eda8:	e50b3018 	str	r3, [fp, #-24]	; 0xffffffe8
    edac:	e51b3018 	ldr	r3, [fp, #-24]	; 0xffffffe8
    edb0:	e3530000 	cmp	r3, #0
    edb4:	daffffe5 	ble	ed50 <mon_read_char_with_timeout+0xbc>
    edb8:	e51b001c 	ldr	r0, [fp, #-28]	; 0xffffffe4
    edbc:	ebfffef7 	bl	e9a0 <__call_vv_CYGNUM_CALL_IF_SET_CONSOLE_COMM>
    edc0:	e51b3028 	ldr	r3, [fp, #-40]	; 0xffffffd8
    edc4:	e50b3034 	str	r3, [fp, #-52]	; 0xffffffcc
    edc8:	ea000028 	b	ee70 <mon_read_char_with_timeout+0x1dc>
    edcc:	e51b301c 	ldr	r3, [fp, #-28]	; 0xffffffe4
    edd0:	e2833001 	add	r3, r3, #1
    edd4:	e50b301c 	str	r3, [fp, #-28]	; 0xffffffe4
    edd8:	e51b3014 	ldr	r3, [fp, #-20]	; 0xffffffec
    eddc:	e2833001 	add	r3, r3, #1
    ede0:	e50b3014 	str	r3, [fp, #-20]	; 0xffffffec
    ede4:	e51b301c 	ldr	r3, [fp, #-28]	; 0xffffffe4
    ede8:	e3530000 	cmp	r3, #0
    edec:	daffffbd 	ble	ece8 <mon_read_char_with_timeout+0x54>
    edf0:	e59f3090 	ldr	r3, [pc, #144]	; ee88 <mon_read_char_with_timeout+0x1f4>
    edf4:	e5932000 	ldr	r2, [r3]
    edf8:	e51b3014 	ldr	r3, [fp, #-20]	; 0xffffffec
    edfc:	e1530002 	cmp	r3, r2
    ee00:	baffffb5 	blt	ecdc <mon_read_char_with_timeout+0x48>
    ee04:	e51b0020 	ldr	r0, [fp, #-32]	; 0xffffffe0
    ee08:	ebfffee4 	bl	e9a0 <__call_vv_CYGNUM_CALL_IF_SET_CONSOLE_COMM>
    ee0c:	ea000015 	b	ee68 <mon_read_char_with_timeout+0x1d4>
    ee10:	ebffff42 	bl	eb20 <__call_vv_CYGNUM_CALL_IF_CONSOLE_PROCS>
    ee14:	e1a03000 	mov	r3, r0
    ee18:	e50b3024 	str	r3, [fp, #-36]	; 0xffffffdc
    ee1c:	e51b3024 	ldr	r3, [fp, #-36]	; 0xffffffdc
    ee20:	e3530000 	cmp	r3, #0
    ee24:	0a000006 	beq	ee44 <mon_read_char_with_timeout+0x1b0>
    ee28:	e51b3024 	ldr	r3, [fp, #-36]	; 0xffffffdc
    ee2c:	e1a00003 	mov	r0, r3
    ee30:	e51b1030 	ldr	r1, [fp, #-48]	; 0xffffffd0
    ee34:	eb000014 	bl	ee8c <__call_COMM_IF_GETC_TIMEOUT>
    ee38:	e1a03000 	mov	r3, r0
    ee3c:	e50b3028 	str	r3, [fp, #-40]	; 0xffffffd8
    ee40:	ea000008 	b	ee68 <mon_read_char_with_timeout+0x1d4>
    ee44:	ebffff3f 	bl	eb48 <__call_vv_CYGNUM_CALL_IF_DEBUG_PROCS>
    ee48:	e1a03000 	mov	r3, r0
    ee4c:	e50b3024 	str	r3, [fp, #-36]	; 0xffffffdc
    ee50:	e51b3024 	ldr	r3, [fp, #-36]	; 0xffffffdc
    ee54:	e1a00003 	mov	r0, r3
    ee58:	e51b1030 	ldr	r1, [fp, #-48]	; 0xffffffd0
    ee5c:	eb00000a 	bl	ee8c <__call_COMM_IF_GETC_TIMEOUT>
    ee60:	e1a03000 	mov	r3, r0
    ee64:	e50b3028 	str	r3, [fp, #-40]	; 0xffffffd8
    ee68:	e51b3028 	ldr	r3, [fp, #-40]	; 0xffffffd8
    ee6c:	e50b3034 	str	r3, [fp, #-52]	; 0xffffffcc
    ee70:	e51b3034 	ldr	r3, [fp, #-52]	; 0xffffffcc
    ee74:	e1a00003 	mov	r0, r3
    ee78:	e24bd00c 	sub	sp, fp, #12
    ee7c:	e89d6800 	ldm	sp, {fp, sp, lr}
    ee80:	e12fff1e 	bx	lr
    ee84:	810056d4 	.word	0x810056d4
    ee88:	810033d8 	.word	0x810033d8

0000ee8c <__call_COMM_IF_GETC_TIMEOUT>:
    ee8c:	e1a0c00d 	mov	ip, sp
    ee90:	e92dd800 	push	{fp, ip, lr, pc}
    ee94:	e24cb004 	sub	fp, ip, #4
    ee98:	e24dd010 	sub	sp, sp, #16
    ee9c:	e50b0018 	str	r0, [fp, #-24]	; 0xffffffe8
    eea0:	e50b101c 	str	r1, [fp, #-28]	; 0xffffffe4
    eea4:	e51b3018 	ldr	r3, [fp, #-24]	; 0xffffffe8
    eea8:	e5933000 	ldr	r3, [r3]
    eeac:	e50b3010 	str	r3, [fp, #-16]
    eeb0:	e51b3018 	ldr	r3, [fp, #-24]	; 0xffffffe8
    eeb4:	e283301c 	add	r3, r3, #28
    eeb8:	e5933000 	ldr	r3, [r3]
    eebc:	e51b0010 	ldr	r0, [fp, #-16]
    eec0:	e51b101c 	ldr	r1, [fp, #-28]	; 0xffffffe4
    eec4:	e1a0e00f 	mov	lr, pc
    eec8:	e12fff13 	bx	r3
    eecc:	e1a03000 	mov	r3, r0
    eed0:	e50b3014 	str	r3, [fp, #-20]	; 0xffffffec
    eed4:	e51b3014 	ldr	r3, [fp, #-20]	; 0xffffffec
    eed8:	e1a00003 	mov	r0, r3
    eedc:	e24bd00c 	sub	sp, fp, #12
    eee0:	e89d6800 	ldm	sp, {fp, sp, lr}
    eee4:	e12fff1e 	bx	lr

0000eee8 <mon_set_read_char_timeout>:
    eee8:	e1a0c00d 	mov	ip, sp
    eeec:	e92dd800 	push	{fp, ip, lr, pc}
    eef0:	e24cb004 	sub	fp, ip, #4
    eef4:	e24dd020 	sub	sp, sp, #32
    eef8:	e50b0028 	str	r0, [fp, #-40]	; 0xffffffd8
    eefc:	e59f3148 	ldr	r3, [pc, #328]	; f04c <mon_set_read_char_timeout+0x164>
    ef00:	e5933000 	ldr	r3, [r3]
    ef04:	e3530000 	cmp	r3, #0
    ef08:	1a000028 	bne	efb0 <mon_set_read_char_timeout+0xc8>
    ef0c:	e3e00000 	mvn	r0, #0
    ef10:	ebfffea2 	bl	e9a0 <__call_vv_CYGNUM_CALL_IF_SET_CONSOLE_COMM>
    ef14:	e1a03000 	mov	r3, r0
    ef18:	e50b3020 	str	r3, [fp, #-32]	; 0xffffffe0
    ef1c:	e59f212c 	ldr	r2, [pc, #300]	; f050 <mon_set_read_char_timeout+0x168>
    ef20:	e51b3028 	ldr	r3, [fp, #-40]	; 0xffffffd8
    ef24:	e5823000 	str	r3, [r2]
    ef28:	e3a03001 	mov	r3, #1
    ef2c:	e50b3028 	str	r3, [fp, #-40]	; 0xffffffd8
    ef30:	e3a03000 	mov	r3, #0
    ef34:	e50b301c 	str	r3, [fp, #-28]	; 0xffffffe4
    ef38:	ea000016 	b	ef98 <mon_set_read_char_timeout+0xb0>
    ef3c:	e51b001c 	ldr	r0, [fp, #-28]	; 0xffffffe4
    ef40:	ebfffe96 	bl	e9a0 <__call_vv_CYGNUM_CALL_IF_SET_CONSOLE_COMM>
    ef44:	ebfffef5 	bl	eb20 <__call_vv_CYGNUM_CALL_IF_CONSOLE_PROCS>
    ef48:	e1a03000 	mov	r3, r0
    ef4c:	e50b3024 	str	r3, [fp, #-36]	; 0xffffffdc
    ef50:	e51b3024 	ldr	r3, [fp, #-36]	; 0xffffffdc
    ef54:	e3530000 	cmp	r3, #0
    ef58:	0a00000b 	beq	ef8c <mon_set_read_char_timeout+0xa4>
    ef5c:	e51b3024 	ldr	r3, [fp, #-36]	; 0xffffffdc
    ef60:	e5933014 	ldr	r3, [r3, #20]
    ef64:	e1a0c003 	mov	ip, r3
    ef68:	e51b3024 	ldr	r3, [fp, #-36]	; 0xffffffdc
    ef6c:	e5933000 	ldr	r3, [r3]
    ef70:	e1a00003 	mov	r0, r3
    ef74:	e3a01007 	mov	r1, #7
    ef78:	e51b2028 	ldr	r2, [fp, #-40]	; 0xffffffd8
    ef7c:	e1a0e00f 	mov	lr, pc
    ef80:	e12fff1c 	bx	ip
    ef84:	e1a03000 	mov	r3, r0
    ef88:	e50b3018 	str	r3, [fp, #-24]	; 0xffffffe8
    ef8c:	e51b301c 	ldr	r3, [fp, #-28]	; 0xffffffe4
    ef90:	e2833001 	add	r3, r3, #1
    ef94:	e50b301c 	str	r3, [fp, #-28]	; 0xffffffe4
    ef98:	e51b301c 	ldr	r3, [fp, #-28]	; 0xffffffe4
    ef9c:	e3530000 	cmp	r3, #0
    efa0:	daffffe5 	ble	ef3c <mon_set_read_char_timeout+0x54>
    efa4:	e51b0020 	ldr	r0, [fp, #-32]	; 0xffffffe0
    efa8:	ebfffe7c 	bl	e9a0 <__call_vv_CYGNUM_CALL_IF_SET_CONSOLE_COMM>
    efac:	ea000023 	b	f040 <mon_set_read_char_timeout+0x158>
    efb0:	ebfffeda 	bl	eb20 <__call_vv_CYGNUM_CALL_IF_CONSOLE_PROCS>
    efb4:	e1a03000 	mov	r3, r0
    efb8:	e50b3024 	str	r3, [fp, #-36]	; 0xffffffdc
    efbc:	e51b3024 	ldr	r3, [fp, #-36]	; 0xffffffdc
    efc0:	e3530000 	cmp	r3, #0
    efc4:	0a00000b 	beq	eff8 <mon_set_read_char_timeout+0x110>
    efc8:	e51b3024 	ldr	r3, [fp, #-36]	; 0xffffffdc
    efcc:	e5933014 	ldr	r3, [r3, #20]
    efd0:	e1a0c003 	mov	ip, r3
    efd4:	e51b3024 	ldr	r3, [fp, #-36]	; 0xffffffdc
    efd8:	e5933000 	ldr	r3, [r3]
    efdc:	e1a00003 	mov	r0, r3
    efe0:	e3a01007 	mov	r1, #7
    efe4:	e51b2028 	ldr	r2, [fp, #-40]	; 0xffffffd8
    efe8:	e1a0e00f 	mov	lr, pc
    efec:	e12fff1c 	bx	ip
    eff0:	e1a03000 	mov	r3, r0
    eff4:	e50b3014 	str	r3, [fp, #-20]	; 0xffffffec
    eff8:	ebfffed2 	bl	eb48 <__call_vv_CYGNUM_CALL_IF_DEBUG_PROCS>
    effc:	e1a03000 	mov	r3, r0
    f000:	e50b3024 	str	r3, [fp, #-36]	; 0xffffffdc
    f004:	e51b3024 	ldr	r3, [fp, #-36]	; 0xffffffdc
    f008:	e3530000 	cmp	r3, #0
    f00c:	0a00000b 	beq	f040 <mon_set_read_char_timeout+0x158>
    f010:	e51b3024 	ldr	r3, [fp, #-36]	; 0xffffffdc
    f014:	e5933014 	ldr	r3, [r3, #20]
    f018:	e1a0c003 	mov	ip, r3
    f01c:	e51b3024 	ldr	r3, [fp, #-36]	; 0xffffffdc
    f020:	e5933000 	ldr	r3, [r3]
    f024:	e1a00003 	mov	r0, r3
    f028:	e3a01007 	mov	r1, #7
    f02c:	e51b2028 	ldr	r2, [fp, #-40]	; 0xffffffd8
    f030:	e1a0e00f 	mov	lr, pc
    f034:	e12fff1c 	bx	ip
    f038:	e1a03000 	mov	r3, r0
    f03c:	e50b3010 	str	r3, [fp, #-16]
    f040:	e24bd00c 	sub	sp, fp, #12
    f044:	e89d6800 	ldm	sp, {fp, sp, lr}
    f048:	e12fff1e 	bx	lr
    f04c:	810056d4 	.word	0x810056d4
    f050:	810033d8 	.word	0x810033d8

0000f054 <_rb_gets_preloaded>:
    f054:	e1a0c00d 	mov	ip, sp
    f058:	e92dd800 	push	{fp, ip, lr, pc}
    f05c:	e24cb004 	sub	fp, ip, #4
    f060:	e24dd038 	sub	sp, sp, #56	; 0x38
    f064:	e50b0038 	str	r0, [fp, #-56]	; 0xffffffc8
    f068:	e50b103c 	str	r1, [fp, #-60]	; 0xffffffc4
    f06c:	e50b2040 	str	r2, [fp, #-64]	; 0xffffffc0
    f070:	e51b3038 	ldr	r3, [fp, #-56]	; 0xffffffc8
    f074:	e50b302c 	str	r3, [fp, #-44]	; 0xffffffd4
    f078:	e51b3038 	ldr	r3, [fp, #-56]	; 0xffffffc8
    f07c:	e50b3028 	str	r3, [fp, #-40]	; 0xffffffd8
    f080:	e3a03000 	mov	r3, #0
    f084:	e50b3024 	str	r3, [fp, #-36]	; 0xffffffdc
    f088:	e59f3cfc 	ldr	r3, [pc, #3324]	; fd8c <_rb_gets_preloaded+0xd38>
    f08c:	e5933000 	ldr	r3, [r3]
    f090:	e50b301c 	str	r3, [fp, #-28]	; 0xffffffe4
    f094:	e3a03000 	mov	r3, #0
    f098:	e50b3014 	str	r3, [fp, #-20]	; 0xffffffec
    f09c:	e3a03000 	mov	r3, #0
    f0a0:	e54b300d 	strb	r3, [fp, #-13]
    f0a4:	ea000006 	b	f0c4 <_rb_gets_preloaded+0x70>
    f0a8:	e51b3028 	ldr	r3, [fp, #-40]	; 0xffffffd8
    f0ac:	e5d32000 	ldrb	r2, [r3]
    f0b0:	e51b3028 	ldr	r3, [fp, #-40]	; 0xffffffd8
    f0b4:	e2833001 	add	r3, r3, #1
    f0b8:	e50b3028 	str	r3, [fp, #-40]	; 0xffffffd8
    f0bc:	e1a00002 	mov	r0, r2
    f0c0:	ebfffe5a 	bl	ea30 <mon_write_char>
    f0c4:	e51b3028 	ldr	r3, [fp, #-40]	; 0xffffffd8
    f0c8:	e5d33000 	ldrb	r3, [r3]
    f0cc:	e3530000 	cmp	r3, #0
    f0d0:	1afffff4 	bne	f0a8 <_rb_gets_preloaded+0x54>
    f0d4:	e51b3028 	ldr	r3, [fp, #-40]	; 0xffffffd8
    f0d8:	e50b302c 	str	r3, [fp, #-44]	; 0xffffffd4
    f0dc:	e51b3040 	ldr	r3, [fp, #-64]	; 0xffffffc0
    f0e0:	e3530000 	cmp	r3, #0
    f0e4:	da000024 	ble	f17c <_rb_gets_preloaded+0x128>
    f0e8:	e51b2028 	ldr	r2, [fp, #-40]	; 0xffffffd8
    f0ec:	e51b3038 	ldr	r3, [fp, #-56]	; 0xffffffc8
    f0f0:	e1520003 	cmp	r2, r3
    f0f4:	1a000020 	bne	f17c <_rb_gets_preloaded+0x128>
    f0f8:	e51b3040 	ldr	r3, [fp, #-64]	; 0xffffffc0
    f0fc:	e3530032 	cmp	r3, #50	; 0x32
    f100:	a3a03032 	movge	r3, #50	; 0x32
    f104:	e50b3020 	str	r3, [fp, #-32]	; 0xffffffe0
    f108:	e51b0020 	ldr	r0, [fp, #-32]	; 0xffffffe0
    f10c:	ebffff75 	bl	eee8 <mon_set_read_char_timeout>
    f110:	ea00000e 	b	f150 <_rb_gets_preloaded+0xfc>
    f114:	e24b302d 	sub	r3, fp, #45	; 0x2d
    f118:	e1a00003 	mov	r0, r3
    f11c:	ebfffedc 	bl	ec94 <mon_read_char_with_timeout>
    f120:	e1a03000 	mov	r3, r0
    f124:	e50b3024 	str	r3, [fp, #-36]	; 0xffffffdc
    f128:	e51b3024 	ldr	r3, [fp, #-36]	; 0xffffffdc
    f12c:	e3530000 	cmp	r3, #0
    f130:	0a000002 	beq	f140 <_rb_gets_preloaded+0xec>
    f134:	e3a00000 	mov	r0, #0
    f138:	ebfff8dd 	bl	d4b4 <do_idle>
    f13c:	ea000006 	b	f15c <_rb_gets_preloaded+0x108>
    f140:	e51b3040 	ldr	r3, [fp, #-64]	; 0xffffffc0
    f144:	e51b2020 	ldr	r2, [fp, #-32]	; 0xffffffe0
    f148:	e0623003 	rsb	r3, r2, r3
    f14c:	e50b3040 	str	r3, [fp, #-64]	; 0xffffffc0
    f150:	e51b3040 	ldr	r3, [fp, #-64]	; 0xffffffc0
    f154:	e3530000 	cmp	r3, #0
    f158:	caffffed 	bgt	f114 <_rb_gets_preloaded+0xc0>
    f15c:	e51b3024 	ldr	r3, [fp, #-36]	; 0xffffffdc
    f160:	e3530000 	cmp	r3, #0
    f164:	1a000007 	bne	f188 <_rb_gets_preloaded+0x134>
    f168:	e3a00001 	mov	r0, #1
    f16c:	ebfff8d0 	bl	d4b4 <do_idle>
    f170:	e3e03000 	mvn	r3, #0
    f174:	e50b3044 	str	r3, [fp, #-68]	; 0xffffffbc
    f178:	ea0002fe 	b	fd78 <_rb_gets_preloaded+0xd24>
    f17c:	e24b302d 	sub	r3, fp, #45	; 0x2d
    f180:	e1a00003 	mov	r0, r3
    f184:	ebfffe8f 	bl	ebc8 <mon_read_char>
    f188:	e51b2028 	ldr	r2, [fp, #-40]	; 0xffffffd8
    f18c:	e3a03000 	mov	r3, #0
    f190:	e5c23000 	strb	r3, [r2]
    f194:	e55b302d 	ldrb	r3, [fp, #-45]	; 0xffffffd3
    f198:	e353001b 	cmp	r3, #27
    f19c:	1a000002 	bne	f1ac <_rb_gets_preloaded+0x158>
    f1a0:	e3a03001 	mov	r3, #1
    f1a4:	e50b3014 	str	r3, [fp, #-20]	; 0xffffffec
    f1a8:	eaffffcb 	b	f0dc <_rb_gets_preloaded+0x88>
    f1ac:	e51b3014 	ldr	r3, [fp, #-20]	; 0xffffffec
    f1b0:	e3530004 	cmp	r3, #4
    f1b4:	979ff103 	ldrls	pc, [pc, r3, lsl #2]
    f1b8:	ea00005d 	b	f334 <_rb_gets_preloaded+0x2e0>
    f1bc:	0000f334 	.word	0x0000f334
    f1c0:	0000f1d0 	.word	0x0000f1d0
    f1c4:	0000f20c 	.word	0x0000f20c
    f1c8:	0000f2f8 	.word	0x0000f2f8
    f1cc:	0000f318 	.word	0x0000f318
    f1d0:	e55b302d 	ldrb	r3, [fp, #-45]	; 0xffffffd3
    f1d4:	e353005b 	cmp	r3, #91	; 0x5b
    f1d8:	1a000002 	bne	f1e8 <_rb_gets_preloaded+0x194>
    f1dc:	e3a03002 	mov	r3, #2
    f1e0:	e50b3014 	str	r3, [fp, #-20]	; 0xffffffec
    f1e4:	eaffffbc 	b	f0dc <_rb_gets_preloaded+0x88>
    f1e8:	e55b302d 	ldrb	r3, [fp, #-45]	; 0xffffffd3
    f1ec:	e353004f 	cmp	r3, #79	; 0x4f
    f1f0:	1a000002 	bne	f200 <_rb_gets_preloaded+0x1ac>
    f1f4:	e3a03004 	mov	r3, #4
    f1f8:	e50b3014 	str	r3, [fp, #-20]	; 0xffffffec
    f1fc:	eaffffb6 	b	f0dc <_rb_gets_preloaded+0x88>
    f200:	e3a03000 	mov	r3, #0
    f204:	e50b3014 	str	r3, [fp, #-20]	; 0xffffffec
    f208:	eaffffb3 	b	f0dc <_rb_gets_preloaded+0x88>
    f20c:	e3a03000 	mov	r3, #0
    f210:	e50b3014 	str	r3, [fp, #-20]	; 0xffffffec
    f214:	e55b302d 	ldrb	r3, [fp, #-45]	; 0xffffffd3
    f218:	e2433031 	sub	r3, r3, #49	; 0x31
    f21c:	e3530017 	cmp	r3, #23
    f220:	979ff103 	ldrls	pc, [pc, r3, lsl #2]
    f224:	eaffffac 	b	f0dc <_rb_gets_preloaded+0x88>
    f228:	0000f2d0 	.word	0x0000f2d0
    f22c:	0000f0dc 	.word	0x0000f0dc
    f230:	0000f2e4 	.word	0x0000f2e4
    f234:	0000f0dc 	.word	0x0000f0dc
    f238:	0000f0dc 	.word	0x0000f0dc
    f23c:	0000f0dc 	.word	0x0000f0dc
    f240:	0000f0dc 	.word	0x0000f0dc
    f244:	0000f0dc 	.word	0x0000f0dc
    f248:	0000f0dc 	.word	0x0000f0dc
    f24c:	0000f0dc 	.word	0x0000f0dc
    f250:	0000f0dc 	.word	0x0000f0dc
    f254:	0000f0dc 	.word	0x0000f0dc
    f258:	0000f0dc 	.word	0x0000f0dc
    f25c:	0000f0dc 	.word	0x0000f0dc
    f260:	0000f0dc 	.word	0x0000f0dc
    f264:	0000f0dc 	.word	0x0000f0dc
    f268:	0000f288 	.word	0x0000f288
    f26c:	0000f294 	.word	0x0000f294
    f270:	0000f2a0 	.word	0x0000f2a0
    f274:	0000f2ac 	.word	0x0000f2ac
    f278:	0000f0dc 	.word	0x0000f0dc
    f27c:	0000f2b8 	.word	0x0000f2b8
    f280:	0000f0dc 	.word	0x0000f0dc
    f284:	0000f2c4 	.word	0x0000f2c4
    f288:	e3a03010 	mov	r3, #16
    f28c:	e54b302d 	strb	r3, [fp, #-45]	; 0xffffffd3
    f290:	ea000027 	b	f334 <_rb_gets_preloaded+0x2e0>
    f294:	e3a0300e 	mov	r3, #14
    f298:	e54b302d 	strb	r3, [fp, #-45]	; 0xffffffd3
    f29c:	ea000024 	b	f334 <_rb_gets_preloaded+0x2e0>
    f2a0:	e3a03006 	mov	r3, #6
    f2a4:	e54b302d 	strb	r3, [fp, #-45]	; 0xffffffd3
    f2a8:	ea000021 	b	f334 <_rb_gets_preloaded+0x2e0>
    f2ac:	e3a03002 	mov	r3, #2
    f2b0:	e54b302d 	strb	r3, [fp, #-45]	; 0xffffffd3
    f2b4:	ea00001e 	b	f334 <_rb_gets_preloaded+0x2e0>
    f2b8:	e3a03005 	mov	r3, #5
    f2bc:	e54b302d 	strb	r3, [fp, #-45]	; 0xffffffd3
    f2c0:	ea00001b 	b	f334 <_rb_gets_preloaded+0x2e0>
    f2c4:	e3a03001 	mov	r3, #1
    f2c8:	e54b302d 	strb	r3, [fp, #-45]	; 0xffffffd3
    f2cc:	ea000018 	b	f334 <_rb_gets_preloaded+0x2e0>
    f2d0:	e3a03001 	mov	r3, #1
    f2d4:	e54b300d 	strb	r3, [fp, #-13]
    f2d8:	e3a03003 	mov	r3, #3
    f2dc:	e50b3014 	str	r3, [fp, #-20]	; 0xffffffec
    f2e0:	eaffff7d 	b	f0dc <_rb_gets_preloaded+0x88>
    f2e4:	e3a03004 	mov	r3, #4
    f2e8:	e54b300d 	strb	r3, [fp, #-13]
    f2ec:	e3a03003 	mov	r3, #3
    f2f0:	e50b3014 	str	r3, [fp, #-20]	; 0xffffffec
    f2f4:	eaffff78 	b	f0dc <_rb_gets_preloaded+0x88>
    f2f8:	e3a03000 	mov	r3, #0
    f2fc:	e50b3014 	str	r3, [fp, #-20]	; 0xffffffec
    f300:	e55b302d 	ldrb	r3, [fp, #-45]	; 0xffffffd3
    f304:	e353007e 	cmp	r3, #126	; 0x7e
    f308:	1affff73 	bne	f0dc <_rb_gets_preloaded+0x88>
    f30c:	e55b300d 	ldrb	r3, [fp, #-13]
    f310:	e54b302d 	strb	r3, [fp, #-45]	; 0xffffffd3
    f314:	ea000006 	b	f334 <_rb_gets_preloaded+0x2e0>
    f318:	e3a03000 	mov	r3, #0
    f31c:	e50b3014 	str	r3, [fp, #-20]	; 0xffffffec
    f320:	e55b302d 	ldrb	r3, [fp, #-45]	; 0xffffffd3
    f324:	e3530046 	cmp	r3, #70	; 0x46
    f328:	1affff6b 	bne	f0dc <_rb_gets_preloaded+0x88>
    f32c:	e3a03005 	mov	r3, #5
    f330:	e54b302d 	strb	r3, [fp, #-45]	; 0xffffffd3
    f334:	e55b302d 	ldrb	r3, [fp, #-45]	; 0xffffffd3
    f338:	e2433001 	sub	r3, r3, #1
    f33c:	e353007e 	cmp	r3, #126	; 0x7e
    f340:	979ff103 	ldrls	pc, [pc, r3, lsl #2]
    f344:	ea00022d 	b	fc00 <_rb_gets_preloaded+0xbac>
    f348:	0000f768 	.word	0x0000f768
    f34c:	0000f6e0 	.word	0x0000f6e0
    f350:	0000f8fc 	.word	0x0000f8fc
    f354:	0000f848 	.word	0x0000f848
    f358:	0000f754 	.word	0x0000f754
    f35c:	0000f708 	.word	0x0000f708
    f360:	0000fc00 	.word	0x0000fc00
    f364:	0000fa4c 	.word	0x0000fa4c
    f368:	0000fc00 	.word	0x0000fc00
    f36c:	0000f91c 	.word	0x0000f91c
    f370:	0000f7c4 	.word	0x0000f7c4
    f374:	0000fc00 	.word	0x0000fc00
    f378:	0000f91c 	.word	0x0000f91c
    f37c:	0000f610 	.word	0x0000f610
    f380:	0000fc00 	.word	0x0000fc00
    f384:	0000f544 	.word	0x0000f544
    f388:	0000fc00 	.word	0x0000fc00
    f38c:	0000fc00 	.word	0x0000fc00
    f390:	0000fc00 	.word	0x0000fc00
    f394:	0000fc00 	.word	0x0000fc00
    f398:	0000fc00 	.word	0x0000fc00
    f39c:	0000fc00 	.word	0x0000fc00
    f3a0:	0000fc00 	.word	0x0000fc00
    f3a4:	0000fc00 	.word	0x0000fc00
    f3a8:	0000fc00 	.word	0x0000fc00
    f3ac:	0000fc00 	.word	0x0000fc00
    f3b0:	0000fc00 	.word	0x0000fc00
    f3b4:	0000fc00 	.word	0x0000fc00
    f3b8:	0000fc00 	.word	0x0000fc00
    f3bc:	0000fc00 	.word	0x0000fc00
    f3c0:	0000fc00 	.word	0x0000fc00
    f3c4:	0000fc00 	.word	0x0000fc00
    f3c8:	0000fc00 	.word	0x0000fc00
    f3cc:	0000fc00 	.word	0x0000fc00
    f3d0:	0000fc00 	.word	0x0000fc00
    f3d4:	0000fb60 	.word	0x0000fb60
    f3d8:	0000fc00 	.word	0x0000fc00
    f3dc:	0000fc00 	.word	0x0000fc00
    f3e0:	0000fc00 	.word	0x0000fc00
    f3e4:	0000fc00 	.word	0x0000fc00
    f3e8:	0000fc00 	.word	0x0000fc00
    f3ec:	0000fc00 	.word	0x0000fc00
    f3f0:	0000fb60 	.word	0x0000fb60
    f3f4:	0000fc00 	.word	0x0000fc00
    f3f8:	0000fc00 	.word	0x0000fc00
    f3fc:	0000fc00 	.word	0x0000fc00
    f400:	0000fc00 	.word	0x0000fc00
    f404:	0000fc00 	.word	0x0000fc00
    f408:	0000fc00 	.word	0x0000fc00
    f40c:	0000fc00 	.word	0x0000fc00
    f410:	0000fc00 	.word	0x0000fc00
    f414:	0000fc00 	.word	0x0000fc00
    f418:	0000fc00 	.word	0x0000fc00
    f41c:	0000fc00 	.word	0x0000fc00
    f420:	0000fc00 	.word	0x0000fc00
    f424:	0000fc00 	.word	0x0000fc00
    f428:	0000fc00 	.word	0x0000fc00
    f42c:	0000fc00 	.word	0x0000fc00
    f430:	0000fc00 	.word	0x0000fc00
    f434:	0000fc00 	.word	0x0000fc00
    f438:	0000fc00 	.word	0x0000fc00
    f43c:	0000fc00 	.word	0x0000fc00
    f440:	0000fc00 	.word	0x0000fc00
    f444:	0000fc00 	.word	0x0000fc00
    f448:	0000fc00 	.word	0x0000fc00
    f44c:	0000fc00 	.word	0x0000fc00
    f450:	0000fc00 	.word	0x0000fc00
    f454:	0000fc00 	.word	0x0000fc00
    f458:	0000fc00 	.word	0x0000fc00
    f45c:	0000fc00 	.word	0x0000fc00
    f460:	0000fc00 	.word	0x0000fc00
    f464:	0000fc00 	.word	0x0000fc00
    f468:	0000fc00 	.word	0x0000fc00
    f46c:	0000fc00 	.word	0x0000fc00
    f470:	0000fc00 	.word	0x0000fc00
    f474:	0000fc00 	.word	0x0000fc00
    f478:	0000fc00 	.word	0x0000fc00
    f47c:	0000fc00 	.word	0x0000fc00
    f480:	0000fc00 	.word	0x0000fc00
    f484:	0000fc00 	.word	0x0000fc00
    f488:	0000fc00 	.word	0x0000fc00
    f48c:	0000fc00 	.word	0x0000fc00
    f490:	0000fc00 	.word	0x0000fc00
    f494:	0000fc00 	.word	0x0000fc00
    f498:	0000fc00 	.word	0x0000fc00
    f49c:	0000fc00 	.word	0x0000fc00
    f4a0:	0000fc00 	.word	0x0000fc00
    f4a4:	0000fc00 	.word	0x0000fc00
    f4a8:	0000fc00 	.word	0x0000fc00
    f4ac:	0000fc00 	.word	0x0000fc00
    f4b0:	0000fc00 	.word	0x0000fc00
    f4b4:	0000fc00 	.word	0x0000fc00
    f4b8:	0000fc00 	.word	0x0000fc00
    f4bc:	0000fc00 	.word	0x0000fc00
    f4c0:	0000fc00 	.word	0x0000fc00
    f4c4:	0000fc00 	.word	0x0000fc00
    f4c8:	0000fc00 	.word	0x0000fc00
    f4cc:	0000fc00 	.word	0x0000fc00
    f4d0:	0000fc00 	.word	0x0000fc00
    f4d4:	0000fc00 	.word	0x0000fc00
    f4d8:	0000fc00 	.word	0x0000fc00
    f4dc:	0000fc00 	.word	0x0000fc00
    f4e0:	0000fc00 	.word	0x0000fc00
    f4e4:	0000fc00 	.word	0x0000fc00
    f4e8:	0000fc00 	.word	0x0000fc00
    f4ec:	0000fc00 	.word	0x0000fc00
    f4f0:	0000fc00 	.word	0x0000fc00
    f4f4:	0000fc00 	.word	0x0000fc00
    f4f8:	0000fc00 	.word	0x0000fc00
    f4fc:	0000fc00 	.word	0x0000fc00
    f500:	0000fc00 	.word	0x0000fc00
    f504:	0000fc00 	.word	0x0000fc00
    f508:	0000fc00 	.word	0x0000fc00
    f50c:	0000fc00 	.word	0x0000fc00
    f510:	0000fc00 	.word	0x0000fc00
    f514:	0000fc00 	.word	0x0000fc00
    f518:	0000fc00 	.word	0x0000fc00
    f51c:	0000fc00 	.word	0x0000fc00
    f520:	0000fc00 	.word	0x0000fc00
    f524:	0000fc00 	.word	0x0000fc00
    f528:	0000fc00 	.word	0x0000fc00
    f52c:	0000fc00 	.word	0x0000fc00
    f530:	0000fc00 	.word	0x0000fc00
    f534:	0000fc00 	.word	0x0000fc00
    f538:	0000fc00 	.word	0x0000fc00
    f53c:	0000fc00 	.word	0x0000fc00
    f540:	0000fa4c 	.word	0x0000fa4c
    f544:	e51b301c 	ldr	r3, [fp, #-28]	; 0xffffffe4
    f548:	e3530000 	cmp	r3, #0
    f54c:	ba00002c 	blt	f604 <_rb_gets_preloaded+0x5b0>
    f550:	ea000008 	b	f578 <_rb_gets_preloaded+0x524>
    f554:	e3a00008 	mov	r0, #8
    f558:	ebfffd34 	bl	ea30 <mon_write_char>
    f55c:	e3a00020 	mov	r0, #32
    f560:	ebfffd32 	bl	ea30 <mon_write_char>
    f564:	e3a00008 	mov	r0, #8
    f568:	ebfffd30 	bl	ea30 <mon_write_char>
    f56c:	e51b302c 	ldr	r3, [fp, #-44]	; 0xffffffd4
    f570:	e2433001 	sub	r3, r3, #1
    f574:	e50b302c 	str	r3, [fp, #-44]	; 0xffffffd4
    f578:	e51b202c 	ldr	r2, [fp, #-44]	; 0xffffffd4
    f57c:	e51b3038 	ldr	r3, [fp, #-56]	; 0xffffffc8
    f580:	e1520003 	cmp	r2, r3
    f584:	1afffff2 	bne	f554 <_rb_gets_preloaded+0x500>
    f588:	e59f2800 	ldr	r2, [pc, #2048]	; fd90 <_rb_gets_preloaded+0xd3c>
    f58c:	e51b301c 	ldr	r3, [fp, #-28]	; 0xffffffe4
    f590:	e1a03403 	lsl	r3, r3, #8
    f594:	e0823003 	add	r3, r2, r3
    f598:	e51b0038 	ldr	r0, [fp, #-56]	; 0xffffffc8
    f59c:	e1a01003 	mov	r1, r3
    f5a0:	eb00087a 	bl	11790 <__strcpy>
    f5a4:	ea000006 	b	f5c4 <_rb_gets_preloaded+0x570>
    f5a8:	e51b302c 	ldr	r3, [fp, #-44]	; 0xffffffd4
    f5ac:	e5d32000 	ldrb	r2, [r3]
    f5b0:	e51b302c 	ldr	r3, [fp, #-44]	; 0xffffffd4
    f5b4:	e2833001 	add	r3, r3, #1
    f5b8:	e50b302c 	str	r3, [fp, #-44]	; 0xffffffd4
    f5bc:	e1a00002 	mov	r0, r2
    f5c0:	ebfffd1a 	bl	ea30 <mon_write_char>
    f5c4:	e51b302c 	ldr	r3, [fp, #-44]	; 0xffffffd4
    f5c8:	e5d33000 	ldrb	r3, [r3]
    f5cc:	e3530000 	cmp	r3, #0
    f5d0:	1afffff4 	bne	f5a8 <_rb_gets_preloaded+0x554>
    f5d4:	e51b302c 	ldr	r3, [fp, #-44]	; 0xffffffd4
    f5d8:	e50b3028 	str	r3, [fp, #-40]	; 0xffffffd8
    f5dc:	e51b301c 	ldr	r3, [fp, #-28]	; 0xffffffe4
    f5e0:	e2433001 	sub	r3, r3, #1
    f5e4:	e50b301c 	str	r3, [fp, #-28]	; 0xffffffe4
    f5e8:	e51b301c 	ldr	r3, [fp, #-28]	; 0xffffffe4
    f5ec:	e3530000 	cmp	r3, #0
    f5f0:	aa0001d1 	bge	fd3c <_rb_gets_preloaded+0xce8>
    f5f4:	e59f3798 	ldr	r3, [pc, #1944]	; fd94 <_rb_gets_preloaded+0xd40>
    f5f8:	e5933000 	ldr	r3, [r3]
    f5fc:	e50b301c 	str	r3, [fp, #-28]	; 0xffffffe4
    f600:	ea0001cd 	b	fd3c <_rb_gets_preloaded+0xce8>
    f604:	e3a00007 	mov	r0, #7
    f608:	ebfffd08 	bl	ea30 <mon_write_char>
    f60c:	ea0001ca 	b	fd3c <_rb_gets_preloaded+0xce8>
    f610:	e51b301c 	ldr	r3, [fp, #-28]	; 0xffffffe4
    f614:	e3530000 	cmp	r3, #0
    f618:	ba00002d 	blt	f6d4 <_rb_gets_preloaded+0x680>
    f61c:	e51b301c 	ldr	r3, [fp, #-28]	; 0xffffffe4
    f620:	e2833001 	add	r3, r3, #1
    f624:	e50b301c 	str	r3, [fp, #-28]	; 0xffffffe4
    f628:	e59f3764 	ldr	r3, [pc, #1892]	; fd94 <_rb_gets_preloaded+0xd40>
    f62c:	e5932000 	ldr	r2, [r3]
    f630:	e51b301c 	ldr	r3, [fp, #-28]	; 0xffffffe4
    f634:	e1530002 	cmp	r3, r2
    f638:	da00000b 	ble	f66c <_rb_gets_preloaded+0x618>
    f63c:	e3a03000 	mov	r3, #0
    f640:	e50b301c 	str	r3, [fp, #-28]	; 0xffffffe4
    f644:	ea000008 	b	f66c <_rb_gets_preloaded+0x618>
    f648:	e3a00008 	mov	r0, #8
    f64c:	ebfffcf7 	bl	ea30 <mon_write_char>
    f650:	e3a00020 	mov	r0, #32
    f654:	ebfffcf5 	bl	ea30 <mon_write_char>
    f658:	e3a00008 	mov	r0, #8
    f65c:	ebfffcf3 	bl	ea30 <mon_write_char>
    f660:	e51b302c 	ldr	r3, [fp, #-44]	; 0xffffffd4
    f664:	e2433001 	sub	r3, r3, #1
    f668:	e50b302c 	str	r3, [fp, #-44]	; 0xffffffd4
    f66c:	e51b202c 	ldr	r2, [fp, #-44]	; 0xffffffd4
    f670:	e51b3038 	ldr	r3, [fp, #-56]	; 0xffffffc8
    f674:	e1520003 	cmp	r2, r3
    f678:	1afffff2 	bne	f648 <_rb_gets_preloaded+0x5f4>
    f67c:	e59f270c 	ldr	r2, [pc, #1804]	; fd90 <_rb_gets_preloaded+0xd3c>
    f680:	e51b301c 	ldr	r3, [fp, #-28]	; 0xffffffe4
    f684:	e1a03403 	lsl	r3, r3, #8
    f688:	e0823003 	add	r3, r2, r3
    f68c:	e51b0038 	ldr	r0, [fp, #-56]	; 0xffffffc8
    f690:	e1a01003 	mov	r1, r3
    f694:	eb00083d 	bl	11790 <__strcpy>
    f698:	ea000006 	b	f6b8 <_rb_gets_preloaded+0x664>
    f69c:	e51b302c 	ldr	r3, [fp, #-44]	; 0xffffffd4
    f6a0:	e5d32000 	ldrb	r2, [r3]
    f6a4:	e51b302c 	ldr	r3, [fp, #-44]	; 0xffffffd4
    f6a8:	e2833001 	add	r3, r3, #1
    f6ac:	e50b302c 	str	r3, [fp, #-44]	; 0xffffffd4
    f6b0:	e1a00002 	mov	r0, r2
    f6b4:	ebfffcdd 	bl	ea30 <mon_write_char>
    f6b8:	e51b302c 	ldr	r3, [fp, #-44]	; 0xffffffd4
    f6bc:	e5d33000 	ldrb	r3, [r3]
    f6c0:	e3530000 	cmp	r3, #0
    f6c4:	1afffff4 	bne	f69c <_rb_gets_preloaded+0x648>
    f6c8:	e51b302c 	ldr	r3, [fp, #-44]	; 0xffffffd4
    f6cc:	e50b3028 	str	r3, [fp, #-40]	; 0xffffffd8
    f6d0:	ea000199 	b	fd3c <_rb_gets_preloaded+0xce8>
    f6d4:	e3a00007 	mov	r0, #7
    f6d8:	ebfffcd4 	bl	ea30 <mon_write_char>
    f6dc:	ea000196 	b	fd3c <_rb_gets_preloaded+0xce8>
    f6e0:	e51b202c 	ldr	r2, [fp, #-44]	; 0xffffffd4
    f6e4:	e51b3038 	ldr	r3, [fp, #-56]	; 0xffffffc8
    f6e8:	e1520003 	cmp	r2, r3
    f6ec:	0a000192 	beq	fd3c <_rb_gets_preloaded+0xce8>
    f6f0:	e3a00008 	mov	r0, #8
    f6f4:	ebfffccd 	bl	ea30 <mon_write_char>
    f6f8:	e51b302c 	ldr	r3, [fp, #-44]	; 0xffffffd4
    f6fc:	e2433001 	sub	r3, r3, #1
    f700:	e50b302c 	str	r3, [fp, #-44]	; 0xffffffd4
    f704:	ea00018c 	b	fd3c <_rb_gets_preloaded+0xce8>
    f708:	e51b202c 	ldr	r2, [fp, #-44]	; 0xffffffd4
    f70c:	e51b3028 	ldr	r3, [fp, #-40]	; 0xffffffd8
    f710:	e1520003 	cmp	r2, r3
    f714:	0a000188 	beq	fd3c <_rb_gets_preloaded+0xce8>
    f718:	e51b302c 	ldr	r3, [fp, #-44]	; 0xffffffd4
    f71c:	e5d32000 	ldrb	r2, [r3]
    f720:	e51b302c 	ldr	r3, [fp, #-44]	; 0xffffffd4
    f724:	e2833001 	add	r3, r3, #1
    f728:	e50b302c 	str	r3, [fp, #-44]	; 0xffffffd4
    f72c:	e1a00002 	mov	r0, r2
    f730:	ebfffcbe 	bl	ea30 <mon_write_char>
    f734:	ea000180 	b	fd3c <_rb_gets_preloaded+0xce8>
    f738:	e51b302c 	ldr	r3, [fp, #-44]	; 0xffffffd4
    f73c:	e5d32000 	ldrb	r2, [r3]
    f740:	e51b302c 	ldr	r3, [fp, #-44]	; 0xffffffd4
    f744:	e2833001 	add	r3, r3, #1
    f748:	e50b302c 	str	r3, [fp, #-44]	; 0xffffffd4
    f74c:	e1a00002 	mov	r0, r2
    f750:	ebfffcb6 	bl	ea30 <mon_write_char>
    f754:	e51b202c 	ldr	r2, [fp, #-44]	; 0xffffffd4
    f758:	e51b3028 	ldr	r3, [fp, #-40]	; 0xffffffd8
    f75c:	e1520003 	cmp	r2, r3
    f760:	1afffff4 	bne	f738 <_rb_gets_preloaded+0x6e4>
    f764:	ea000174 	b	fd3c <_rb_gets_preloaded+0xce8>
    f768:	e51b202c 	ldr	r2, [fp, #-44]	; 0xffffffd4
    f76c:	e51b3038 	ldr	r3, [fp, #-56]	; 0xffffffc8
    f770:	e1520003 	cmp	r2, r3
    f774:	0a00000f 	beq	f7b8 <_rb_gets_preloaded+0x764>
    f778:	e51b302c 	ldr	r3, [fp, #-44]	; 0xffffffd4
    f77c:	e50b3018 	str	r3, [fp, #-24]	; 0xffffffe8
    f780:	ea000001 	b	f78c <_rb_gets_preloaded+0x738>
    f784:	e3a00008 	mov	r0, #8
    f788:	ebfffca8 	bl	ea30 <mon_write_char>
    f78c:	e51b2018 	ldr	r2, [fp, #-24]	; 0xffffffe8
    f790:	e51b3038 	ldr	r3, [fp, #-56]	; 0xffffffc8
    f794:	e1520003 	cmp	r2, r3
    f798:	03a03000 	moveq	r3, #0
    f79c:	13a03001 	movne	r3, #1
    f7a0:	e20320ff 	and	r2, r3, #255	; 0xff
    f7a4:	e51b3018 	ldr	r3, [fp, #-24]	; 0xffffffe8
    f7a8:	e2433001 	sub	r3, r3, #1
    f7ac:	e50b3018 	str	r3, [fp, #-24]	; 0xffffffe8
    f7b0:	e3520000 	cmp	r2, #0
    f7b4:	1afffff2 	bne	f784 <_rb_gets_preloaded+0x730>
    f7b8:	e51b3038 	ldr	r3, [fp, #-56]	; 0xffffffc8
    f7bc:	e50b302c 	str	r3, [fp, #-44]	; 0xffffffd4
    f7c0:	ea00015d 	b	fd3c <_rb_gets_preloaded+0xce8>
    f7c4:	e51b202c 	ldr	r2, [fp, #-44]	; 0xffffffd4
    f7c8:	e51b3028 	ldr	r3, [fp, #-40]	; 0xffffffd8
    f7cc:	e1520003 	cmp	r2, r3
    f7d0:	0a000159 	beq	fd3c <_rb_gets_preloaded+0xce8>
    f7d4:	e51b302c 	ldr	r3, [fp, #-44]	; 0xffffffd4
    f7d8:	e50b3018 	str	r3, [fp, #-24]	; 0xffffffe8
    f7dc:	ea000001 	b	f7e8 <_rb_gets_preloaded+0x794>
    f7e0:	e3a00020 	mov	r0, #32
    f7e4:	ebfffc91 	bl	ea30 <mon_write_char>
    f7e8:	e51b2018 	ldr	r2, [fp, #-24]	; 0xffffffe8
    f7ec:	e51b3028 	ldr	r3, [fp, #-40]	; 0xffffffd8
    f7f0:	e1520003 	cmp	r2, r3
    f7f4:	03a03000 	moveq	r3, #0
    f7f8:	13a03001 	movne	r3, #1
    f7fc:	e20320ff 	and	r2, r3, #255	; 0xff
    f800:	e51b3018 	ldr	r3, [fp, #-24]	; 0xffffffe8
    f804:	e2833001 	add	r3, r3, #1
    f808:	e50b3018 	str	r3, [fp, #-24]	; 0xffffffe8
    f80c:	e3520000 	cmp	r2, #0
    f810:	1afffff2 	bne	f7e0 <_rb_gets_preloaded+0x78c>
    f814:	ea000001 	b	f820 <_rb_gets_preloaded+0x7cc>
    f818:	e3a00008 	mov	r0, #8
    f81c:	ebfffc83 	bl	ea30 <mon_write_char>
    f820:	e51b3018 	ldr	r3, [fp, #-24]	; 0xffffffe8
    f824:	e2433001 	sub	r3, r3, #1
    f828:	e50b3018 	str	r3, [fp, #-24]	; 0xffffffe8
    f82c:	e51b2018 	ldr	r2, [fp, #-24]	; 0xffffffe8
    f830:	e51b302c 	ldr	r3, [fp, #-44]	; 0xffffffd4
    f834:	e1520003 	cmp	r2, r3
    f838:	1afffff6 	bne	f818 <_rb_gets_preloaded+0x7c4>
    f83c:	e51b302c 	ldr	r3, [fp, #-44]	; 0xffffffd4
    f840:	e50b3028 	str	r3, [fp, #-40]	; 0xffffffd8
    f844:	ea00013c 	b	fd3c <_rb_gets_preloaded+0xce8>
    f848:	e51b202c 	ldr	r2, [fp, #-44]	; 0xffffffd4
    f84c:	e51b3028 	ldr	r3, [fp, #-40]	; 0xffffffd8
    f850:	e1520003 	cmp	r2, r3
    f854:	0a000138 	beq	fd3c <_rb_gets_preloaded+0xce8>
    f858:	e51b302c 	ldr	r3, [fp, #-44]	; 0xffffffd4
    f85c:	e50b3018 	str	r3, [fp, #-24]	; 0xffffffe8
    f860:	e51b3028 	ldr	r3, [fp, #-40]	; 0xffffffd8
    f864:	e2433001 	sub	r3, r3, #1
    f868:	e50b3028 	str	r3, [fp, #-40]	; 0xffffffd8
    f86c:	ea00000b 	b	f8a0 <_rb_gets_preloaded+0x84c>
    f870:	e51b3018 	ldr	r3, [fp, #-24]	; 0xffffffe8
    f874:	e2833001 	add	r3, r3, #1
    f878:	e5d33000 	ldrb	r3, [r3]
    f87c:	e51b2018 	ldr	r2, [fp, #-24]	; 0xffffffe8
    f880:	e5c23000 	strb	r3, [r2]
    f884:	e51b3018 	ldr	r3, [fp, #-24]	; 0xffffffe8
    f888:	e5d32000 	ldrb	r2, [r3]
    f88c:	e51b3018 	ldr	r3, [fp, #-24]	; 0xffffffe8
    f890:	e2833001 	add	r3, r3, #1
    f894:	e50b3018 	str	r3, [fp, #-24]	; 0xffffffe8
    f898:	e1a00002 	mov	r0, r2
    f89c:	ebfffc63 	bl	ea30 <mon_write_char>
    f8a0:	e51b2018 	ldr	r2, [fp, #-24]	; 0xffffffe8
    f8a4:	e51b3028 	ldr	r3, [fp, #-40]	; 0xffffffd8
    f8a8:	e1520003 	cmp	r2, r3
    f8ac:	1affffef 	bne	f870 <_rb_gets_preloaded+0x81c>
    f8b0:	e3a00020 	mov	r0, #32
    f8b4:	ebfffc5d 	bl	ea30 <mon_write_char>
    f8b8:	e3a00008 	mov	r0, #8
    f8bc:	ebfffc5b 	bl	ea30 <mon_write_char>
    f8c0:	ea000001 	b	f8cc <_rb_gets_preloaded+0x878>
    f8c4:	e3a00008 	mov	r0, #8
    f8c8:	ebfffc58 	bl	ea30 <mon_write_char>
    f8cc:	e51b2018 	ldr	r2, [fp, #-24]	; 0xffffffe8
    f8d0:	e51b302c 	ldr	r3, [fp, #-44]	; 0xffffffd4
    f8d4:	e1520003 	cmp	r2, r3
    f8d8:	03a03000 	moveq	r3, #0
    f8dc:	13a03001 	movne	r3, #1
    f8e0:	e20320ff 	and	r2, r3, #255	; 0xff
    f8e4:	e51b3018 	ldr	r3, [fp, #-24]	; 0xffffffe8
    f8e8:	e2433001 	sub	r3, r3, #1
    f8ec:	e50b3018 	str	r3, [fp, #-24]	; 0xffffffe8
    f8f0:	e3520000 	cmp	r2, #0
    f8f4:	1afffff2 	bne	f8c4 <_rb_gets_preloaded+0x870>
    f8f8:	ea00010f 	b	fd3c <_rb_gets_preloaded+0xce8>
    f8fc:	e59f0494 	ldr	r0, [pc, #1172]	; fd98 <_rb_gets_preloaded+0xd44>
    f900:	ebfff51d 	bl	cd7c <diag_printf>
    f904:	e51b3038 	ldr	r3, [fp, #-56]	; 0xffffffc8
    f908:	e3a02000 	mov	r2, #0
    f90c:	e5c32000 	strb	r2, [r3]
    f910:	e3e03001 	mvn	r3, #1
    f914:	e50b3044 	str	r3, [fp, #-68]	; 0xffffffbc
    f918:	ea000116 	b	fd78 <_rb_gets_preloaded+0xd24>
    f91c:	e55b302d 	ldrb	r3, [fp, #-45]	; 0xffffffd3
    f920:	e353000a 	cmp	r3, #10
    f924:	1a000003 	bne	f938 <_rb_gets_preloaded+0x8e4>
    f928:	e59f346c 	ldr	r3, [pc, #1132]	; fd9c <_rb_gets_preloaded+0xd48>
    f92c:	e5d33000 	ldrb	r3, [r3]
    f930:	e353000d 	cmp	r3, #13
    f934:	0a000006 	beq	f954 <_rb_gets_preloaded+0x900>
    f938:	e55b302d 	ldrb	r3, [fp, #-45]	; 0xffffffd3
    f93c:	e353000d 	cmp	r3, #13
    f940:	1a000006 	bne	f960 <_rb_gets_preloaded+0x90c>
    f944:	e59f3450 	ldr	r3, [pc, #1104]	; fd9c <_rb_gets_preloaded+0xd48>
    f948:	e5d33000 	ldrb	r3, [r3]
    f94c:	e353000a 	cmp	r3, #10
    f950:	1a000002 	bne	f960 <_rb_gets_preloaded+0x90c>
    f954:	e3a03000 	mov	r3, #0
    f958:	e54b302d 	strb	r3, [fp, #-45]	; 0xffffffd3
    f95c:	ea0000f6 	b	fd3c <_rb_gets_preloaded+0xce8>
    f960:	e59f3438 	ldr	r3, [pc, #1080]	; fda0 <_rb_gets_preloaded+0xd4c>
    f964:	e5933000 	ldr	r3, [r3]
    f968:	e3530000 	cmp	r3, #0
    f96c:	0a000003 	beq	f980 <_rb_gets_preloaded+0x92c>
    f970:	e3a0000d 	mov	r0, #13
    f974:	ebfffc2d 	bl	ea30 <mon_write_char>
    f978:	e3a0000a 	mov	r0, #10
    f97c:	ebfffc2b 	bl	ea30 <mon_write_char>
    f980:	e55b302d 	ldrb	r3, [fp, #-45]	; 0xffffffd3
    f984:	e59f2410 	ldr	r2, [pc, #1040]	; fd9c <_rb_gets_preloaded+0xd48>
    f988:	e5c23000 	strb	r3, [r2]
    f98c:	e59f3410 	ldr	r3, [pc, #1040]	; fda4 <_rb_gets_preloaded+0xd50>
    f990:	e5933000 	ldr	r3, [r3]
    f994:	e3530000 	cmp	r3, #0
    f998:	0a000028 	beq	fa40 <_rb_gets_preloaded+0x9ec>
    f99c:	e51b0038 	ldr	r0, [fp, #-56]	; 0xffffffc8
    f9a0:	eb000193 	bl	fff4 <expand_history>
    f9a4:	e51b3038 	ldr	r3, [fp, #-56]	; 0xffffffc8
    f9a8:	e5d33000 	ldrb	r3, [r3]
    f9ac:	e3530000 	cmp	r3, #0
    f9b0:	0a000022 	beq	fa40 <_rb_gets_preloaded+0x9ec>
    f9b4:	e59f33d0 	ldr	r3, [pc, #976]	; fd8c <_rb_gets_preloaded+0xd38>
    f9b8:	e5933000 	ldr	r3, [r3]
    f9bc:	e2832001 	add	r2, r3, #1
    f9c0:	e59f33c4 	ldr	r3, [pc, #964]	; fd8c <_rb_gets_preloaded+0xd38>
    f9c4:	e5832000 	str	r2, [r3]
    f9c8:	e59f33bc 	ldr	r3, [pc, #956]	; fd8c <_rb_gets_preloaded+0xd38>
    f9cc:	e5933000 	ldr	r3, [r3]
    f9d0:	e3530010 	cmp	r3, #16
    f9d4:	1a000002 	bne	f9e4 <_rb_gets_preloaded+0x990>
    f9d8:	e59f23ac 	ldr	r2, [pc, #940]	; fd8c <_rb_gets_preloaded+0xd38>
    f9dc:	e3a03000 	mov	r3, #0
    f9e0:	e5823000 	str	r3, [r2]
    f9e4:	e59f33a0 	ldr	r3, [pc, #928]	; fd8c <_rb_gets_preloaded+0xd38>
    f9e8:	e5932000 	ldr	r2, [r3]
    f9ec:	e59f33a0 	ldr	r3, [pc, #928]	; fd94 <_rb_gets_preloaded+0xd40>
    f9f0:	e5933000 	ldr	r3, [r3]
    f9f4:	e1520003 	cmp	r2, r3
    f9f8:	da000003 	ble	fa0c <_rb_gets_preloaded+0x9b8>
    f9fc:	e59f3388 	ldr	r3, [pc, #904]	; fd8c <_rb_gets_preloaded+0xd38>
    fa00:	e5932000 	ldr	r2, [r3]
    fa04:	e59f3388 	ldr	r3, [pc, #904]	; fd94 <_rb_gets_preloaded+0xd40>
    fa08:	e5832000 	str	r2, [r3]
    fa0c:	e59f237c 	ldr	r2, [pc, #892]	; fd90 <_rb_gets_preloaded+0xd3c>
    fa10:	e59f3374 	ldr	r3, [pc, #884]	; fd8c <_rb_gets_preloaded+0xd38>
    fa14:	e5933000 	ldr	r3, [r3]
    fa18:	e1a03403 	lsl	r3, r3, #8
    fa1c:	e0823003 	add	r3, r2, r3
    fa20:	e1a00003 	mov	r0, r3
    fa24:	e51b1038 	ldr	r1, [fp, #-56]	; 0xffffffc8
    fa28:	eb000758 	bl	11790 <__strcpy>
    fa2c:	e59f3374 	ldr	r3, [pc, #884]	; fda8 <_rb_gets_preloaded+0xd54>
    fa30:	e5933000 	ldr	r3, [r3]
    fa34:	e2832001 	add	r2, r3, #1
    fa38:	e59f3368 	ldr	r3, [pc, #872]	; fda8 <_rb_gets_preloaded+0xd54>
    fa3c:	e5832000 	str	r2, [r3]
    fa40:	e3a03001 	mov	r3, #1
    fa44:	e50b3044 	str	r3, [fp, #-68]	; 0xffffffbc
    fa48:	ea0000ca 	b	fd78 <_rb_gets_preloaded+0xd24>
    fa4c:	e51b202c 	ldr	r2, [fp, #-44]	; 0xffffffd4
    fa50:	e51b3038 	ldr	r3, [fp, #-56]	; 0xffffffc8
    fa54:	e1520003 	cmp	r2, r3
    fa58:	0a0000b7 	beq	fd3c <_rb_gets_preloaded+0xce8>
    fa5c:	e51b202c 	ldr	r2, [fp, #-44]	; 0xffffffd4
    fa60:	e51b3028 	ldr	r3, [fp, #-40]	; 0xffffffd8
    fa64:	e1520003 	cmp	r2, r3
    fa68:	0a00002b 	beq	fb1c <_rb_gets_preloaded+0xac8>
    fa6c:	e51b302c 	ldr	r3, [fp, #-44]	; 0xffffffd4
    fa70:	e2433001 	sub	r3, r3, #1
    fa74:	e50b302c 	str	r3, [fp, #-44]	; 0xffffffd4
    fa78:	e3a00008 	mov	r0, #8
    fa7c:	ebfffbeb 	bl	ea30 <mon_write_char>
    fa80:	e51b302c 	ldr	r3, [fp, #-44]	; 0xffffffd4
    fa84:	e50b3018 	str	r3, [fp, #-24]	; 0xffffffe8
    fa88:	ea00000b 	b	fabc <_rb_gets_preloaded+0xa68>
    fa8c:	e51b3018 	ldr	r3, [fp, #-24]	; 0xffffffe8
    fa90:	e2833001 	add	r3, r3, #1
    fa94:	e5d33000 	ldrb	r3, [r3]
    fa98:	e51b2018 	ldr	r2, [fp, #-24]	; 0xffffffe8
    fa9c:	e5c23000 	strb	r3, [r2]
    faa0:	e51b3018 	ldr	r3, [fp, #-24]	; 0xffffffe8
    faa4:	e5d32000 	ldrb	r2, [r3]
    faa8:	e51b3018 	ldr	r3, [fp, #-24]	; 0xffffffe8
    faac:	e2833001 	add	r3, r3, #1
    fab0:	e50b3018 	str	r3, [fp, #-24]	; 0xffffffe8
    fab4:	e1a00002 	mov	r0, r2
    fab8:	ebfffbdc 	bl	ea30 <mon_write_char>
    fabc:	e51b3028 	ldr	r3, [fp, #-40]	; 0xffffffd8
    fac0:	e2432001 	sub	r2, r3, #1
    fac4:	e51b3018 	ldr	r3, [fp, #-24]	; 0xffffffe8
    fac8:	e1520003 	cmp	r2, r3
    facc:	1affffee 	bne	fa8c <_rb_gets_preloaded+0xa38>
    fad0:	e3a00020 	mov	r0, #32
    fad4:	ebfffbd5 	bl	ea30 <mon_write_char>
    fad8:	e3a00008 	mov	r0, #8
    fadc:	ebfffbd3 	bl	ea30 <mon_write_char>
    fae0:	ea000001 	b	faec <_rb_gets_preloaded+0xa98>
    fae4:	e3a00008 	mov	r0, #8
    fae8:	ebfffbd0 	bl	ea30 <mon_write_char>
    faec:	e51b2018 	ldr	r2, [fp, #-24]	; 0xffffffe8
    faf0:	e51b302c 	ldr	r3, [fp, #-44]	; 0xffffffd4
    faf4:	e1520003 	cmp	r2, r3
    faf8:	03a03000 	moveq	r3, #0
    fafc:	13a03001 	movne	r3, #1
    fb00:	e20320ff 	and	r2, r3, #255	; 0xff
    fb04:	e51b3018 	ldr	r3, [fp, #-24]	; 0xffffffe8
    fb08:	e2433001 	sub	r3, r3, #1
    fb0c:	e50b3018 	str	r3, [fp, #-24]	; 0xffffffe8
    fb10:	e3520000 	cmp	r2, #0
    fb14:	1afffff2 	bne	fae4 <_rb_gets_preloaded+0xa90>
    fb18:	ea00000c 	b	fb50 <_rb_gets_preloaded+0xafc>
    fb1c:	e59f327c 	ldr	r3, [pc, #636]	; fda0 <_rb_gets_preloaded+0xd4c>
    fb20:	e5933000 	ldr	r3, [r3]
    fb24:	e3530000 	cmp	r3, #0
    fb28:	0a000005 	beq	fb44 <_rb_gets_preloaded+0xaf0>
    fb2c:	e3a00008 	mov	r0, #8
    fb30:	ebfffbbe 	bl	ea30 <mon_write_char>
    fb34:	e3a00020 	mov	r0, #32
    fb38:	ebfffbbc 	bl	ea30 <mon_write_char>
    fb3c:	e3a00008 	mov	r0, #8
    fb40:	ebfffbba 	bl	ea30 <mon_write_char>
    fb44:	e51b302c 	ldr	r3, [fp, #-44]	; 0xffffffd4
    fb48:	e2433001 	sub	r3, r3, #1
    fb4c:	e50b302c 	str	r3, [fp, #-44]	; 0xffffffd4
    fb50:	e51b3028 	ldr	r3, [fp, #-40]	; 0xffffffd8
    fb54:	e2433001 	sub	r3, r3, #1
    fb58:	e50b3028 	str	r3, [fp, #-40]	; 0xffffffd8
    fb5c:	ea000076 	b	fd3c <_rb_gets_preloaded+0xce8>
    fb60:	e51b202c 	ldr	r2, [fp, #-44]	; 0xffffffd4
    fb64:	e51b3038 	ldr	r3, [fp, #-56]	; 0xffffffc8
    fb68:	e1520003 	cmp	r2, r3
    fb6c:	0a000003 	beq	fb80 <_rb_gets_preloaded+0xb2c>
    fb70:	e59f3224 	ldr	r3, [pc, #548]	; fd9c <_rb_gets_preloaded+0xd48>
    fb74:	e5d33000 	ldrb	r3, [r3]
    fb78:	e353005c 	cmp	r3, #92	; 0x5c
    fb7c:	0a000005 	beq	fb98 <_rb_gets_preloaded+0xb44>
    fb80:	e55b302d 	ldrb	r3, [fp, #-45]	; 0xffffffd3
    fb84:	e1a00003 	mov	r0, r3
    fb88:	ebffe03c 	bl	7c80 <ungetDebugChar>
    fb8c:	e3a03000 	mov	r3, #0
    fb90:	e50b3044 	str	r3, [fp, #-68]	; 0xffffffbc
    fb94:	ea000077 	b	fd78 <_rb_gets_preloaded+0xd24>
    fb98:	e59f31fc 	ldr	r3, [pc, #508]	; fd9c <_rb_gets_preloaded+0xd48>
    fb9c:	e5d33000 	ldrb	r3, [r3]
    fba0:	e353005c 	cmp	r3, #92	; 0x5c
    fba4:	1a000015 	bne	fc00 <_rb_gets_preloaded+0xbac>
    fba8:	e51b202c 	ldr	r2, [fp, #-44]	; 0xffffffd4
    fbac:	e51b3028 	ldr	r3, [fp, #-40]	; 0xffffffd8
    fbb0:	e1520003 	cmp	r2, r3
    fbb4:	1a000005 	bne	fbd0 <_rb_gets_preloaded+0xb7c>
    fbb8:	e51b302c 	ldr	r3, [fp, #-44]	; 0xffffffd4
    fbbc:	e2433001 	sub	r3, r3, #1
    fbc0:	e50b302c 	str	r3, [fp, #-44]	; 0xffffffd4
    fbc4:	e51b302c 	ldr	r3, [fp, #-44]	; 0xffffffd4
    fbc8:	e50b3028 	str	r3, [fp, #-40]	; 0xffffffd8
    fbcc:	ea00000b 	b	fc00 <_rb_gets_preloaded+0xbac>
    fbd0:	e3a00008 	mov	r0, #8
    fbd4:	ebfffb95 	bl	ea30 <mon_write_char>
    fbd8:	e51b302c 	ldr	r3, [fp, #-44]	; 0xffffffd4
    fbdc:	e2433001 	sub	r3, r3, #1
    fbe0:	e50b302c 	str	r3, [fp, #-44]	; 0xffffffd4
    fbe4:	e55b302d 	ldrb	r3, [fp, #-45]	; 0xffffffd3
    fbe8:	e51b202c 	ldr	r2, [fp, #-44]	; 0xffffffd4
    fbec:	e5c23000 	strb	r3, [r2]
    fbf0:	e55b302d 	ldrb	r3, [fp, #-45]	; 0xffffffd3
    fbf4:	e1a00003 	mov	r0, r3
    fbf8:	ebfffb8c 	bl	ea30 <mon_write_char>
    fbfc:	ea00004e 	b	fd3c <_rb_gets_preloaded+0xce8>
    fc00:	e51b202c 	ldr	r2, [fp, #-44]	; 0xffffffd4
    fc04:	e51b3028 	ldr	r3, [fp, #-40]	; 0xffffffd8
    fc08:	e1520003 	cmp	r2, r3
    fc0c:	0a000014 	beq	fc64 <_rb_gets_preloaded+0xc10>
    fc10:	e51b3028 	ldr	r3, [fp, #-40]	; 0xffffffd8
    fc14:	e50b3018 	str	r3, [fp, #-24]	; 0xffffffe8
    fc18:	e51b3028 	ldr	r3, [fp, #-40]	; 0xffffffd8
    fc1c:	e2833001 	add	r3, r3, #1
    fc20:	e50b3028 	str	r3, [fp, #-40]	; 0xffffffd8
    fc24:	e51b2028 	ldr	r2, [fp, #-40]	; 0xffffffd8
    fc28:	e3a03000 	mov	r3, #0
    fc2c:	e5c23000 	strb	r3, [r2]
    fc30:	ea000007 	b	fc54 <_rb_gets_preloaded+0xc00>
    fc34:	e51b3018 	ldr	r3, [fp, #-24]	; 0xffffffe8
    fc38:	e2433001 	sub	r3, r3, #1
    fc3c:	e5d33000 	ldrb	r3, [r3]
    fc40:	e51b2018 	ldr	r2, [fp, #-24]	; 0xffffffe8
    fc44:	e5c23000 	strb	r3, [r2]
    fc48:	e51b3018 	ldr	r3, [fp, #-24]	; 0xffffffe8
    fc4c:	e2433001 	sub	r3, r3, #1
    fc50:	e50b3018 	str	r3, [fp, #-24]	; 0xffffffe8
    fc54:	e51b2018 	ldr	r2, [fp, #-24]	; 0xffffffe8
    fc58:	e51b302c 	ldr	r3, [fp, #-44]	; 0xffffffd4
    fc5c:	e1520003 	cmp	r2, r3
    fc60:	1afffff3 	bne	fc34 <_rb_gets_preloaded+0xbe0>
    fc64:	e59f3134 	ldr	r3, [pc, #308]	; fda0 <_rb_gets_preloaded+0xd4c>
    fc68:	e5933000 	ldr	r3, [r3]
    fc6c:	e3530000 	cmp	r3, #0
    fc70:	0a000002 	beq	fc80 <_rb_gets_preloaded+0xc2c>
    fc74:	e55b302d 	ldrb	r3, [fp, #-45]	; 0xffffffd3
    fc78:	e1a00003 	mov	r0, r3
    fc7c:	ebfffb6b 	bl	ea30 <mon_write_char>
    fc80:	e51b202c 	ldr	r2, [fp, #-44]	; 0xffffffd4
    fc84:	e51b3028 	ldr	r3, [fp, #-40]	; 0xffffffd8
    fc88:	e1520003 	cmp	r2, r3
    fc8c:	1a000008 	bne	fcb4 <_rb_gets_preloaded+0xc60>
    fc90:	e55b302d 	ldrb	r3, [fp, #-45]	; 0xffffffd3
    fc94:	e51b202c 	ldr	r2, [fp, #-44]	; 0xffffffd4
    fc98:	e5c23000 	strb	r3, [r2]
    fc9c:	e51b302c 	ldr	r3, [fp, #-44]	; 0xffffffd4
    fca0:	e2833001 	add	r3, r3, #1
    fca4:	e50b302c 	str	r3, [fp, #-44]	; 0xffffffd4
    fca8:	e51b302c 	ldr	r3, [fp, #-44]	; 0xffffffd4
    fcac:	e50b3028 	str	r3, [fp, #-40]	; 0xffffffd8
    fcb0:	ea000021 	b	fd3c <_rb_gets_preloaded+0xce8>
    fcb4:	e55b302d 	ldrb	r3, [fp, #-45]	; 0xffffffd3
    fcb8:	e51b202c 	ldr	r2, [fp, #-44]	; 0xffffffd4
    fcbc:	e5c23000 	strb	r3, [r2]
    fcc0:	e51b302c 	ldr	r3, [fp, #-44]	; 0xffffffd4
    fcc4:	e2833001 	add	r3, r3, #1
    fcc8:	e50b302c 	str	r3, [fp, #-44]	; 0xffffffd4
    fccc:	e51b302c 	ldr	r3, [fp, #-44]	; 0xffffffd4
    fcd0:	e50b3018 	str	r3, [fp, #-24]	; 0xffffffe8
    fcd4:	ea000006 	b	fcf4 <_rb_gets_preloaded+0xca0>
    fcd8:	e51b3018 	ldr	r3, [fp, #-24]	; 0xffffffe8
    fcdc:	e5d32000 	ldrb	r2, [r3]
    fce0:	e51b3018 	ldr	r3, [fp, #-24]	; 0xffffffe8
    fce4:	e2833001 	add	r3, r3, #1
    fce8:	e50b3018 	str	r3, [fp, #-24]	; 0xffffffe8
    fcec:	e1a00002 	mov	r0, r2
    fcf0:	ebfffb4e 	bl	ea30 <mon_write_char>
    fcf4:	e51b2018 	ldr	r2, [fp, #-24]	; 0xffffffe8
    fcf8:	e51b3028 	ldr	r3, [fp, #-40]	; 0xffffffd8
    fcfc:	e1520003 	cmp	r2, r3
    fd00:	1afffff4 	bne	fcd8 <_rb_gets_preloaded+0xc84>
    fd04:	ea000001 	b	fd10 <_rb_gets_preloaded+0xcbc>
    fd08:	e3a00008 	mov	r0, #8
    fd0c:	ebfffb47 	bl	ea30 <mon_write_char>
    fd10:	e51b2018 	ldr	r2, [fp, #-24]	; 0xffffffe8
    fd14:	e51b302c 	ldr	r3, [fp, #-44]	; 0xffffffd4
    fd18:	e1520003 	cmp	r2, r3
    fd1c:	03a03000 	moveq	r3, #0
    fd20:	13a03001 	movne	r3, #1
    fd24:	e20320ff 	and	r2, r3, #255	; 0xff
    fd28:	e51b3018 	ldr	r3, [fp, #-24]	; 0xffffffe8
    fd2c:	e2433001 	sub	r3, r3, #1
    fd30:	e50b3018 	str	r3, [fp, #-24]	; 0xffffffe8
    fd34:	e3520000 	cmp	r2, #0
    fd38:	1afffff2 	bne	fd08 <_rb_gets_preloaded+0xcb4>
    fd3c:	e55b302d 	ldrb	r3, [fp, #-45]	; 0xffffffd3
    fd40:	e59f2054 	ldr	r2, [pc, #84]	; fd9c <_rb_gets_preloaded+0xd48>
    fd44:	e5c23000 	strb	r3, [r2]
    fd48:	e51b303c 	ldr	r3, [fp, #-60]	; 0xffffffc4
    fd4c:	e2432001 	sub	r2, r3, #1
    fd50:	e51b3038 	ldr	r3, [fp, #-56]	; 0xffffffc8
    fd54:	e0832002 	add	r2, r3, r2
    fd58:	e51b302c 	ldr	r3, [fp, #-44]	; 0xffffffd4
    fd5c:	e1520003 	cmp	r2, r3
    fd60:	1afffcdd 	bne	f0dc <_rb_gets_preloaded+0x88>
    fd64:	e51b302c 	ldr	r3, [fp, #-44]	; 0xffffffd4
    fd68:	e3a02000 	mov	r2, #0
    fd6c:	e5c32000 	strb	r2, [r3]
    fd70:	e51b303c 	ldr	r3, [fp, #-60]	; 0xffffffc4
    fd74:	e50b3044 	str	r3, [fp, #-68]	; 0xffffffbc
    fd78:	e51b3044 	ldr	r3, [fp, #-68]	; 0xffffffbc
    fd7c:	e1a00003 	mov	r0, r3
    fd80:	e24bd00c 	sub	sp, fp, #12
    fd84:	e89d6800 	ldm	sp, {fp, sp, lr}
    fd88:	e12fff1e 	bx	lr
    fd8c:	810002f0 	.word	0x810002f0
    fd90:	810033dc 	.word	0x810033dc
    fd94:	810002f4 	.word	0x810002f4
    fd98:	000161c8 	.word	0x000161c8
    fd9c:	810033d4 	.word	0x810033d4
    fda0:	8100572c 	.word	0x8100572c
    fda4:	8100574c 	.word	0x8100574c
    fda8:	810033d0 	.word	0x810033d0

0000fdac <_rb_gets>:
    fdac:	e1a0c00d 	mov	ip, sp
    fdb0:	e92dd800 	push	{fp, ip, lr, pc}
    fdb4:	e24cb004 	sub	fp, ip, #4
    fdb8:	e24dd010 	sub	sp, sp, #16
    fdbc:	e50b0010 	str	r0, [fp, #-16]
    fdc0:	e50b1014 	str	r1, [fp, #-20]	; 0xffffffec
    fdc4:	e50b2018 	str	r2, [fp, #-24]	; 0xffffffe8
    fdc8:	e51b2010 	ldr	r2, [fp, #-16]
    fdcc:	e3a03000 	mov	r3, #0
    fdd0:	e5c23000 	strb	r3, [r2]
    fdd4:	e51b0010 	ldr	r0, [fp, #-16]
    fdd8:	e51b1014 	ldr	r1, [fp, #-20]	; 0xffffffec
    fddc:	e51b2018 	ldr	r2, [fp, #-24]	; 0xffffffe8
    fde0:	ebfffc9b 	bl	f054 <_rb_gets_preloaded>
    fde4:	e1a03000 	mov	r3, r0
    fde8:	e1a00003 	mov	r0, r3
    fdec:	e24bd00c 	sub	sp, fp, #12
    fdf0:	e89d6800 	ldm	sp, {fp, sp, lr}
    fdf4:	e12fff1e 	bx	lr

0000fdf8 <_verify_action>:
    fdf8:	e1a0c00d 	mov	ip, sp
    fdfc:	e92dd800 	push	{fp, ip, lr, pc}
    fe00:	e24cb004 	sub	fp, ip, #4
    fe04:	e24dd028 	sub	sp, sp, #40	; 0x28
    fe08:	e50b0020 	str	r0, [fp, #-32]	; 0xffffffe0
    fe0c:	e50b1024 	str	r1, [fp, #-36]	; 0xffffffdc
    fe10:	e50b2028 	str	r2, [fp, #-40]	; 0xffffffd8
    fe14:	e51b0024 	ldr	r0, [fp, #-36]	; 0xffffffdc
    fe18:	e51b1028 	ldr	r1, [fp, #-40]	; 0xffffffd8
    fe1c:	ebfff3c1 	bl	cd28 <diag_vprintf>
    fe20:	e59f0090 	ldr	r0, [pc, #144]	; feb8 <_verify_action+0xc0>
    fe24:	ebfff3d4 	bl	cd7c <diag_printf>
    fe28:	e24b3018 	sub	r3, fp, #24
    fe2c:	e1a00003 	mov	r0, r3
    fe30:	e3a01008 	mov	r1, #8
    fe34:	e51b2020 	ldr	r2, [fp, #-32]	; 0xffffffe0
    fe38:	ebffffdb 	bl	fdac <_rb_gets>
    fe3c:	e1a03000 	mov	r3, r0
    fe40:	e50b3010 	str	r3, [fp, #-16]
    fe44:	e51b3010 	ldr	r3, [fp, #-16]
    fe48:	e3530000 	cmp	r3, #0
    fe4c:	da00000d 	ble	fe88 <_verify_action+0x90>
    fe50:	e55b3018 	ldrb	r3, [fp, #-24]	; 0xffffffe8
    fe54:	e3530079 	cmp	r3, #121	; 0x79
    fe58:	0a000002 	beq	fe68 <_verify_action+0x70>
    fe5c:	e55b3018 	ldrb	r3, [fp, #-24]	; 0xffffffe8
    fe60:	e3530059 	cmp	r3, #89	; 0x59
    fe64:	1a000002 	bne	fe74 <_verify_action+0x7c>
    fe68:	e3a03001 	mov	r3, #1
    fe6c:	e50b302c 	str	r3, [fp, #-44]	; 0xffffffd4
    fe70:	ea000001 	b	fe7c <_verify_action+0x84>
    fe74:	e3a03000 	mov	r3, #0
    fe78:	e50b302c 	str	r3, [fp, #-44]	; 0xffffffd4
    fe7c:	e51b302c 	ldr	r3, [fp, #-44]	; 0xffffffd4
    fe80:	e50b3030 	str	r3, [fp, #-48]	; 0xffffffd0
    fe84:	ea000006 	b	fea4 <_verify_action+0xac>
    fe88:	e51b3010 	ldr	r3, [fp, #-16]
    fe8c:	e3730001 	cmn	r3, #1
    fe90:	1a000001 	bne	fe9c <_verify_action+0xa4>
    fe94:	e59f0020 	ldr	r0, [pc, #32]	; febc <_verify_action+0xc4>
    fe98:	ebfff3b7 	bl	cd7c <diag_printf>
    fe9c:	e3a03000 	mov	r3, #0
    fea0:	e50b3030 	str	r3, [fp, #-48]	; 0xffffffd0
    fea4:	e51b3030 	ldr	r3, [fp, #-48]	; 0xffffffd0
    fea8:	e1a00003 	mov	r0, r3
    feac:	e24bd00c 	sub	sp, fp, #12
    feb0:	e89d6800 	ldm	sp, {fp, sp, lr}
    feb4:	e12fff1e 	bx	lr
    feb8:	000161cc 	.word	0x000161cc
    febc:	000161e0 	.word	0x000161e0

0000fec0 <verify_action>:
    fec0:	e1a0c00d 	mov	ip, sp
    fec4:	e92d000f 	push	{r0, r1, r2, r3}
    fec8:	e92dd800 	push	{fp, ip, lr, pc}
    fecc:	e24cb014 	sub	fp, ip, #20
    fed0:	e24dd008 	sub	sp, sp, #8
    fed4:	e28b3008 	add	r3, fp, #8
    fed8:	e50b3010 	str	r3, [fp, #-16]
    fedc:	e51b3010 	ldr	r3, [fp, #-16]
    fee0:	e3a00000 	mov	r0, #0
    fee4:	e59b1004 	ldr	r1, [fp, #4]
    fee8:	e1a02003 	mov	r2, r3
    feec:	ebffffc1 	bl	fdf8 <_verify_action>
    fef0:	e1a03000 	mov	r3, r0
    fef4:	e1a00003 	mov	r0, r3
    fef8:	e24bd00c 	sub	sp, fp, #12
    fefc:	e89d6800 	ldm	sp, {fp, sp, lr}
    ff00:	e12fff1e 	bx	lr

0000ff04 <verify_action_with_timeout>:
    ff04:	e1a0c00d 	mov	ip, sp
    ff08:	e92d000e 	push	{r1, r2, r3}
    ff0c:	e92dd800 	push	{fp, ip, lr, pc}
    ff10:	e24cb010 	sub	fp, ip, #16
    ff14:	e24dd014 	sub	sp, sp, #20
    ff18:	e50b001c 	str	r0, [fp, #-28]	; 0xffffffe4
    ff1c:	e28b3008 	add	r3, fp, #8
    ff20:	e50b3014 	str	r3, [fp, #-20]	; 0xffffffec
    ff24:	e51b3014 	ldr	r3, [fp, #-20]	; 0xffffffec
    ff28:	e51b001c 	ldr	r0, [fp, #-28]	; 0xffffffe4
    ff2c:	e59b1004 	ldr	r1, [fp, #4]
    ff30:	e1a02003 	mov	r2, r3
    ff34:	ebffffaf 	bl	fdf8 <_verify_action>
    ff38:	e1a03000 	mov	r3, r0
    ff3c:	e1a00003 	mov	r0, r3
    ff40:	e24bd00c 	sub	sp, fp, #12
    ff44:	e89d6800 	ldm	sp, {fp, sp, lr}
    ff48:	e12fff1e 	bx	lr

0000ff4c <parse_history_index>:
    ff4c:	e1a0c00d 	mov	ip, sp
    ff50:	e92dd800 	push	{fp, ip, lr, pc}
    ff54:	e24cb004 	sub	fp, ip, #4
    ff58:	e24dd010 	sub	sp, sp, #16
    ff5c:	e50b0018 	str	r0, [fp, #-24]	; 0xffffffe8
    ff60:	e3a03000 	mov	r3, #0
    ff64:	e50b3010 	str	r3, [fp, #-16]
    ff68:	ea00000b 	b	ff9c <parse_history_index+0x50>
    ff6c:	e51b3010 	ldr	r3, [fp, #-16]
    ff70:	e1a02083 	lsl	r2, r3, #1
    ff74:	e1a03102 	lsl	r3, r2, #2
    ff78:	e0822003 	add	r2, r2, r3
    ff7c:	e51b3018 	ldr	r3, [fp, #-24]	; 0xffffffe8
    ff80:	e5d33000 	ldrb	r3, [r3]
    ff84:	e2433030 	sub	r3, r3, #48	; 0x30
    ff88:	e0823003 	add	r3, r2, r3
    ff8c:	e50b3010 	str	r3, [fp, #-16]
    ff90:	e51b3018 	ldr	r3, [fp, #-24]	; 0xffffffe8
    ff94:	e2833001 	add	r3, r3, #1
    ff98:	e50b3018 	str	r3, [fp, #-24]	; 0xffffffe8
    ff9c:	e51b3018 	ldr	r3, [fp, #-24]	; 0xffffffe8
    ffa0:	e5d33000 	ldrb	r3, [r3]
    ffa4:	e353002f 	cmp	r3, #47	; 0x2f
    ffa8:	9a000003 	bls	ffbc <parse_history_index+0x70>
    ffac:	e51b3018 	ldr	r3, [fp, #-24]	; 0xffffffe8
    ffb0:	e5d33000 	ldrb	r3, [r3]
    ffb4:	e3530039 	cmp	r3, #57	; 0x39
    ffb8:	9affffeb 	bls	ff6c <parse_history_index+0x20>
    ffbc:	e51b3018 	ldr	r3, [fp, #-24]	; 0xffffffe8
    ffc0:	e5d33000 	ldrb	r3, [r3]
    ffc4:	e3530000 	cmp	r3, #0
    ffc8:	0a000002 	beq	ffd8 <parse_history_index+0x8c>
    ffcc:	e3e03000 	mvn	r3, #0
    ffd0:	e50b301c 	str	r3, [fp, #-28]	; 0xffffffe4
    ffd4:	ea000001 	b	ffe0 <parse_history_index+0x94>
    ffd8:	e51b3010 	ldr	r3, [fp, #-16]
    ffdc:	e50b301c 	str	r3, [fp, #-28]	; 0xffffffe4
    ffe0:	e51b301c 	ldr	r3, [fp, #-28]	; 0xffffffe4
    ffe4:	e1a00003 	mov	r0, r3
    ffe8:	e24bd00c 	sub	sp, fp, #12
    ffec:	e89d6800 	ldm	sp, {fp, sp, lr}
    fff0:	e12fff1e 	bx	lr

0000fff4 <expand_history>:
    fff4:	e1a0c00d 	mov	ip, sp
    fff8:	e92dd800 	push	{fp, ip, lr, pc}
    fffc:	e24cb004 	sub	fp, ip, #4
   10000:	e24dd018 	sub	sp, sp, #24
   10004:	e50b0020 	str	r0, [fp, #-32]	; 0xffffffe0
   10008:	e59f31d0 	ldr	r3, [pc, #464]	; 101e0 <expand_history+0x1ec>
   1000c:	e5933000 	ldr	r3, [r3]
   10010:	e2833001 	add	r3, r3, #1
   10014:	e50b301c 	str	r3, [fp, #-28]	; 0xffffffe4
   10018:	e51b3020 	ldr	r3, [fp, #-32]	; 0xffffffe0
   1001c:	e5d33000 	ldrb	r3, [r3]
   10020:	e3530021 	cmp	r3, #33	; 0x21
   10024:	1a00006a 	bne	101d4 <expand_history+0x1e0>
   10028:	e51b3020 	ldr	r3, [fp, #-32]	; 0xffffffe0
   1002c:	e2833001 	add	r3, r3, #1
   10030:	e5d33000 	ldrb	r3, [r3]
   10034:	e3530000 	cmp	r3, #0
   10038:	0a000065 	beq	101d4 <expand_history+0x1e0>
   1003c:	e51b301c 	ldr	r3, [fp, #-28]	; 0xffffffe4
   10040:	e3530000 	cmp	r3, #0
   10044:	da00005c 	ble	101bc <expand_history+0x1c8>
   10048:	e51b0020 	ldr	r0, [fp, #-32]	; 0xffffffe0
   1004c:	e59f1190 	ldr	r1, [pc, #400]	; 101e4 <expand_history+0x1f0>
   10050:	eb000558 	bl	115b8 <__strcmp>
   10054:	e1a03000 	mov	r3, r0
   10058:	e3530000 	cmp	r3, #0
   1005c:	1a000008 	bne	10084 <expand_history+0x90>
   10060:	e59f2180 	ldr	r2, [pc, #384]	; 101e8 <expand_history+0x1f4>
   10064:	e59f3180 	ldr	r3, [pc, #384]	; 101ec <expand_history+0x1f8>
   10068:	e5933000 	ldr	r3, [r3]
   1006c:	e1a03403 	lsl	r3, r3, #8
   10070:	e0823003 	add	r3, r2, r3
   10074:	e51b0020 	ldr	r0, [fp, #-32]	; 0xffffffe0
   10078:	e1a01003 	mov	r1, r3
   1007c:	eb0005c3 	bl	11790 <__strcpy>
   10080:	ea000053 	b	101d4 <expand_history+0x1e0>
   10084:	e51b3020 	ldr	r3, [fp, #-32]	; 0xffffffe0
   10088:	e2833001 	add	r3, r3, #1
   1008c:	e1a00003 	mov	r0, r3
   10090:	ebffffad 	bl	ff4c <parse_history_index>
   10094:	e1a03000 	mov	r3, r0
   10098:	e50b3014 	str	r3, [fp, #-20]	; 0xffffffec
   1009c:	e51b3014 	ldr	r3, [fp, #-20]	; 0xffffffec
   100a0:	e3530000 	cmp	r3, #0
   100a4:	ba000013 	blt	100f8 <expand_history+0x104>
   100a8:	e59f3140 	ldr	r3, [pc, #320]	; 101f0 <expand_history+0x1fc>
   100ac:	e5932000 	ldr	r2, [r3]
   100b0:	e51b3014 	ldr	r3, [fp, #-20]	; 0xffffffec
   100b4:	e1530002 	cmp	r3, r2
   100b8:	ca00003f 	bgt	101bc <expand_history+0x1c8>
   100bc:	ea000002 	b	100cc <expand_history+0xd8>
   100c0:	e51b3014 	ldr	r3, [fp, #-20]	; 0xffffffec
   100c4:	e2433010 	sub	r3, r3, #16
   100c8:	e50b3014 	str	r3, [fp, #-20]	; 0xffffffec
   100cc:	e51b3014 	ldr	r3, [fp, #-20]	; 0xffffffec
   100d0:	e353000f 	cmp	r3, #15
   100d4:	cafffff9 	bgt	100c0 <expand_history+0xcc>
   100d8:	e59f2108 	ldr	r2, [pc, #264]	; 101e8 <expand_history+0x1f4>
   100dc:	e51b3014 	ldr	r3, [fp, #-20]	; 0xffffffec
   100e0:	e1a03403 	lsl	r3, r3, #8
   100e4:	e0823003 	add	r3, r2, r3
   100e8:	e51b0020 	ldr	r0, [fp, #-32]	; 0xffffffe0
   100ec:	e1a01003 	mov	r1, r3
   100f0:	eb0005a6 	bl	11790 <__strcpy>
   100f4:	ea000036 	b	101d4 <expand_history+0x1e0>
   100f8:	e51b3020 	ldr	r3, [fp, #-32]	; 0xffffffe0
   100fc:	e2833001 	add	r3, r3, #1
   10100:	e1a00003 	mov	r0, r3
   10104:	eb000602 	bl	11914 <__strlen>
   10108:	e1a03000 	mov	r3, r0
   1010c:	e50b3010 	str	r3, [fp, #-16]
   10110:	e3a03000 	mov	r3, #0
   10114:	e50b3018 	str	r3, [fp, #-24]	; 0xffffffe8
   10118:	e59f30cc 	ldr	r3, [pc, #204]	; 101ec <expand_history+0x1f8>
   1011c:	e5933000 	ldr	r3, [r3]
   10120:	e50b3014 	str	r3, [fp, #-20]	; 0xffffffec
   10124:	ea000020 	b	101ac <expand_history+0x1b8>
   10128:	e59f20b8 	ldr	r2, [pc, #184]	; 101e8 <expand_history+0x1f4>
   1012c:	e51b3014 	ldr	r3, [fp, #-20]	; 0xffffffec
   10130:	e1a03403 	lsl	r3, r3, #8
   10134:	e0821003 	add	r1, r2, r3
   10138:	e51b3020 	ldr	r3, [fp, #-32]	; 0xffffffe0
   1013c:	e2833001 	add	r3, r3, #1
   10140:	e51b2010 	ldr	r2, [fp, #-16]
   10144:	e1a00001 	mov	r0, r1
   10148:	e1a01003 	mov	r1, r3
   1014c:	eb000635 	bl	11a28 <__strncmp>
   10150:	e1a03000 	mov	r3, r0
   10154:	e3530000 	cmp	r3, #0
   10158:	1a000007 	bne	1017c <expand_history+0x188>
   1015c:	e59f2084 	ldr	r2, [pc, #132]	; 101e8 <expand_history+0x1f4>
   10160:	e51b3014 	ldr	r3, [fp, #-20]	; 0xffffffec
   10164:	e1a03403 	lsl	r3, r3, #8
   10168:	e0823003 	add	r3, r2, r3
   1016c:	e51b0020 	ldr	r0, [fp, #-32]	; 0xffffffe0
   10170:	e1a01003 	mov	r1, r3
   10174:	eb000585 	bl	11790 <__strcpy>
   10178:	ea000015 	b	101d4 <expand_history+0x1e0>
   1017c:	e51b3014 	ldr	r3, [fp, #-20]	; 0xffffffec
   10180:	e2433001 	sub	r3, r3, #1
   10184:	e50b3014 	str	r3, [fp, #-20]	; 0xffffffec
   10188:	e51b3014 	ldr	r3, [fp, #-20]	; 0xffffffec
   1018c:	e3530000 	cmp	r3, #0
   10190:	aa000002 	bge	101a0 <expand_history+0x1ac>
   10194:	e59f3044 	ldr	r3, [pc, #68]	; 101e0 <expand_history+0x1ec>
   10198:	e5933000 	ldr	r3, [r3]
   1019c:	e50b3014 	str	r3, [fp, #-20]	; 0xffffffec
   101a0:	e51b3018 	ldr	r3, [fp, #-24]	; 0xffffffe8
   101a4:	e2833001 	add	r3, r3, #1
   101a8:	e50b3018 	str	r3, [fp, #-24]	; 0xffffffe8
   101ac:	e51b2018 	ldr	r2, [fp, #-24]	; 0xffffffe8
   101b0:	e51b301c 	ldr	r3, [fp, #-28]	; 0xffffffe4
   101b4:	e1520003 	cmp	r2, r3
   101b8:	baffffda 	blt	10128 <expand_history+0x134>
   101bc:	e59f0030 	ldr	r0, [pc, #48]	; 101f4 <expand_history+0x200>
   101c0:	e51b1020 	ldr	r1, [fp, #-32]	; 0xffffffe0
   101c4:	ebfff2ec 	bl	cd7c <diag_printf>
   101c8:	e51b3020 	ldr	r3, [fp, #-32]	; 0xffffffe0
   101cc:	e3a02000 	mov	r2, #0
   101d0:	e5c32000 	strb	r2, [r3]
   101d4:	e24bd00c 	sub	sp, fp, #12
   101d8:	e89d6800 	ldm	sp, {fp, sp, lr}
   101dc:	e12fff1e 	bx	lr
   101e0:	810002f4 	.word	0x810002f4
   101e4:	000161f0 	.word	0x000161f0
   101e8:	810033dc 	.word	0x810033dc
   101ec:	810002f0 	.word	0x810002f0
   101f0:	810033d0 	.word	0x810033d0
   101f4:	000161f4 	.word	0x000161f4

000101f8 <do_history>:
   101f8:	e1a0c00d 	mov	ip, sp
   101fc:	e92dd800 	push	{fp, ip, lr, pc}
   10200:	e24cb004 	sub	fp, ip, #4
   10204:	e24dd018 	sub	sp, sp, #24
   10208:	e50b0020 	str	r0, [fp, #-32]	; 0xffffffe0
   1020c:	e50b1024 	str	r1, [fp, #-36]	; 0xffffffdc
   10210:	e59f3118 	ldr	r3, [pc, #280]	; 10330 <do_history+0x138>
   10214:	e5933000 	ldr	r3, [r3]
   10218:	e2833001 	add	r3, r3, #1
   1021c:	e50b3018 	str	r3, [fp, #-24]	; 0xffffffe8
   10220:	e59f310c 	ldr	r3, [pc, #268]	; 10334 <do_history+0x13c>
   10224:	e5932000 	ldr	r2, [r3]
   10228:	e59f3100 	ldr	r3, [pc, #256]	; 10330 <do_history+0x138>
   1022c:	e5933000 	ldr	r3, [r3]
   10230:	e1520003 	cmp	r2, r3
   10234:	1a000012 	bne	10284 <do_history+0x8c>
   10238:	e3a03000 	mov	r3, #0
   1023c:	e50b3014 	str	r3, [fp, #-20]	; 0xffffffec
   10240:	ea00000a 	b	10270 <do_history+0x78>
   10244:	e59f20ec 	ldr	r2, [pc, #236]	; 10338 <do_history+0x140>
   10248:	e51b3014 	ldr	r3, [fp, #-20]	; 0xffffffec
   1024c:	e1a03403 	lsl	r3, r3, #8
   10250:	e0823003 	add	r3, r2, r3
   10254:	e59f00e0 	ldr	r0, [pc, #224]	; 1033c <do_history+0x144>
   10258:	e51b1014 	ldr	r1, [fp, #-20]	; 0xffffffec
   1025c:	e1a02003 	mov	r2, r3
   10260:	ebfff2c5 	bl	cd7c <diag_printf>
   10264:	e51b3014 	ldr	r3, [fp, #-20]	; 0xffffffec
   10268:	e2833001 	add	r3, r3, #1
   1026c:	e50b3014 	str	r3, [fp, #-20]	; 0xffffffec
   10270:	e51b2014 	ldr	r2, [fp, #-20]	; 0xffffffec
   10274:	e51b3018 	ldr	r3, [fp, #-24]	; 0xffffffe8
   10278:	e1520003 	cmp	r2, r3
   1027c:	bafffff0 	blt	10244 <do_history+0x4c>
   10280:	ea000027 	b	10324 <do_history+0x12c>
   10284:	e59f30a8 	ldr	r3, [pc, #168]	; 10334 <do_history+0x13c>
   10288:	e5933000 	ldr	r3, [r3]
   1028c:	e59f00ac 	ldr	r0, [pc, #172]	; 10340 <do_history+0x148>
   10290:	e1a01003 	mov	r1, r3
   10294:	ebfff2b8 	bl	cd7c <diag_printf>
   10298:	e3a03000 	mov	r3, #0
   1029c:	e50b3014 	str	r3, [fp, #-20]	; 0xffffffec
   102a0:	e59f308c 	ldr	r3, [pc, #140]	; 10334 <do_history+0x13c>
   102a4:	e5933000 	ldr	r3, [r3]
   102a8:	e2833001 	add	r3, r3, #1
   102ac:	e50b3010 	str	r3, [fp, #-16]
   102b0:	ea000017 	b	10314 <do_history+0x11c>
   102b4:	e59f3088 	ldr	r3, [pc, #136]	; 10344 <do_history+0x14c>
   102b8:	e5932000 	ldr	r2, [r3]
   102bc:	e51b3014 	ldr	r3, [fp, #-20]	; 0xffffffec
   102c0:	e0823003 	add	r3, r2, r3
   102c4:	e2431010 	sub	r1, r3, #16
   102c8:	e59f2068 	ldr	r2, [pc, #104]	; 10338 <do_history+0x140>
   102cc:	e51b3010 	ldr	r3, [fp, #-16]
   102d0:	e1a03403 	lsl	r3, r3, #8
   102d4:	e0822003 	add	r2, r2, r3
   102d8:	e51b3010 	ldr	r3, [fp, #-16]
   102dc:	e2833001 	add	r3, r3, #1
   102e0:	e50b3010 	str	r3, [fp, #-16]
   102e4:	e59f0050 	ldr	r0, [pc, #80]	; 1033c <do_history+0x144>
   102e8:	ebfff2a3 	bl	cd7c <diag_printf>
   102ec:	e59f303c 	ldr	r3, [pc, #60]	; 10330 <do_history+0x138>
   102f0:	e5932000 	ldr	r2, [r3]
   102f4:	e51b3010 	ldr	r3, [fp, #-16]
   102f8:	e1530002 	cmp	r3, r2
   102fc:	da000001 	ble	10308 <do_history+0x110>
   10300:	e3a03000 	mov	r3, #0
   10304:	e50b3010 	str	r3, [fp, #-16]
   10308:	e51b3014 	ldr	r3, [fp, #-20]	; 0xffffffec
   1030c:	e2833001 	add	r3, r3, #1
   10310:	e50b3014 	str	r3, [fp, #-20]	; 0xffffffec
   10314:	e51b2014 	ldr	r2, [fp, #-20]	; 0xffffffec
   10318:	e51b3018 	ldr	r3, [fp, #-24]	; 0xffffffe8
   1031c:	e1520003 	cmp	r2, r3
   10320:	baffffe3 	blt	102b4 <do_history+0xbc>
   10324:	e24bd00c 	sub	sp, fp, #12
   10328:	e89d6800 	ldm	sp, {fp, sp, lr}
   1032c:	e12fff1e 	bx	lr
   10330:	810002f4 	.word	0x810002f4
   10334:	810002f0 	.word	0x810002f0
   10338:	810033dc 	.word	0x810033dc
   1033c:	0001620c 	.word	0x0001620c
   10340:	00016214 	.word	0x00016214
   10344:	810033d0 	.word	0x810033d0

00010348 <parse>:
   10348:	e1a0c00d 	mov	ip, sp
   1034c:	e92dd800 	push	{fp, ip, lr, pc}
   10350:	e24cb004 	sub	fp, ip, #4
   10354:	e24dd020 	sub	sp, sp, #32
   10358:	e50b0020 	str	r0, [fp, #-32]	; 0xffffffe0
   1035c:	e50b1024 	str	r1, [fp, #-36]	; 0xffffffdc
   10360:	e50b2028 	str	r2, [fp, #-40]	; 0xffffffd8
   10364:	e51b3020 	ldr	r3, [fp, #-32]	; 0xffffffe0
   10368:	e5933000 	ldr	r3, [r3]
   1036c:	e50b301c 	str	r3, [fp, #-28]	; 0xffffffe4
   10370:	e3a03000 	mov	r3, #0
   10374:	e50b3014 	str	r3, [fp, #-20]	; 0xffffffec
   10378:	e3a03000 	mov	r3, #0
   1037c:	e50b3010 	str	r3, [fp, #-16]
   10380:	ea000089 	b	105ac <parse+0x264>
   10384:	e51b301c 	ldr	r3, [fp, #-28]	; 0xffffffe4
   10388:	e2833001 	add	r3, r3, #1
   1038c:	e50b301c 	str	r3, [fp, #-28]	; 0xffffffe4
   10390:	e51b301c 	ldr	r3, [fp, #-28]	; 0xffffffe4
   10394:	e5d33000 	ldrb	r3, [r3]
   10398:	e3530000 	cmp	r3, #0
   1039c:	0a000003 	beq	103b0 <parse+0x68>
   103a0:	e51b301c 	ldr	r3, [fp, #-28]	; 0xffffffe4
   103a4:	e5d33000 	ldrb	r3, [r3]
   103a8:	e3530020 	cmp	r3, #32
   103ac:	0afffff4 	beq	10384 <parse+0x3c>
   103b0:	e51b301c 	ldr	r3, [fp, #-28]	; 0xffffffe4
   103b4:	e5d33000 	ldrb	r3, [r3]
   103b8:	e3530000 	cmp	r3, #0
   103bc:	0a00007e 	beq	105bc <parse+0x274>
   103c0:	e51b301c 	ldr	r3, [fp, #-28]	; 0xffffffe4
   103c4:	e5d33000 	ldrb	r3, [r3]
   103c8:	e353003b 	cmp	r3, #59	; 0x3b
   103cc:	1a000005 	bne	103e8 <parse+0xa0>
   103d0:	e51b201c 	ldr	r2, [fp, #-28]	; 0xffffffe4
   103d4:	e3a03000 	mov	r3, #0
   103d8:	e5c23000 	strb	r3, [r2]
   103dc:	e3a03001 	mov	r3, #1
   103e0:	e50b3010 	str	r3, [fp, #-16]
   103e4:	ea000074 	b	105bc <parse+0x274>
   103e8:	e51b3014 	ldr	r3, [fp, #-20]	; 0xffffffec
   103ec:	e353000f 	cmp	r3, #15
   103f0:	ca000009 	bgt	1041c <parse+0xd4>
   103f4:	e51b3014 	ldr	r3, [fp, #-20]	; 0xffffffec
   103f8:	e1a02103 	lsl	r2, r3, #2
   103fc:	e51b3028 	ldr	r3, [fp, #-40]	; 0xffffffd8
   10400:	e0832002 	add	r2, r3, r2
   10404:	e51b301c 	ldr	r3, [fp, #-28]	; 0xffffffe4
   10408:	e5823000 	str	r3, [r2]
   1040c:	e51b3014 	ldr	r3, [fp, #-20]	; 0xffffffec
   10410:	e2833001 	add	r3, r3, #1
   10414:	e50b3014 	str	r3, [fp, #-20]	; 0xffffffec
   10418:	ea00005f 	b	1059c <parse+0x254>
   1041c:	e59f01fc 	ldr	r0, [pc, #508]	; 10620 <parse+0x2d8>
   10420:	e51b101c 	ldr	r1, [fp, #-28]	; 0xffffffe4
   10424:	ebfff254 	bl	cd7c <diag_printf>
   10428:	ea00005b 	b	1059c <parse+0x254>
   1042c:	e51b301c 	ldr	r3, [fp, #-28]	; 0xffffffe4
   10430:	e5d33000 	ldrb	r3, [r3]
   10434:	e3530020 	cmp	r3, #32
   10438:	1a000006 	bne	10458 <parse+0x110>
   1043c:	e51b201c 	ldr	r2, [fp, #-28]	; 0xffffffe4
   10440:	e3a03000 	mov	r3, #0
   10444:	e5c23000 	strb	r3, [r2]
   10448:	e51b301c 	ldr	r3, [fp, #-28]	; 0xffffffe4
   1044c:	e2833001 	add	r3, r3, #1
   10450:	e50b301c 	str	r3, [fp, #-28]	; 0xffffffe4
   10454:	ea000054 	b	105ac <parse+0x264>
   10458:	e51b301c 	ldr	r3, [fp, #-28]	; 0xffffffe4
   1045c:	e5d33000 	ldrb	r3, [r3]
   10460:	e353003b 	cmp	r3, #59	; 0x3b
   10464:	0a000050 	beq	105ac <parse+0x264>
   10468:	e51b301c 	ldr	r3, [fp, #-28]	; 0xffffffe4
   1046c:	e5d33000 	ldrb	r3, [r3]
   10470:	e3530022 	cmp	r3, #34	; 0x22
   10474:	1a000045 	bne	10590 <parse+0x248>
   10478:	e51b3014 	ldr	r3, [fp, #-20]	; 0xffffffec
   1047c:	e2633001 	rsb	r3, r3, #1
   10480:	e1a03103 	lsl	r3, r3, #2
   10484:	e2632000 	rsb	r2, r3, #0
   10488:	e51b3028 	ldr	r3, [fp, #-40]	; 0xffffffd8
   1048c:	e0833002 	add	r3, r3, r2
   10490:	e5932000 	ldr	r2, [r3]
   10494:	e51b301c 	ldr	r3, [fp, #-28]	; 0xffffffe4
   10498:	e1520003 	cmp	r2, r3
   1049c:	1a00000a 	bne	104cc <parse+0x184>
   104a0:	e51b3014 	ldr	r3, [fp, #-20]	; 0xffffffec
   104a4:	e2633001 	rsb	r3, r3, #1
   104a8:	e1a03103 	lsl	r3, r3, #2
   104ac:	e2632000 	rsb	r2, r3, #0
   104b0:	e51b3028 	ldr	r3, [fp, #-40]	; 0xffffffd8
   104b4:	e0832002 	add	r2, r3, r2
   104b8:	e51b301c 	ldr	r3, [fp, #-28]	; 0xffffffe4
   104bc:	e2833001 	add	r3, r3, #1
   104c0:	e50b301c 	str	r3, [fp, #-28]	; 0xffffffe4
   104c4:	e51b301c 	ldr	r3, [fp, #-28]	; 0xffffffe4
   104c8:	e5823000 	str	r3, [r2]
   104cc:	e51b301c 	ldr	r3, [fp, #-28]	; 0xffffffe4
   104d0:	e50b3018 	str	r3, [fp, #-24]	; 0xffffffe8
   104d4:	ea000010 	b	1051c <parse+0x1d4>
   104d8:	e51b301c 	ldr	r3, [fp, #-28]	; 0xffffffe4
   104dc:	e5d33000 	ldrb	r3, [r3]
   104e0:	e353005c 	cmp	r3, #92	; 0x5c
   104e4:	1a000002 	bne	104f4 <parse+0x1ac>
   104e8:	e51b301c 	ldr	r3, [fp, #-28]	; 0xffffffe4
   104ec:	e2833001 	add	r3, r3, #1
   104f0:	e50b301c 	str	r3, [fp, #-28]	; 0xffffffe4
   104f4:	e51b301c 	ldr	r3, [fp, #-28]	; 0xffffffe4
   104f8:	e5d33000 	ldrb	r3, [r3]
   104fc:	e51b2018 	ldr	r2, [fp, #-24]	; 0xffffffe8
   10500:	e5c23000 	strb	r3, [r2]
   10504:	e51b3018 	ldr	r3, [fp, #-24]	; 0xffffffe8
   10508:	e2833001 	add	r3, r3, #1
   1050c:	e50b3018 	str	r3, [fp, #-24]	; 0xffffffe8
   10510:	e51b301c 	ldr	r3, [fp, #-28]	; 0xffffffe4
   10514:	e2833001 	add	r3, r3, #1
   10518:	e50b301c 	str	r3, [fp, #-28]	; 0xffffffe4
   1051c:	e51b301c 	ldr	r3, [fp, #-28]	; 0xffffffe4
   10520:	e5d33000 	ldrb	r3, [r3]
   10524:	e3530000 	cmp	r3, #0
   10528:	0a000003 	beq	1053c <parse+0x1f4>
   1052c:	e51b301c 	ldr	r3, [fp, #-28]	; 0xffffffe4
   10530:	e5d33000 	ldrb	r3, [r3]
   10534:	e3530022 	cmp	r3, #34	; 0x22
   10538:	1affffe6 	bne	104d8 <parse+0x190>
   1053c:	e51b301c 	ldr	r3, [fp, #-28]	; 0xffffffe4
   10540:	e5d33000 	ldrb	r3, [r3]
   10544:	e3530000 	cmp	r3, #0
   10548:	1a000002 	bne	10558 <parse+0x210>
   1054c:	e59f00d0 	ldr	r0, [pc, #208]	; 10624 <parse+0x2dc>
   10550:	ebfff209 	bl	cd7c <diag_printf>
   10554:	ea000010 	b	1059c <parse+0x254>
   10558:	e51b2018 	ldr	r2, [fp, #-24]	; 0xffffffe8
   1055c:	e51b301c 	ldr	r3, [fp, #-28]	; 0xffffffe4
   10560:	e1520003 	cmp	r2, r3
   10564:	0a000002 	beq	10574 <parse+0x22c>
   10568:	e51b3018 	ldr	r3, [fp, #-24]	; 0xffffffe8
   1056c:	e3a02000 	mov	r2, #0
   10570:	e5c32000 	strb	r2, [r3]
   10574:	e51b201c 	ldr	r2, [fp, #-28]	; 0xffffffe4
   10578:	e3a03000 	mov	r3, #0
   1057c:	e5c23000 	strb	r3, [r2]
   10580:	e51b301c 	ldr	r3, [fp, #-28]	; 0xffffffe4
   10584:	e2833001 	add	r3, r3, #1
   10588:	e50b301c 	str	r3, [fp, #-28]	; 0xffffffe4
   1058c:	ea000006 	b	105ac <parse+0x264>
   10590:	e51b301c 	ldr	r3, [fp, #-28]	; 0xffffffe4
   10594:	e2833001 	add	r3, r3, #1
   10598:	e50b301c 	str	r3, [fp, #-28]	; 0xffffffe4
   1059c:	e51b301c 	ldr	r3, [fp, #-28]	; 0xffffffe4
   105a0:	e5d33000 	ldrb	r3, [r3]
   105a4:	e3530000 	cmp	r3, #0
   105a8:	1affff9f 	bne	1042c <parse+0xe4>
   105ac:	e51b301c 	ldr	r3, [fp, #-28]	; 0xffffffe4
   105b0:	e5d33000 	ldrb	r3, [r3]
   105b4:	e3530000 	cmp	r3, #0
   105b8:	1affff74 	bne	10390 <parse+0x48>
   105bc:	e51b3010 	ldr	r3, [fp, #-16]
   105c0:	e3530000 	cmp	r3, #0
   105c4:	0a000004 	beq	105dc <parse+0x294>
   105c8:	e51b301c 	ldr	r3, [fp, #-28]	; 0xffffffe4
   105cc:	e2832001 	add	r2, r3, #1
   105d0:	e51b3020 	ldr	r3, [fp, #-32]	; 0xffffffe0
   105d4:	e5832000 	str	r2, [r3]
   105d8:	ea000002 	b	105e8 <parse+0x2a0>
   105dc:	e51b2020 	ldr	r2, [fp, #-32]	; 0xffffffe0
   105e0:	e51b301c 	ldr	r3, [fp, #-28]	; 0xffffffe4
   105e4:	e5823000 	str	r3, [r2]
   105e8:	e51b2024 	ldr	r2, [fp, #-36]	; 0xffffffdc
   105ec:	e51b3014 	ldr	r3, [fp, #-20]	; 0xffffffec
   105f0:	e5823000 	str	r3, [r2]
   105f4:	e51b3028 	ldr	r3, [fp, #-40]	; 0xffffffd8
   105f8:	e5933000 	ldr	r3, [r3]
   105fc:	e59f0024 	ldr	r0, [pc, #36]	; 10628 <parse+0x2e0>
   10600:	e59f1024 	ldr	r1, [pc, #36]	; 1062c <parse+0x2e4>
   10604:	e1a02003 	mov	r2, r3
   10608:	eb000008 	bl	10630 <cmd_search>
   1060c:	e1a03000 	mov	r3, r0
   10610:	e1a00003 	mov	r0, r3
   10614:	e24bd00c 	sub	sp, fp, #12
   10618:	e89d6800 	ldm	sp, {fp, sp, lr}
   1061c:	e12fff1e 	bx	lr
   10620:	00016248 	.word	0x00016248
   10624:	00016270 	.word	0x00016270
   10628:	81000318 	.word	0x81000318
   1062c:	810004f8 	.word	0x810004f8

00010630 <cmd_search>:
   10630:	e1a0c00d 	mov	ip, sp
   10634:	e92dd800 	push	{fp, ip, lr, pc}
   10638:	e24cb004 	sub	fp, ip, #4
   1063c:	e24dd020 	sub	sp, sp, #32
   10640:	e50b0020 	str	r0, [fp, #-32]	; 0xffffffe0
   10644:	e50b1024 	str	r1, [fp, #-36]	; 0xffffffdc
   10648:	e50b2028 	str	r2, [fp, #-40]	; 0xffffffd8
   1064c:	e51b0028 	ldr	r0, [fp, #-40]	; 0xffffffd8
   10650:	eb0004af 	bl	11914 <__strlen>
   10654:	e1a03000 	mov	r3, r0
   10658:	e50b301c 	str	r3, [fp, #-28]	; 0xffffffe4
   1065c:	e51b3020 	ldr	r3, [fp, #-32]	; 0xffffffe0
   10660:	e50b3018 	str	r3, [fp, #-24]	; 0xffffffe8
   10664:	ea000047 	b	10788 <cmd_search+0x158>
   10668:	e51b3018 	ldr	r3, [fp, #-24]	; 0xffffffe8
   1066c:	e5933000 	ldr	r3, [r3]
   10670:	e51b201c 	ldr	r2, [fp, #-28]	; 0xffffffe4
   10674:	e51b0028 	ldr	r0, [fp, #-40]	; 0xffffffd8
   10678:	e1a01003 	mov	r1, r3
   1067c:	ebfff830 	bl	e744 <strncasecmp>
   10680:	e1a03000 	mov	r3, r0
   10684:	e3530000 	cmp	r3, #0
   10688:	1a00003b 	bne	1077c <cmd_search+0x14c>
   1068c:	e51b3018 	ldr	r3, [fp, #-24]	; 0xffffffe8
   10690:	e5933000 	ldr	r3, [r3]
   10694:	e1a00003 	mov	r0, r3
   10698:	eb00049d 	bl	11914 <__strlen>
   1069c:	e1a02000 	mov	r2, r0
   106a0:	e51b301c 	ldr	r3, [fp, #-28]	; 0xffffffe4
   106a4:	e1520003 	cmp	r2, r3
   106a8:	9a000030 	bls	10770 <cmd_search+0x140>
   106ac:	e3a03001 	mov	r3, #1
   106b0:	e50b3010 	str	r3, [fp, #-16]
   106b4:	e51b3020 	ldr	r3, [fp, #-32]	; 0xffffffe0
   106b8:	e50b3014 	str	r3, [fp, #-20]	; 0xffffffec
   106bc:	ea00001f 	b	10740 <cmd_search+0x110>
   106c0:	e51b2018 	ldr	r2, [fp, #-24]	; 0xffffffe8
   106c4:	e51b3014 	ldr	r3, [fp, #-20]	; 0xffffffec
   106c8:	e1520003 	cmp	r2, r3
   106cc:	0a000018 	beq	10734 <cmd_search+0x104>
   106d0:	e51b3014 	ldr	r3, [fp, #-20]	; 0xffffffec
   106d4:	e5933000 	ldr	r3, [r3]
   106d8:	e51b201c 	ldr	r2, [fp, #-28]	; 0xffffffe4
   106dc:	e51b0028 	ldr	r0, [fp, #-40]	; 0xffffffd8
   106e0:	e1a01003 	mov	r1, r3
   106e4:	ebfff816 	bl	e744 <strncasecmp>
   106e8:	e1a03000 	mov	r3, r0
   106ec:	e3530000 	cmp	r3, #0
   106f0:	1a00000f 	bne	10734 <cmd_search+0x104>
   106f4:	e51b3010 	ldr	r3, [fp, #-16]
   106f8:	e3530000 	cmp	r3, #0
   106fc:	0a000007 	beq	10720 <cmd_search+0xf0>
   10700:	e51b3018 	ldr	r3, [fp, #-24]	; 0xffffffe8
   10704:	e5933000 	ldr	r3, [r3]
   10708:	e59f00a4 	ldr	r0, [pc, #164]	; 107b4 <cmd_search+0x184>
   1070c:	e51b1028 	ldr	r1, [fp, #-40]	; 0xffffffd8
   10710:	e1a02003 	mov	r2, r3
   10714:	ebfff198 	bl	cd7c <diag_printf>
   10718:	e3a03000 	mov	r3, #0
   1071c:	e50b3010 	str	r3, [fp, #-16]
   10720:	e51b3014 	ldr	r3, [fp, #-20]	; 0xffffffec
   10724:	e5933000 	ldr	r3, [r3]
   10728:	e59f0088 	ldr	r0, [pc, #136]	; 107b8 <cmd_search+0x188>
   1072c:	e1a01003 	mov	r1, r3
   10730:	ebfff191 	bl	cd7c <diag_printf>
   10734:	e51b3014 	ldr	r3, [fp, #-20]	; 0xffffffec
   10738:	e2833018 	add	r3, r3, #24
   1073c:	e50b3014 	str	r3, [fp, #-20]	; 0xffffffec
   10740:	e51b2014 	ldr	r2, [fp, #-20]	; 0xffffffec
   10744:	e51b3024 	ldr	r3, [fp, #-36]	; 0xffffffdc
   10748:	e1520003 	cmp	r2, r3
   1074c:	1affffdb 	bne	106c0 <cmd_search+0x90>
   10750:	e51b3010 	ldr	r3, [fp, #-16]
   10754:	e3530000 	cmp	r3, #0
   10758:	1a000004 	bne	10770 <cmd_search+0x140>
   1075c:	e59f0058 	ldr	r0, [pc, #88]	; 107bc <cmd_search+0x18c>
   10760:	ebfff185 	bl	cd7c <diag_printf>
   10764:	e3a03000 	mov	r3, #0
   10768:	e50b302c 	str	r3, [fp, #-44]	; 0xffffffd4
   1076c:	ea00000b 	b	107a0 <cmd_search+0x170>
   10770:	e51b3018 	ldr	r3, [fp, #-24]	; 0xffffffe8
   10774:	e50b302c 	str	r3, [fp, #-44]	; 0xffffffd4
   10778:	ea000008 	b	107a0 <cmd_search+0x170>
   1077c:	e51b3018 	ldr	r3, [fp, #-24]	; 0xffffffe8
   10780:	e2833018 	add	r3, r3, #24
   10784:	e50b3018 	str	r3, [fp, #-24]	; 0xffffffe8
   10788:	e51b2018 	ldr	r2, [fp, #-24]	; 0xffffffe8
   1078c:	e51b3024 	ldr	r3, [fp, #-36]	; 0xffffffdc
   10790:	e1520003 	cmp	r2, r3
   10794:	1affffb3 	bne	10668 <cmd_search+0x38>
   10798:	e3a03000 	mov	r3, #0
   1079c:	e50b302c 	str	r3, [fp, #-44]	; 0xffffffd4
   107a0:	e51b302c 	ldr	r3, [fp, #-44]	; 0xffffffd4
   107a4:	e1a00003 	mov	r0, r3
   107a8:	e24bd00c 	sub	sp, fp, #12
   107ac:	e89d6800 	ldm	sp, {fp, sp, lr}
   107b0:	e12fff1e 	bx	lr
   107b4:	00016284 	.word	0x00016284
   107b8:	000162ac 	.word	0x000162ac
   107bc:	000162b0 	.word	0x000162b0

000107c0 <err_printf>:
   107c0:	e1a0c00d 	mov	ip, sp
   107c4:	e92d000f 	push	{r0, r1, r2, r3}
   107c8:	e92dd800 	push	{fp, ip, lr, pc}
   107cc:	e24cb014 	sub	fp, ip, #20
   107d0:	e24dd008 	sub	sp, sp, #8
   107d4:	e28b3008 	add	r3, fp, #8
   107d8:	e50b3010 	str	r3, [fp, #-16]
   107dc:	e51b3010 	ldr	r3, [fp, #-16]
   107e0:	e59b0004 	ldr	r0, [fp, #4]
   107e4:	e1a01003 	mov	r1, r3
   107e8:	ebfff14e 	bl	cd28 <diag_vprintf>
   107ec:	e59f3028 	ldr	r3, [pc, #40]	; 1081c <err_printf+0x5c>
   107f0:	e5933000 	ldr	r3, [r3]
   107f4:	e3530000 	cmp	r3, #0
   107f8:	0a000004 	beq	10810 <err_printf+0x50>
   107fc:	e59f001c 	ldr	r0, [pc, #28]	; 10820 <err_printf+0x60>
   10800:	ebfff15d 	bl	cd7c <diag_printf>
   10804:	e59f0018 	ldr	r0, [pc, #24]	; 10824 <err_printf+0x64>
   10808:	e3a01001 	mov	r1, #1
   1080c:	eb0005b8 	bl	11ef4 <hal_longjmp>
   10810:	e24bd00c 	sub	sp, fp, #12
   10814:	e89d6800 	ldm	sp, {fp, sp, lr}
   10818:	e12fff1e 	bx	lr
   1081c:	810043dc 	.word	0x810043dc
   10820:	000162c8 	.word	0x000162c8
   10824:	810043e0 	.word	0x810043e0

00010828 <init_opts>:
   10828:	e1a0c00d 	mov	ip, sp
   1082c:	e92dd800 	push	{fp, ip, lr, pc}
   10830:	e24cb004 	sub	fp, ip, #4
   10834:	e24dd010 	sub	sp, sp, #16
   10838:	e50b0010 	str	r0, [fp, #-16]
   1083c:	e50b2018 	str	r2, [fp, #-24]	; 0xffffffe8
   10840:	e50b301c 	str	r3, [fp, #-28]	; 0xffffffe4
   10844:	e1a03001 	mov	r3, r1
   10848:	e54b3011 	strb	r3, [fp, #-17]	; 0xffffffef
   1084c:	e51b2010 	ldr	r2, [fp, #-16]
   10850:	e55b3011 	ldrb	r3, [fp, #-17]	; 0xffffffef
   10854:	e5c23000 	strb	r3, [r2]
   10858:	e51b2010 	ldr	r2, [fp, #-16]
   1085c:	e51b3018 	ldr	r3, [fp, #-24]	; 0xffffffe8
   10860:	e5823004 	str	r3, [r2, #4]
   10864:	e51b2010 	ldr	r2, [fp, #-16]
   10868:	e51b301c 	ldr	r3, [fp, #-28]	; 0xffffffe4
   1086c:	e5823008 	str	r3, [r2, #8]
   10870:	e51b2010 	ldr	r2, [fp, #-16]
   10874:	e59b3004 	ldr	r3, [fp, #4]
   10878:	e582300c 	str	r3, [r2, #12]
   1087c:	e51b2010 	ldr	r2, [fp, #-16]
   10880:	e59b3008 	ldr	r3, [fp, #8]
   10884:	e5823010 	str	r3, [r2, #16]
   10888:	e51b2010 	ldr	r2, [fp, #-16]
   1088c:	e59b300c 	ldr	r3, [fp, #12]
   10890:	e5823014 	str	r3, [r2, #20]
   10894:	e24bd00c 	sub	sp, fp, #12
   10898:	e89d6800 	ldm	sp, {fp, sp, lr}
   1089c:	e12fff1e 	bx	lr

000108a0 <scan_opts>:
   108a0:	e1a0c00d 	mov	ip, sp
   108a4:	e92dd800 	push	{fp, ip, lr, pc}
   108a8:	e24cb004 	sub	fp, ip, #4
   108ac:	e24dd040 	sub	sp, sp, #64	; 0x40
   108b0:	e50b0030 	str	r0, [fp, #-48]	; 0xffffffd0
   108b4:	e50b1034 	str	r1, [fp, #-52]	; 0xffffffcc
   108b8:	e50b2038 	str	r2, [fp, #-56]	; 0xffffffc8
   108bc:	e50b303c 	str	r3, [fp, #-60]	; 0xffffffc4
   108c0:	e3a03001 	mov	r3, #1
   108c4:	e50b302c 	str	r3, [fp, #-44]	; 0xffffffd4
   108c8:	e3a03000 	mov	r3, #0
   108cc:	e50b3024 	str	r3, [fp, #-36]	; 0xffffffdc
   108d0:	e59b3008 	ldr	r3, [fp, #8]
   108d4:	e3530000 	cmp	r3, #0
   108d8:	0a000005 	beq	108f4 <scan_opts+0x54>
   108dc:	e59b300c 	ldr	r3, [fp, #12]
   108e0:	e3530001 	cmp	r3, #1
   108e4:	1a000002 	bne	108f4 <scan_opts+0x54>
   108e8:	e59b2008 	ldr	r2, [fp, #8]
   108ec:	e3a03000 	mov	r3, #0
   108f0:	e5823000 	str	r3, [r2]
   108f4:	e51b303c 	ldr	r3, [fp, #-60]	; 0xffffffc4
   108f8:	e50b3010 	str	r3, [fp, #-16]
   108fc:	e3a03000 	mov	r3, #0
   10900:	e50b301c 	str	r3, [fp, #-28]	; 0xffffffe4
   10904:	ea000026 	b	109a4 <scan_opts+0x104>
   10908:	e51b3010 	ldr	r3, [fp, #-16]
   1090c:	e5933010 	ldr	r3, [r3, #16]
   10910:	e3530000 	cmp	r3, #0
   10914:	0a000003 	beq	10928 <scan_opts+0x88>
   10918:	e51b3010 	ldr	r3, [fp, #-16]
   1091c:	e5932010 	ldr	r2, [r3, #16]
   10920:	e3a03000 	mov	r3, #0
   10924:	e5823000 	str	r3, [r2]
   10928:	e51b3010 	ldr	r3, [fp, #-16]
   1092c:	e5933004 	ldr	r3, [r3, #4]
   10930:	e3530000 	cmp	r3, #0
   10934:	1a000014 	bne	1098c <scan_opts+0xec>
   10938:	e51b3010 	ldr	r3, [fp, #-16]
   1093c:	e5933008 	ldr	r3, [r3, #8]
   10940:	e50b3048 	str	r3, [fp, #-72]	; 0xffffffb8
   10944:	e51b3048 	ldr	r3, [fp, #-72]	; 0xffffffb8
   10948:	e3530000 	cmp	r3, #0
   1094c:	0a000003 	beq	10960 <scan_opts+0xc0>
   10950:	e51b3048 	ldr	r3, [fp, #-72]	; 0xffffffb8
   10954:	e3530002 	cmp	r3, #2
   10958:	0a000006 	beq	10978 <scan_opts+0xd8>
   1095c:	ea00000a 	b	1098c <scan_opts+0xec>
   10960:	e51b3010 	ldr	r3, [fp, #-16]
   10964:	e593300c 	ldr	r3, [r3, #12]
   10968:	e1a02003 	mov	r2, r3
   1096c:	e3a03000 	mov	r3, #0
   10970:	e5823000 	str	r3, [r2]
   10974:	ea000004 	b	1098c <scan_opts+0xec>
   10978:	e51b3010 	ldr	r3, [fp, #-16]
   1097c:	e593300c 	ldr	r3, [r3, #12]
   10980:	e1a02003 	mov	r2, r3
   10984:	e3a03000 	mov	r3, #0
   10988:	e5823000 	str	r3, [r2]
   1098c:	e51b301c 	ldr	r3, [fp, #-28]	; 0xffffffe4
   10990:	e2833001 	add	r3, r3, #1
   10994:	e50b301c 	str	r3, [fp, #-28]	; 0xffffffe4
   10998:	e51b3010 	ldr	r3, [fp, #-16]
   1099c:	e2833018 	add	r3, r3, #24
   109a0:	e50b3010 	str	r3, [fp, #-16]
   109a4:	e51b201c 	ldr	r2, [fp, #-28]	; 0xffffffe4
   109a8:	e59b3004 	ldr	r3, [fp, #4]
   109ac:	e1520003 	cmp	r2, r3
   109b0:	baffffd4 	blt	10908 <scan_opts+0x68>
   109b4:	e51b3038 	ldr	r3, [fp, #-56]	; 0xffffffc8
   109b8:	e50b3020 	str	r3, [fp, #-32]	; 0xffffffe0
   109bc:	ea0000df 	b	10d40 <scan_opts+0x4a0>
   109c0:	e51b3020 	ldr	r3, [fp, #-32]	; 0xffffffe0
   109c4:	e1a02103 	lsl	r2, r3, #2
   109c8:	e51b3034 	ldr	r3, [fp, #-52]	; 0xffffffcc
   109cc:	e0833002 	add	r3, r3, r2
   109d0:	e5933000 	ldr	r3, [r3]
   109d4:	e5d33000 	ldrb	r3, [r3]
   109d8:	e353002d 	cmp	r3, #45	; 0x2d
   109dc:	1a000098 	bne	10c44 <scan_opts+0x3a4>
   109e0:	e51b3020 	ldr	r3, [fp, #-32]	; 0xffffffe0
   109e4:	e1a02103 	lsl	r2, r3, #2
   109e8:	e51b3034 	ldr	r3, [fp, #-52]	; 0xffffffcc
   109ec:	e0833002 	add	r3, r3, r2
   109f0:	e5933000 	ldr	r3, [r3]
   109f4:	e2833001 	add	r3, r3, #1
   109f8:	e5d33000 	ldrb	r3, [r3]
   109fc:	e54b3015 	strb	r3, [fp, #-21]	; 0xffffffeb
   10a00:	e3a03000 	mov	r3, #0
   10a04:	e50b3028 	str	r3, [fp, #-40]	; 0xffffffd8
   10a08:	e51b303c 	ldr	r3, [fp, #-60]	; 0xffffffc4
   10a0c:	e50b3010 	str	r3, [fp, #-16]
   10a10:	e3a03000 	mov	r3, #0
   10a14:	e50b301c 	str	r3, [fp, #-28]	; 0xffffffe4
   10a18:	ea00007b 	b	10c0c <scan_opts+0x36c>
   10a1c:	e51b3010 	ldr	r3, [fp, #-16]
   10a20:	e5d32000 	ldrb	r2, [r3]
   10a24:	e55b3015 	ldrb	r3, [fp, #-21]	; 0xffffffeb
   10a28:	e1530002 	cmp	r3, r2
   10a2c:	1a000070 	bne	10bf4 <scan_opts+0x354>
   10a30:	e51b3010 	ldr	r3, [fp, #-16]
   10a34:	e5933010 	ldr	r3, [r3, #16]
   10a38:	e3530000 	cmp	r3, #0
   10a3c:	0a00000b 	beq	10a70 <scan_opts+0x1d0>
   10a40:	e51b3010 	ldr	r3, [fp, #-16]
   10a44:	e5933010 	ldr	r3, [r3, #16]
   10a48:	e5933000 	ldr	r3, [r3]
   10a4c:	e3530000 	cmp	r3, #0
   10a50:	0a000006 	beq	10a70 <scan_opts+0x1d0>
   10a54:	e51b3010 	ldr	r3, [fp, #-16]
   10a58:	e5933014 	ldr	r3, [r3, #20]
   10a5c:	e59f0300 	ldr	r0, [pc, #768]	; 10d64 <scan_opts+0x4c4>
   10a60:	e1a01003 	mov	r1, r3
   10a64:	ebfff0c4 	bl	cd7c <diag_printf>
   10a68:	e3a03000 	mov	r3, #0
   10a6c:	e50b302c 	str	r3, [fp, #-44]	; 0xffffffd4
   10a70:	e51b3010 	ldr	r3, [fp, #-16]
   10a74:	e5933004 	ldr	r3, [r3, #4]
   10a78:	e3530000 	cmp	r3, #0
   10a7c:	0a000041 	beq	10b88 <scan_opts+0x2e8>
   10a80:	e51b3020 	ldr	r3, [fp, #-32]	; 0xffffffe0
   10a84:	e1a02103 	lsl	r2, r3, #2
   10a88:	e51b3034 	ldr	r3, [fp, #-52]	; 0xffffffcc
   10a8c:	e0833002 	add	r3, r3, r2
   10a90:	e5933000 	ldr	r3, [r3]
   10a94:	e2833002 	add	r3, r3, #2
   10a98:	e5d33000 	ldrb	r3, [r3]
   10a9c:	e353003d 	cmp	r3, #61	; 0x3d
   10aa0:	1a000007 	bne	10ac4 <scan_opts+0x224>
   10aa4:	e51b3020 	ldr	r3, [fp, #-32]	; 0xffffffe0
   10aa8:	e1a02103 	lsl	r2, r3, #2
   10aac:	e51b3034 	ldr	r3, [fp, #-52]	; 0xffffffcc
   10ab0:	e0833002 	add	r3, r3, r2
   10ab4:	e5933000 	ldr	r3, [r3]
   10ab8:	e2833003 	add	r3, r3, #3
   10abc:	e50b3014 	str	r3, [fp, #-20]	; 0xffffffec
   10ac0:	ea000009 	b	10aec <scan_opts+0x24c>
   10ac4:	e51b3020 	ldr	r3, [fp, #-32]	; 0xffffffe0
   10ac8:	e2833001 	add	r3, r3, #1
   10acc:	e1a02103 	lsl	r2, r3, #2
   10ad0:	e51b3034 	ldr	r3, [fp, #-52]	; 0xffffffcc
   10ad4:	e0833002 	add	r3, r3, r2
   10ad8:	e5933000 	ldr	r3, [r3]
   10adc:	e50b3014 	str	r3, [fp, #-20]	; 0xffffffec
   10ae0:	e51b3020 	ldr	r3, [fp, #-32]	; 0xffffffe0
   10ae4:	e2833001 	add	r3, r3, #1
   10ae8:	e50b3020 	str	r3, [fp, #-32]	; 0xffffffe0
   10aec:	e51b3010 	ldr	r3, [fp, #-16]
   10af0:	e5933008 	ldr	r3, [r3, #8]
   10af4:	e50b3044 	str	r3, [fp, #-68]	; 0xffffffbc
   10af8:	e51b3044 	ldr	r3, [fp, #-68]	; 0xffffffbc
   10afc:	e3530000 	cmp	r3, #0
   10b00:	0a000003 	beq	10b14 <scan_opts+0x274>
   10b04:	e51b3044 	ldr	r3, [fp, #-68]	; 0xffffffbc
   10b08:	e3530001 	cmp	r3, #1
   10b0c:	0a000013 	beq	10b60 <scan_opts+0x2c0>
   10b10:	ea000017 	b	10b74 <scan_opts+0x2d4>
   10b14:	e51b3010 	ldr	r3, [fp, #-16]
   10b18:	e593300c 	ldr	r3, [r3, #12]
   10b1c:	e51b0014 	ldr	r0, [fp, #-20]	; 0xffffffec
   10b20:	e1a01003 	mov	r1, r3
   10b24:	e3a02000 	mov	r2, #0
   10b28:	e3a03000 	mov	r3, #0
   10b2c:	eb000090 	bl	10d74 <parse_num>
   10b30:	e1a03000 	mov	r3, r0
   10b34:	e3530000 	cmp	r3, #0
   10b38:	1a00000d 	bne	10b74 <scan_opts+0x2d4>
   10b3c:	e51b3010 	ldr	r3, [fp, #-16]
   10b40:	e5933014 	ldr	r3, [r3, #20]
   10b44:	e59f021c 	ldr	r0, [pc, #540]	; 10d68 <scan_opts+0x4c8>
   10b48:	e51b1014 	ldr	r1, [fp, #-20]	; 0xffffffec
   10b4c:	e1a02003 	mov	r2, r3
   10b50:	ebfff089 	bl	cd7c <diag_printf>
   10b54:	e3a03000 	mov	r3, #0
   10b58:	e50b302c 	str	r3, [fp, #-44]	; 0xffffffd4
   10b5c:	ea000004 	b	10b74 <scan_opts+0x2d4>
   10b60:	e51b3010 	ldr	r3, [fp, #-16]
   10b64:	e593300c 	ldr	r3, [r3, #12]
   10b68:	e1a02003 	mov	r2, r3
   10b6c:	e51b3014 	ldr	r3, [fp, #-20]	; 0xffffffec
   10b70:	e5823000 	str	r3, [r2]
   10b74:	e51b3010 	ldr	r3, [fp, #-16]
   10b78:	e5932010 	ldr	r2, [r3, #16]
   10b7c:	e3a03001 	mov	r3, #1
   10b80:	e5823000 	str	r3, [r2]
   10b84:	ea000017 	b	10be8 <scan_opts+0x348>
   10b88:	e51b3010 	ldr	r3, [fp, #-16]
   10b8c:	e5933008 	ldr	r3, [r3, #8]
   10b90:	e50b3040 	str	r3, [fp, #-64]	; 0xffffffc0
   10b94:	e51b3040 	ldr	r3, [fp, #-64]	; 0xffffffc0
   10b98:	e3530000 	cmp	r3, #0
   10b9c:	0a000003 	beq	10bb0 <scan_opts+0x310>
   10ba0:	e51b3040 	ldr	r3, [fp, #-64]	; 0xffffffc0
   10ba4:	e3530002 	cmp	r3, #2
   10ba8:	0a000009 	beq	10bd4 <scan_opts+0x334>
   10bac:	ea00000d 	b	10be8 <scan_opts+0x348>
   10bb0:	e51b3010 	ldr	r3, [fp, #-16]
   10bb4:	e593300c 	ldr	r3, [r3, #12]
   10bb8:	e1a02003 	mov	r2, r3
   10bbc:	e51b3010 	ldr	r3, [fp, #-16]
   10bc0:	e593300c 	ldr	r3, [r3, #12]
   10bc4:	e5933000 	ldr	r3, [r3]
   10bc8:	e2833001 	add	r3, r3, #1
   10bcc:	e5823000 	str	r3, [r2]
   10bd0:	ea000004 	b	10be8 <scan_opts+0x348>
   10bd4:	e51b3010 	ldr	r3, [fp, #-16]
   10bd8:	e593300c 	ldr	r3, [r3, #12]
   10bdc:	e1a02003 	mov	r2, r3
   10be0:	e3a03001 	mov	r3, #1
   10be4:	e5823000 	str	r3, [r2]
   10be8:	e3a03001 	mov	r3, #1
   10bec:	e50b3028 	str	r3, [fp, #-40]	; 0xffffffd8
   10bf0:	ea000009 	b	10c1c <scan_opts+0x37c>
   10bf4:	e51b301c 	ldr	r3, [fp, #-28]	; 0xffffffe4
   10bf8:	e2833001 	add	r3, r3, #1
   10bfc:	e50b301c 	str	r3, [fp, #-28]	; 0xffffffe4
   10c00:	e51b3010 	ldr	r3, [fp, #-16]
   10c04:	e2833018 	add	r3, r3, #24
   10c08:	e50b3010 	str	r3, [fp, #-16]
   10c0c:	e51b201c 	ldr	r2, [fp, #-28]	; 0xffffffe4
   10c10:	e59b3004 	ldr	r3, [fp, #4]
   10c14:	e1520003 	cmp	r2, r3
   10c18:	baffff7f 	blt	10a1c <scan_opts+0x17c>
   10c1c:	e51b3028 	ldr	r3, [fp, #-40]	; 0xffffffd8
   10c20:	e3530000 	cmp	r3, #0
   10c24:	1a000042 	bne	10d34 <scan_opts+0x494>
   10c28:	e55b3015 	ldrb	r3, [fp, #-21]	; 0xffffffeb
   10c2c:	e59f0138 	ldr	r0, [pc, #312]	; 10d6c <scan_opts+0x4cc>
   10c30:	e1a01003 	mov	r1, r3
   10c34:	ebfff050 	bl	cd7c <diag_printf>
   10c38:	e3a03000 	mov	r3, #0
   10c3c:	e50b302c 	str	r3, [fp, #-44]	; 0xffffffd4
   10c40:	ea00003b 	b	10d34 <scan_opts+0x494>
   10c44:	e59b3008 	ldr	r3, [fp, #8]
   10c48:	e3530000 	cmp	r3, #0
   10c4c:	0a000034 	beq	10d24 <scan_opts+0x484>
   10c50:	e51b3024 	ldr	r3, [fp, #-36]	; 0xffffffdc
   10c54:	e3530000 	cmp	r3, #0
   10c58:	0a000004 	beq	10c70 <scan_opts+0x3d0>
   10c5c:	e59f0100 	ldr	r0, [pc, #256]	; 10d64 <scan_opts+0x4c4>
   10c60:	e59b1010 	ldr	r1, [fp, #16]
   10c64:	ebfff044 	bl	cd7c <diag_printf>
   10c68:	e3a03000 	mov	r3, #0
   10c6c:	e50b302c 	str	r3, [fp, #-44]	; 0xffffffd4
   10c70:	e59b300c 	ldr	r3, [fp, #12]
   10c74:	e50b304c 	str	r3, [fp, #-76]	; 0xffffffb4
   10c78:	e51b304c 	ldr	r3, [fp, #-76]	; 0xffffffb4
   10c7c:	e3530000 	cmp	r3, #0
   10c80:	0a000003 	beq	10c94 <scan_opts+0x3f4>
   10c84:	e51b304c 	ldr	r3, [fp, #-76]	; 0xffffffb4
   10c88:	e3530001 	cmp	r3, #1
   10c8c:	0a00001a 	beq	10cfc <scan_opts+0x45c>
   10c90:	ea000020 	b	10d18 <scan_opts+0x478>
   10c94:	e51b3020 	ldr	r3, [fp, #-32]	; 0xffffffe0
   10c98:	e1a02103 	lsl	r2, r3, #2
   10c9c:	e51b3034 	ldr	r3, [fp, #-52]	; 0xffffffcc
   10ca0:	e0833002 	add	r3, r3, r2
   10ca4:	e5933000 	ldr	r3, [r3]
   10ca8:	e59b2008 	ldr	r2, [fp, #8]
   10cac:	e1a00003 	mov	r0, r3
   10cb0:	e1a01002 	mov	r1, r2
   10cb4:	e3a02000 	mov	r2, #0
   10cb8:	e3a03000 	mov	r3, #0
   10cbc:	eb00002c 	bl	10d74 <parse_num>
   10cc0:	e1a03000 	mov	r3, r0
   10cc4:	e3530000 	cmp	r3, #0
   10cc8:	1a000012 	bne	10d18 <scan_opts+0x478>
   10ccc:	e51b3020 	ldr	r3, [fp, #-32]	; 0xffffffe0
   10cd0:	e1a02103 	lsl	r2, r3, #2
   10cd4:	e51b3034 	ldr	r3, [fp, #-52]	; 0xffffffcc
   10cd8:	e0833002 	add	r3, r3, r2
   10cdc:	e5933000 	ldr	r3, [r3]
   10ce0:	e59f0080 	ldr	r0, [pc, #128]	; 10d68 <scan_opts+0x4c8>
   10ce4:	e1a01003 	mov	r1, r3
   10ce8:	e59b2010 	ldr	r2, [fp, #16]
   10cec:	ebfff022 	bl	cd7c <diag_printf>
   10cf0:	e3a03000 	mov	r3, #0
   10cf4:	e50b302c 	str	r3, [fp, #-44]	; 0xffffffd4
   10cf8:	ea000006 	b	10d18 <scan_opts+0x478>
   10cfc:	e59b1008 	ldr	r1, [fp, #8]
   10d00:	e51b3020 	ldr	r3, [fp, #-32]	; 0xffffffe0
   10d04:	e1a02103 	lsl	r2, r3, #2
   10d08:	e51b3034 	ldr	r3, [fp, #-52]	; 0xffffffcc
   10d0c:	e0833002 	add	r3, r3, r2
   10d10:	e5933000 	ldr	r3, [r3]
   10d14:	e5813000 	str	r3, [r1]
   10d18:	e3a03001 	mov	r3, #1
   10d1c:	e50b3024 	str	r3, [fp, #-36]	; 0xffffffdc
   10d20:	ea000003 	b	10d34 <scan_opts+0x494>
   10d24:	e59f0044 	ldr	r0, [pc, #68]	; 10d70 <scan_opts+0x4d0>
   10d28:	ebfff013 	bl	cd7c <diag_printf>
   10d2c:	e3a03000 	mov	r3, #0
   10d30:	e50b302c 	str	r3, [fp, #-44]	; 0xffffffd4
   10d34:	e51b3020 	ldr	r3, [fp, #-32]	; 0xffffffe0
   10d38:	e2833001 	add	r3, r3, #1
   10d3c:	e50b3020 	str	r3, [fp, #-32]	; 0xffffffe0
   10d40:	e51b2020 	ldr	r2, [fp, #-32]	; 0xffffffe0
   10d44:	e51b3030 	ldr	r3, [fp, #-48]	; 0xffffffd0
   10d48:	e1520003 	cmp	r2, r3
   10d4c:	baffff1b 	blt	109c0 <scan_opts+0x120>
   10d50:	e51b302c 	ldr	r3, [fp, #-44]	; 0xffffffd4
   10d54:	e1a00003 	mov	r0, r3
   10d58:	e24bd00c 	sub	sp, fp, #12
   10d5c:	e89d6800 	ldm	sp, {fp, sp, lr}
   10d60:	e12fff1e 	bx	lr
   10d64:	000162e8 	.word	0x000162e8
   10d68:	00016308 	.word	0x00016308
   10d6c:	00016330 	.word	0x00016330
   10d70:	00016350 	.word	0x00016350

00010d74 <parse_num>:
   10d74:	e1a0c00d 	mov	ip, sp
   10d78:	e92dd800 	push	{fp, ip, lr, pc}
   10d7c:	e24cb004 	sub	fp, ip, #4
   10d80:	e24dd030 	sub	sp, sp, #48	; 0x30
   10d84:	e50b0028 	str	r0, [fp, #-40]	; 0xffffffd8
   10d88:	e50b102c 	str	r1, [fp, #-44]	; 0xffffffd4
   10d8c:	e50b2030 	str	r2, [fp, #-48]	; 0xffffffd0
   10d90:	e50b3034 	str	r3, [fp, #-52]	; 0xffffffcc
   10d94:	e3a03001 	mov	r3, #1
   10d98:	e50b3024 	str	r3, [fp, #-36]	; 0xffffffdc
   10d9c:	e3a0300a 	mov	r3, #10
   10da0:	e50b3020 	str	r3, [fp, #-32]	; 0xffffffe0
   10da4:	e3a03000 	mov	r3, #0
   10da8:	e50b3018 	str	r3, [fp, #-24]	; 0xffffffe8
   10dac:	ea000002 	b	10dbc <parse_num+0x48>
   10db0:	e51b3028 	ldr	r3, [fp, #-40]	; 0xffffffd8
   10db4:	e2833001 	add	r3, r3, #1
   10db8:	e50b3028 	str	r3, [fp, #-40]	; 0xffffffd8
   10dbc:	e51b3028 	ldr	r3, [fp, #-40]	; 0xffffffd8
   10dc0:	e5d33000 	ldrb	r3, [r3]
   10dc4:	e3530020 	cmp	r3, #32
   10dc8:	0afffff8 	beq	10db0 <parse_num+0x3c>
   10dcc:	ea00004a 	b	10efc <parse_num+0x188>
   10dd0:	e51b3024 	ldr	r3, [fp, #-36]	; 0xffffffdc
   10dd4:	e3530000 	cmp	r3, #0
   10dd8:	0a000010 	beq	10e20 <parse_num+0xac>
   10ddc:	e51b3028 	ldr	r3, [fp, #-40]	; 0xffffffd8
   10de0:	e5d33000 	ldrb	r3, [r3]
   10de4:	e3530030 	cmp	r3, #48	; 0x30
   10de8:	1a00000c 	bne	10e20 <parse_num+0xac>
   10dec:	e51b3028 	ldr	r3, [fp, #-40]	; 0xffffffd8
   10df0:	e2833001 	add	r3, r3, #1
   10df4:	e5d33000 	ldrb	r3, [r3]
   10df8:	e1a00003 	mov	r0, r3
   10dfc:	eb000052 	bl	10f4c <_tolower>
   10e00:	e1a03000 	mov	r3, r0
   10e04:	e3530078 	cmp	r3, #120	; 0x78
   10e08:	1a000004 	bne	10e20 <parse_num+0xac>
   10e0c:	e3a03010 	mov	r3, #16
   10e10:	e50b3020 	str	r3, [fp, #-32]	; 0xffffffe0
   10e14:	e51b3028 	ldr	r3, [fp, #-40]	; 0xffffffd8
   10e18:	e2833002 	add	r3, r3, #2
   10e1c:	e50b3028 	str	r3, [fp, #-40]	; 0xffffffd8
   10e20:	e3a03000 	mov	r3, #0
   10e24:	e50b3024 	str	r3, [fp, #-36]	; 0xffffffdc
   10e28:	e51b3028 	ldr	r3, [fp, #-40]	; 0xffffffd8
   10e2c:	e5d33000 	ldrb	r3, [r3]
   10e30:	e54b3019 	strb	r3, [fp, #-25]	; 0xffffffe7
   10e34:	e51b3028 	ldr	r3, [fp, #-40]	; 0xffffffd8
   10e38:	e2833001 	add	r3, r3, #1
   10e3c:	e50b3028 	str	r3, [fp, #-40]	; 0xffffffd8
   10e40:	e55b3019 	ldrb	r3, [fp, #-25]	; 0xffffffe7
   10e44:	e1a00003 	mov	r0, r3
   10e48:	eb000053 	bl	10f9c <_is_hex>
   10e4c:	e1a03000 	mov	r3, r0
   10e50:	e3530000 	cmp	r3, #0
   10e54:	0a00000f 	beq	10e98 <parse_num+0x124>
   10e58:	e55b3019 	ldrb	r3, [fp, #-25]	; 0xffffffe7
   10e5c:	e1a00003 	mov	r0, r3
   10e60:	eb00006f 	bl	11024 <_from_hex>
   10e64:	e1a03000 	mov	r3, r0
   10e68:	e50b3014 	str	r3, [fp, #-20]	; 0xffffffec
   10e6c:	e51b2014 	ldr	r2, [fp, #-20]	; 0xffffffec
   10e70:	e51b3020 	ldr	r3, [fp, #-32]	; 0xffffffe0
   10e74:	e1520003 	cmp	r2, r3
   10e78:	aa000006 	bge	10e98 <parse_num+0x124>
   10e7c:	e51b2020 	ldr	r2, [fp, #-32]	; 0xffffffe0
   10e80:	e51b3018 	ldr	r3, [fp, #-24]	; 0xffffffe8
   10e84:	e0020293 	mul	r2, r3, r2
   10e88:	e51b3014 	ldr	r3, [fp, #-20]	; 0xffffffec
   10e8c:	e0823003 	add	r3, r2, r3
   10e90:	e50b3018 	str	r3, [fp, #-24]	; 0xffffffe8
   10e94:	ea000018 	b	10efc <parse_num+0x188>
   10e98:	e51b3034 	ldr	r3, [fp, #-52]	; 0xffffffcc
   10e9c:	e3530000 	cmp	r3, #0
   10ea0:	0a000012 	beq	10ef0 <parse_num+0x17c>
   10ea4:	e51b3034 	ldr	r3, [fp, #-52]	; 0xffffffcc
   10ea8:	e50b3010 	str	r3, [fp, #-16]
   10eac:	ea000002 	b	10ebc <parse_num+0x148>
   10eb0:	e51b3010 	ldr	r3, [fp, #-16]
   10eb4:	e2833001 	add	r3, r3, #1
   10eb8:	e50b3010 	str	r3, [fp, #-16]
   10ebc:	e51b3010 	ldr	r3, [fp, #-16]
   10ec0:	e5d33000 	ldrb	r3, [r3]
   10ec4:	e3530000 	cmp	r3, #0
   10ec8:	0a000004 	beq	10ee0 <parse_num+0x16c>
   10ecc:	e51b3010 	ldr	r3, [fp, #-16]
   10ed0:	e5d32000 	ldrb	r2, [r3]
   10ed4:	e55b3019 	ldrb	r3, [fp, #-25]	; 0xffffffe7
   10ed8:	e1530002 	cmp	r3, r2
   10edc:	1afffff3 	bne	10eb0 <parse_num+0x13c>
   10ee0:	e51b3010 	ldr	r3, [fp, #-16]
   10ee4:	e5d33000 	ldrb	r3, [r3]
   10ee8:	e3530000 	cmp	r3, #0
   10eec:	1a000006 	bne	10f0c <parse_num+0x198>
   10ef0:	e3a03000 	mov	r3, #0
   10ef4:	e50b3038 	str	r3, [fp, #-56]	; 0xffffffc8
   10ef8:	ea00000e 	b	10f38 <parse_num+0x1c4>
   10efc:	e51b3028 	ldr	r3, [fp, #-40]	; 0xffffffd8
   10f00:	e5d33000 	ldrb	r3, [r3]
   10f04:	e3530000 	cmp	r3, #0
   10f08:	1affffb0 	bne	10dd0 <parse_num+0x5c>
   10f0c:	e51b302c 	ldr	r3, [fp, #-44]	; 0xffffffd4
   10f10:	e51b2018 	ldr	r2, [fp, #-24]	; 0xffffffe8
   10f14:	e5832000 	str	r2, [r3]
   10f18:	e51b3030 	ldr	r3, [fp, #-48]	; 0xffffffd0
   10f1c:	e3530000 	cmp	r3, #0
   10f20:	0a000002 	beq	10f30 <parse_num+0x1bc>
   10f24:	e51b2030 	ldr	r2, [fp, #-48]	; 0xffffffd0
   10f28:	e51b3028 	ldr	r3, [fp, #-40]	; 0xffffffd8
   10f2c:	e5823000 	str	r3, [r2]
   10f30:	e3a03001 	mov	r3, #1
   10f34:	e50b3038 	str	r3, [fp, #-56]	; 0xffffffc8
   10f38:	e51b3038 	ldr	r3, [fp, #-56]	; 0xffffffc8
   10f3c:	e1a00003 	mov	r0, r3
   10f40:	e24bd00c 	sub	sp, fp, #12
   10f44:	e89d6800 	ldm	sp, {fp, sp, lr}
   10f48:	e12fff1e 	bx	lr

00010f4c <_tolower>:
   10f4c:	e1a0c00d 	mov	ip, sp
   10f50:	e92dd800 	push	{fp, ip, lr, pc}
   10f54:	e24cb004 	sub	fp, ip, #4
   10f58:	e24dd008 	sub	sp, sp, #8
   10f5c:	e1a03000 	mov	r3, r0
   10f60:	e54b300d 	strb	r3, [fp, #-13]
   10f64:	e55b300d 	ldrb	r3, [fp, #-13]
   10f68:	e3530040 	cmp	r3, #64	; 0x40
   10f6c:	9a000005 	bls	10f88 <_tolower+0x3c>
   10f70:	e55b300d 	ldrb	r3, [fp, #-13]
   10f74:	e353005a 	cmp	r3, #90	; 0x5a
   10f78:	8a000002 	bhi	10f88 <_tolower+0x3c>
   10f7c:	e55b300d 	ldrb	r3, [fp, #-13]
   10f80:	e2833020 	add	r3, r3, #32
   10f84:	e54b300d 	strb	r3, [fp, #-13]
   10f88:	e55b300d 	ldrb	r3, [fp, #-13]
   10f8c:	e1a00003 	mov	r0, r3
   10f90:	e24bd00c 	sub	sp, fp, #12
   10f94:	e89d6800 	ldm	sp, {fp, sp, lr}
   10f98:	e12fff1e 	bx	lr

00010f9c <_is_hex>:
   10f9c:	e1a0c00d 	mov	ip, sp
   10fa0:	e92dd800 	push	{fp, ip, lr, pc}
   10fa4:	e24cb004 	sub	fp, ip, #4
   10fa8:	e24dd008 	sub	sp, sp, #8
   10fac:	e1a03000 	mov	r3, r0
   10fb0:	e54b300d 	strb	r3, [fp, #-13]
   10fb4:	e55b300d 	ldrb	r3, [fp, #-13]
   10fb8:	e353002f 	cmp	r3, #47	; 0x2f
   10fbc:	9a000002 	bls	10fcc <_is_hex+0x30>
   10fc0:	e55b300d 	ldrb	r3, [fp, #-13]
   10fc4:	e3530039 	cmp	r3, #57	; 0x39
   10fc8:	9a00000b 	bls	10ffc <_is_hex+0x60>
   10fcc:	e55b300d 	ldrb	r3, [fp, #-13]
   10fd0:	e3530040 	cmp	r3, #64	; 0x40
   10fd4:	9a000002 	bls	10fe4 <_is_hex+0x48>
   10fd8:	e55b300d 	ldrb	r3, [fp, #-13]
   10fdc:	e3530046 	cmp	r3, #70	; 0x46
   10fe0:	9a000005 	bls	10ffc <_is_hex+0x60>
   10fe4:	e55b300d 	ldrb	r3, [fp, #-13]
   10fe8:	e3530060 	cmp	r3, #96	; 0x60
   10fec:	9a000005 	bls	11008 <_is_hex+0x6c>
   10ff0:	e55b300d 	ldrb	r3, [fp, #-13]
   10ff4:	e3530066 	cmp	r3, #102	; 0x66
   10ff8:	8a000002 	bhi	11008 <_is_hex+0x6c>
   10ffc:	e3a03001 	mov	r3, #1
   11000:	e50b3014 	str	r3, [fp, #-20]	; 0xffffffec
   11004:	ea000001 	b	11010 <_is_hex+0x74>
   11008:	e3a03000 	mov	r3, #0
   1100c:	e50b3014 	str	r3, [fp, #-20]	; 0xffffffec
   11010:	e51b3014 	ldr	r3, [fp, #-20]	; 0xffffffec
   11014:	e1a00003 	mov	r0, r3
   11018:	e24bd00c 	sub	sp, fp, #12
   1101c:	e89d6800 	ldm	sp, {fp, sp, lr}
   11020:	e12fff1e 	bx	lr

00011024 <_from_hex>:
   11024:	e1a0c00d 	mov	ip, sp
   11028:	e92dd800 	push	{fp, ip, lr, pc}
   1102c:	e24cb004 	sub	fp, ip, #4
   11030:	e24dd010 	sub	sp, sp, #16
   11034:	e1a03000 	mov	r3, r0
   11038:	e54b3015 	strb	r3, [fp, #-21]	; 0xffffffeb
   1103c:	e3a03000 	mov	r3, #0
   11040:	e50b3010 	str	r3, [fp, #-16]
   11044:	e55b3015 	ldrb	r3, [fp, #-21]	; 0xffffffeb
   11048:	e353002f 	cmp	r3, #47	; 0x2f
   1104c:	9a000006 	bls	1106c <_from_hex+0x48>
   11050:	e55b3015 	ldrb	r3, [fp, #-21]	; 0xffffffeb
   11054:	e3530039 	cmp	r3, #57	; 0x39
   11058:	8a000003 	bhi	1106c <_from_hex+0x48>
   1105c:	e55b3015 	ldrb	r3, [fp, #-21]	; 0xffffffeb
   11060:	e2433030 	sub	r3, r3, #48	; 0x30
   11064:	e50b3010 	str	r3, [fp, #-16]
   11068:	ea000012 	b	110b8 <_from_hex+0x94>
   1106c:	e55b3015 	ldrb	r3, [fp, #-21]	; 0xffffffeb
   11070:	e3530060 	cmp	r3, #96	; 0x60
   11074:	9a000006 	bls	11094 <_from_hex+0x70>
   11078:	e55b3015 	ldrb	r3, [fp, #-21]	; 0xffffffeb
   1107c:	e3530066 	cmp	r3, #102	; 0x66
   11080:	8a000003 	bhi	11094 <_from_hex+0x70>
   11084:	e55b3015 	ldrb	r3, [fp, #-21]	; 0xffffffeb
   11088:	e2433057 	sub	r3, r3, #87	; 0x57
   1108c:	e50b3010 	str	r3, [fp, #-16]
   11090:	ea000008 	b	110b8 <_from_hex+0x94>
   11094:	e55b3015 	ldrb	r3, [fp, #-21]	; 0xffffffeb
   11098:	e3530040 	cmp	r3, #64	; 0x40
   1109c:	9a000005 	bls	110b8 <_from_hex+0x94>
   110a0:	e55b3015 	ldrb	r3, [fp, #-21]	; 0xffffffeb
   110a4:	e3530046 	cmp	r3, #70	; 0x46
   110a8:	8a000002 	bhi	110b8 <_from_hex+0x94>
   110ac:	e55b3015 	ldrb	r3, [fp, #-21]	; 0xffffffeb
   110b0:	e2433037 	sub	r3, r3, #55	; 0x37
   110b4:	e50b3010 	str	r3, [fp, #-16]
   110b8:	e51b3010 	ldr	r3, [fp, #-16]
   110bc:	e1a00003 	mov	r0, r3
   110c0:	e24bd00c 	sub	sp, fp, #12
   110c4:	e89d6800 	ldm	sp, {fp, sp, lr}
   110c8:	e12fff1e 	bx	lr

000110cc <lookup_alias>:
   110cc:	e1a0c00d 	mov	ip, sp
   110d0:	e92dd800 	push	{fp, ip, lr, pc}
   110d4:	e24cb004 	sub	fp, ip, #4
   110d8:	e24dd010 	sub	sp, sp, #16
   110dc:	e50b0010 	str	r0, [fp, #-16]
   110e0:	e50b1014 	str	r1, [fp, #-20]	; 0xffffffec
   110e4:	e59f00a4 	ldr	r0, [pc, #164]	; 11190 <lookup_alias+0xc4>
   110e8:	e51b1010 	ldr	r1, [fp, #-16]
   110ec:	ebfff554 	bl	e644 <strcasecmp>
   110f0:	e1a03000 	mov	r3, r0
   110f4:	e3530000 	cmp	r3, #0
   110f8:	1a00000c 	bne	11130 <lookup_alias+0x64>
   110fc:	e59f3090 	ldr	r3, [pc, #144]	; 11194 <lookup_alias+0xc8>
   11100:	e5933000 	ldr	r3, [r3]
   11104:	e2833fff 	add	r3, r3, #1020	; 0x3fc
   11108:	e2833003 	add	r3, r3, #3
   1110c:	e3c33fff 	bic	r3, r3, #1020	; 0x3fc
   11110:	e3c33003 	bic	r3, r3, #3
   11114:	e51b0014 	ldr	r0, [fp, #-20]	; 0xffffffec
   11118:	e59f1078 	ldr	r1, [pc, #120]	; 11198 <lookup_alias+0xcc>
   1111c:	e1a02003 	mov	r2, r3
   11120:	ebffefe7 	bl	d0c4 <diag_sprintf>
   11124:	e51b3014 	ldr	r3, [fp, #-20]	; 0xffffffec
   11128:	e50b3018 	str	r3, [fp, #-24]	; 0xffffffe8
   1112c:	ea000012 	b	1117c <lookup_alias+0xb0>
   11130:	e59f0064 	ldr	r0, [pc, #100]	; 1119c <lookup_alias+0xd0>
   11134:	e51b1010 	ldr	r1, [fp, #-16]
   11138:	ebfff541 	bl	e644 <strcasecmp>
   1113c:	e1a03000 	mov	r3, r0
   11140:	e3530000 	cmp	r3, #0
   11144:	1a00000a 	bne	11174 <lookup_alias+0xa8>
   11148:	e59f3044 	ldr	r3, [pc, #68]	; 11194 <lookup_alias+0xc8>
   1114c:	e5933004 	ldr	r3, [r3, #4]
   11150:	e3c33fff 	bic	r3, r3, #1020	; 0x3fc
   11154:	e3c33003 	bic	r3, r3, #3
   11158:	e51b0014 	ldr	r0, [fp, #-20]	; 0xffffffec
   1115c:	e59f1034 	ldr	r1, [pc, #52]	; 11198 <lookup_alias+0xcc>
   11160:	e1a02003 	mov	r2, r3
   11164:	ebffefd6 	bl	d0c4 <diag_sprintf>
   11168:	e51b3014 	ldr	r3, [fp, #-20]	; 0xffffffec
   1116c:	e50b3018 	str	r3, [fp, #-24]	; 0xffffffe8
   11170:	ea000001 	b	1117c <lookup_alias+0xb0>
   11174:	e3a03000 	mov	r3, #0
   11178:	e50b3018 	str	r3, [fp, #-24]	; 0xffffffe8
   1117c:	e51b3018 	ldr	r3, [fp, #-24]	; 0xffffffe8
   11180:	e1a00003 	mov	r0, r3
   11184:	e24bd00c 	sub	sp, fp, #12
   11188:	e89d6800 	ldm	sp, {fp, sp, lr}
   1118c:	e12fff1e 	bx	lr
   11190:	0001639c 	.word	0x0001639c
   11194:	81005734 	.word	0x81005734
   11198:	000163a8 	.word	0x000163a8
   1119c:	000163b0 	.word	0x000163b0

000111a0 <_expand_aliases>:
   111a0:	e1a0c00d 	mov	ip, sp
   111a4:	e92dd810 	push	{r4, fp, ip, lr, pc}
   111a8:	e24cb004 	sub	fp, ip, #4
   111ac:	e24dd05c 	sub	sp, sp, #92	; 0x5c
   111b0:	e50b0060 	str	r0, [fp, #-96]	; 0xffffffa0
   111b4:	e50b1064 	str	r1, [fp, #-100]	; 0xffffff9c
   111b8:	e50b2068 	str	r2, [fp, #-104]	; 0xffffff98
   111bc:	e51b3060 	ldr	r3, [fp, #-96]	; 0xffffffa0
   111c0:	e50b303c 	str	r3, [fp, #-60]	; 0xffffffc4
   111c4:	e3a03000 	mov	r3, #0
   111c8:	e50b3018 	str	r3, [fp, #-24]	; 0xffffffe8
   111cc:	e51b0060 	ldr	r0, [fp, #-96]	; 0xffffffa0
   111d0:	eb0001cf 	bl	11914 <__strlen>
   111d4:	e1a03000 	mov	r3, r0
   111d8:	e50b3020 	str	r3, [fp, #-32]	; 0xffffffe0
   111dc:	e51b3020 	ldr	r3, [fp, #-32]	; 0xffffffe0
   111e0:	e3530000 	cmp	r3, #0
   111e4:	0a0000d4 	beq	1153c <_expand_aliases+0x39c>
   111e8:	ea0000cf 	b	1152c <_expand_aliases+0x38c>
   111ec:	e51b303c 	ldr	r3, [fp, #-60]	; 0xffffffc4
   111f0:	e5d33000 	ldrb	r3, [r3]
   111f4:	e54b3025 	strb	r3, [fp, #-37]	; 0xffffffdb
   111f8:	e51b303c 	ldr	r3, [fp, #-60]	; 0xffffffc4
   111fc:	e2833001 	add	r3, r3, #1
   11200:	e50b303c 	str	r3, [fp, #-60]	; 0xffffffc4
   11204:	e55b3025 	ldrb	r3, [fp, #-37]	; 0xffffffdb
   11208:	e3530025 	cmp	r3, #37	; 0x25
   1120c:	1a0000b4 	bne	114e4 <_expand_aliases+0x344>
   11210:	e51b303c 	ldr	r3, [fp, #-60]	; 0xffffffc4
   11214:	e5d33000 	ldrb	r3, [r3]
   11218:	e353007b 	cmp	r3, #123	; 0x7b
   1121c:	1a0000b0 	bne	114e4 <_expand_aliases+0x344>
   11220:	e51b303c 	ldr	r3, [fp, #-60]	; 0xffffffc4
   11224:	e2833001 	add	r3, r3, #1
   11228:	e50b3038 	str	r3, [fp, #-56]	; 0xffffffc8
   1122c:	e51b303c 	ldr	r3, [fp, #-60]	; 0xffffffc4
   11230:	e2833002 	add	r3, r3, #2
   11234:	e50b303c 	str	r3, [fp, #-60]	; 0xffffffc4
   11238:	ea000002 	b	11248 <_expand_aliases+0xa8>
   1123c:	e51b303c 	ldr	r3, [fp, #-60]	; 0xffffffc4
   11240:	e2833001 	add	r3, r3, #1
   11244:	e50b303c 	str	r3, [fp, #-60]	; 0xffffffc4
   11248:	e51b303c 	ldr	r3, [fp, #-60]	; 0xffffffc4
   1124c:	e5d33000 	ldrb	r3, [r3]
   11250:	e3530000 	cmp	r3, #0
   11254:	0a000003 	beq	11268 <_expand_aliases+0xc8>
   11258:	e51b303c 	ldr	r3, [fp, #-60]	; 0xffffffc4
   1125c:	e5d33000 	ldrb	r3, [r3]
   11260:	e353007d 	cmp	r3, #125	; 0x7d
   11264:	1afffff4 	bne	1123c <_expand_aliases+0x9c>
   11268:	e51b303c 	ldr	r3, [fp, #-60]	; 0xffffffc4
   1126c:	e5d33000 	ldrb	r3, [r3]
   11270:	e3530000 	cmp	r3, #0
   11274:	1a000008 	bne	1129c <_expand_aliases+0xfc>
   11278:	e59f02d8 	ldr	r0, [pc, #728]	; 11558 <_expand_aliases+0x3b8>
   1127c:	e51b1038 	ldr	r1, [fp, #-56]	; 0xffffffc8
   11280:	ebffeebd 	bl	cd7c <diag_printf>
   11284:	e51b3060 	ldr	r3, [fp, #-96]	; 0xffffffa0
   11288:	e3a02000 	mov	r2, #0
   1128c:	e5c32000 	strb	r2, [r3]
   11290:	e3a03000 	mov	r3, #0
   11294:	e50b306c 	str	r3, [fp, #-108]	; 0xffffff94
   11298:	ea0000a9 	b	11544 <_expand_aliases+0x3a4>
   1129c:	e51b303c 	ldr	r3, [fp, #-60]	; 0xffffffc4
   112a0:	e50b3034 	str	r3, [fp, #-52]	; 0xffffffcc
   112a4:	e51b2034 	ldr	r2, [fp, #-52]	; 0xffffffcc
   112a8:	e3a03000 	mov	r3, #0
   112ac:	e5c23000 	strb	r3, [r2]
   112b0:	e51b303c 	ldr	r3, [fp, #-60]	; 0xffffffc4
   112b4:	e2833001 	add	r3, r3, #1
   112b8:	e50b303c 	str	r3, [fp, #-60]	; 0xffffffc4
   112bc:	e24b305c 	sub	r3, fp, #92	; 0x5c
   112c0:	e51b0038 	ldr	r0, [fp, #-56]	; 0xffffffc8
   112c4:	e1a01003 	mov	r1, r3
   112c8:	ebffff7f 	bl	110cc <lookup_alias>
   112cc:	e1a03000 	mov	r3, r0
   112d0:	e50b302c 	str	r3, [fp, #-44]	; 0xffffffd4
   112d4:	e51b302c 	ldr	r3, [fp, #-44]	; 0xffffffd4
   112d8:	e3530000 	cmp	r3, #0
   112dc:	0a000079 	beq	114c8 <_expand_aliases+0x328>
   112e0:	e51b002c 	ldr	r0, [fp, #-44]	; 0xffffffd4
   112e4:	eb00018a 	bl	11914 <__strlen>
   112e8:	e1a03000 	mov	r3, r0
   112ec:	e50b301c 	str	r3, [fp, #-28]	; 0xffffffe4
   112f0:	e51b2020 	ldr	r2, [fp, #-32]	; 0xffffffe0
   112f4:	e51b301c 	ldr	r3, [fp, #-28]	; 0xffffffe4
   112f8:	e0822003 	add	r2, r2, r3
   112fc:	e51b3064 	ldr	r3, [fp, #-100]	; 0xffffff9c
   11300:	e1520003 	cmp	r2, r3
   11304:	aa000066 	bge	114a4 <_expand_aliases+0x304>
   11308:	e51b401c 	ldr	r4, [fp, #-28]	; 0xffffffe4
   1130c:	e51b0038 	ldr	r0, [fp, #-56]	; 0xffffffc8
   11310:	eb00017f 	bl	11914 <__strlen>
   11314:	e1a03000 	mov	r3, r0
   11318:	e0633004 	rsb	r3, r3, r4
   1131c:	e2433002 	sub	r3, r3, #2
   11320:	e50b3024 	str	r3, [fp, #-36]	; 0xffffffdc
   11324:	e51b003c 	ldr	r0, [fp, #-60]	; 0xffffffc4
   11328:	eb000179 	bl	11914 <__strlen>
   1132c:	e1a03000 	mov	r3, r0
   11330:	e2432001 	sub	r2, r3, #1
   11334:	e51b303c 	ldr	r3, [fp, #-60]	; 0xffffffc4
   11338:	e0833002 	add	r3, r3, r2
   1133c:	e50b3030 	str	r3, [fp, #-48]	; 0xffffffd0
   11340:	e51b3024 	ldr	r3, [fp, #-36]	; 0xffffffdc
   11344:	e3530001 	cmp	r3, #1
   11348:	da000015 	ble	113a4 <_expand_aliases+0x204>
   1134c:	e51b2024 	ldr	r2, [fp, #-36]	; 0xffffffdc
   11350:	e51b3030 	ldr	r3, [fp, #-48]	; 0xffffffd0
   11354:	e0832002 	add	r2, r3, r2
   11358:	e3a03000 	mov	r3, #0
   1135c:	e5c23000 	strb	r3, [r2]
   11360:	ea000009 	b	1138c <_expand_aliases+0x1ec>
   11364:	e51b3024 	ldr	r3, [fp, #-36]	; 0xffffffdc
   11368:	e2432001 	sub	r2, r3, #1
   1136c:	e51b3030 	ldr	r3, [fp, #-48]	; 0xffffffd0
   11370:	e0832002 	add	r2, r3, r2
   11374:	e51b3030 	ldr	r3, [fp, #-48]	; 0xffffffd0
   11378:	e5d33000 	ldrb	r3, [r3]
   1137c:	e5c23000 	strb	r3, [r2]
   11380:	e51b3030 	ldr	r3, [fp, #-48]	; 0xffffffd0
   11384:	e2433001 	sub	r3, r3, #1
   11388:	e50b3030 	str	r3, [fp, #-48]	; 0xffffffd0
   1138c:	e51b303c 	ldr	r3, [fp, #-60]	; 0xffffffc4
   11390:	e2432001 	sub	r2, r3, #1
   11394:	e51b3030 	ldr	r3, [fp, #-48]	; 0xffffffd0
   11398:	e1520003 	cmp	r2, r3
   1139c:	1afffff0 	bne	11364 <_expand_aliases+0x1c4>
   113a0:	ea000018 	b	11408 <_expand_aliases+0x268>
   113a4:	e51b3024 	ldr	r3, [fp, #-36]	; 0xffffffdc
   113a8:	e3530000 	cmp	r3, #0
   113ac:	ca000015 	bgt	11408 <_expand_aliases+0x268>
   113b0:	ea000009 	b	113dc <_expand_aliases+0x23c>
   113b4:	e51b3024 	ldr	r3, [fp, #-36]	; 0xffffffdc
   113b8:	e2432001 	sub	r2, r3, #1
   113bc:	e51b303c 	ldr	r3, [fp, #-60]	; 0xffffffc4
   113c0:	e0832002 	add	r2, r3, r2
   113c4:	e51b303c 	ldr	r3, [fp, #-60]	; 0xffffffc4
   113c8:	e5d33000 	ldrb	r3, [r3]
   113cc:	e5c23000 	strb	r3, [r2]
   113d0:	e51b303c 	ldr	r3, [fp, #-60]	; 0xffffffc4
   113d4:	e2833001 	add	r3, r3, #1
   113d8:	e50b303c 	str	r3, [fp, #-60]	; 0xffffffc4
   113dc:	e51b303c 	ldr	r3, [fp, #-60]	; 0xffffffc4
   113e0:	e2432001 	sub	r2, r3, #1
   113e4:	e51b3030 	ldr	r3, [fp, #-48]	; 0xffffffd0
   113e8:	e1520003 	cmp	r2, r3
   113ec:	1afffff0 	bne	113b4 <_expand_aliases+0x214>
   113f0:	e51b3024 	ldr	r3, [fp, #-36]	; 0xffffffdc
   113f4:	e2432001 	sub	r2, r3, #1
   113f8:	e51b303c 	ldr	r3, [fp, #-60]	; 0xffffffc4
   113fc:	e0832002 	add	r2, r3, r2
   11400:	e3a03000 	mov	r3, #0
   11404:	e5c23000 	strb	r3, [r2]
   11408:	e51b3038 	ldr	r3, [fp, #-56]	; 0xffffffc8
   1140c:	e2433002 	sub	r3, r3, #2
   11410:	e50b303c 	str	r3, [fp, #-60]	; 0xffffffc4
   11414:	ea000014 	b	1146c <_expand_aliases+0x2cc>
   11418:	e51b302c 	ldr	r3, [fp, #-44]	; 0xffffffd4
   1141c:	e5d33000 	ldrb	r3, [r3]
   11420:	e3530025 	cmp	r3, #37	; 0x25
   11424:	1a000006 	bne	11444 <_expand_aliases+0x2a4>
   11428:	e51b302c 	ldr	r3, [fp, #-44]	; 0xffffffd4
   1142c:	e2833001 	add	r3, r3, #1
   11430:	e5d33000 	ldrb	r3, [r3]
   11434:	e353007b 	cmp	r3, #123	; 0x7b
   11438:	1a000001 	bne	11444 <_expand_aliases+0x2a4>
   1143c:	e3a03001 	mov	r3, #1
   11440:	e50b3018 	str	r3, [fp, #-24]	; 0xffffffe8
   11444:	e51b302c 	ldr	r3, [fp, #-44]	; 0xffffffd4
   11448:	e5d33000 	ldrb	r3, [r3]
   1144c:	e51b203c 	ldr	r2, [fp, #-60]	; 0xffffffc4
   11450:	e5c23000 	strb	r3, [r2]
   11454:	e51b303c 	ldr	r3, [fp, #-60]	; 0xffffffc4
   11458:	e2833001 	add	r3, r3, #1
   1145c:	e50b303c 	str	r3, [fp, #-60]	; 0xffffffc4
   11460:	e51b302c 	ldr	r3, [fp, #-44]	; 0xffffffd4
   11464:	e2833001 	add	r3, r3, #1
   11468:	e50b302c 	str	r3, [fp, #-44]	; 0xffffffd4
   1146c:	e51b302c 	ldr	r3, [fp, #-44]	; 0xffffffd4
   11470:	e5d33000 	ldrb	r3, [r3]
   11474:	e3530000 	cmp	r3, #0
   11478:	1affffe6 	bne	11418 <_expand_aliases+0x278>
   1147c:	e51b0060 	ldr	r0, [fp, #-96]	; 0xffffffa0
   11480:	eb000123 	bl	11914 <__strlen>
   11484:	e1a03000 	mov	r3, r0
   11488:	e50b3020 	str	r3, [fp, #-32]	; 0xffffffe0
   1148c:	e51b301c 	ldr	r3, [fp, #-28]	; 0xffffffe4
   11490:	e2632000 	rsb	r2, r3, #0
   11494:	e51b303c 	ldr	r3, [fp, #-60]	; 0xffffffc4
   11498:	e0833002 	add	r3, r3, r2
   1149c:	e50b303c 	str	r3, [fp, #-60]	; 0xffffffc4
   114a0:	ea000021 	b	1152c <_expand_aliases+0x38c>
   114a4:	e59f00b0 	ldr	r0, [pc, #176]	; 1155c <_expand_aliases+0x3bc>
   114a8:	e51b1038 	ldr	r1, [fp, #-56]	; 0xffffffc8
   114ac:	ebffee32 	bl	cd7c <diag_printf>
   114b0:	e51b3060 	ldr	r3, [fp, #-96]	; 0xffffffa0
   114b4:	e3a02000 	mov	r2, #0
   114b8:	e5c32000 	strb	r2, [r3]
   114bc:	e3a03000 	mov	r3, #0
   114c0:	e50b306c 	str	r3, [fp, #-108]	; 0xffffff94
   114c4:	ea00001e 	b	11544 <_expand_aliases+0x3a4>
   114c8:	e59f0090 	ldr	r0, [pc, #144]	; 11560 <_expand_aliases+0x3c0>
   114cc:	e51b1038 	ldr	r1, [fp, #-56]	; 0xffffffc8
   114d0:	ebffee29 	bl	cd7c <diag_printf>
   114d4:	e51b3034 	ldr	r3, [fp, #-52]	; 0xffffffcc
   114d8:	e3a0207c 	mov	r2, #124	; 0x7c
   114dc:	e5c32000 	strb	r2, [r3]
   114e0:	ea000011 	b	1152c <_expand_aliases+0x38c>
   114e4:	e55b3025 	ldrb	r3, [fp, #-37]	; 0xffffffdb
   114e8:	e3530022 	cmp	r3, #34	; 0x22
   114ec:	1a00000e 	bne	1152c <_expand_aliases+0x38c>
   114f0:	e51b3068 	ldr	r3, [fp, #-104]	; 0xffffff98
   114f4:	e3530000 	cmp	r3, #0
   114f8:	1a00000b 	bne	1152c <_expand_aliases+0x38c>
   114fc:	ea000002 	b	1150c <_expand_aliases+0x36c>
   11500:	e51b303c 	ldr	r3, [fp, #-60]	; 0xffffffc4
   11504:	e2833001 	add	r3, r3, #1
   11508:	e50b303c 	str	r3, [fp, #-60]	; 0xffffffc4
   1150c:	e51b303c 	ldr	r3, [fp, #-60]	; 0xffffffc4
   11510:	e5d33000 	ldrb	r3, [r3]
   11514:	e3530000 	cmp	r3, #0
   11518:	0a000003 	beq	1152c <_expand_aliases+0x38c>
   1151c:	e51b303c 	ldr	r3, [fp, #-60]	; 0xffffffc4
   11520:	e5d33000 	ldrb	r3, [r3]
   11524:	e3530022 	cmp	r3, #34	; 0x22
   11528:	1afffff4 	bne	11500 <_expand_aliases+0x360>
   1152c:	e51b303c 	ldr	r3, [fp, #-60]	; 0xffffffc4
   11530:	e5d33000 	ldrb	r3, [r3]
   11534:	e3530000 	cmp	r3, #0
   11538:	1affff2b 	bne	111ec <_expand_aliases+0x4c>
   1153c:	e51b3018 	ldr	r3, [fp, #-24]	; 0xffffffe8
   11540:	e50b306c 	str	r3, [fp, #-108]	; 0xffffff94
   11544:	e51b306c 	ldr	r3, [fp, #-108]	; 0xffffff94
   11548:	e1a00003 	mov	r0, r3
   1154c:	e24bd010 	sub	sp, fp, #16
   11550:	e89d6810 	ldm	sp, {r4, fp, sp, lr}
   11554:	e12fff1e 	bx	lr
   11558:	000163bc 	.word	0x000163bc
   1155c:	000163d8 	.word	0x000163d8
   11560:	000163f0 	.word	0x000163f0

00011564 <expand_aliases>:
   11564:	e1a0c00d 	mov	ip, sp
   11568:	e92dd800 	push	{fp, ip, lr, pc}
   1156c:	e24cb004 	sub	fp, ip, #4
   11570:	e24dd010 	sub	sp, sp, #16
   11574:	e50b0018 	str	r0, [fp, #-24]	; 0xffffffe8
   11578:	e50b101c 	str	r1, [fp, #-28]	; 0xffffffe4
   1157c:	e3a03000 	mov	r3, #0
   11580:	e50b3010 	str	r3, [fp, #-16]
   11584:	e51b2010 	ldr	r2, [fp, #-16]
   11588:	e51b3010 	ldr	r3, [fp, #-16]
   1158c:	e2833001 	add	r3, r3, #1
   11590:	e50b3010 	str	r3, [fp, #-16]
   11594:	e51b0018 	ldr	r0, [fp, #-24]	; 0xffffffe8
   11598:	e51b101c 	ldr	r1, [fp, #-28]	; 0xffffffe4
   1159c:	ebfffeff 	bl	111a0 <_expand_aliases>
   115a0:	e1a03000 	mov	r3, r0
   115a4:	e3530000 	cmp	r3, #0
   115a8:	1afffff5 	bne	11584 <expand_aliases+0x20>
   115ac:	e24bd00c 	sub	sp, fp, #12
   115b0:	e89d6800 	ldm	sp, {fp, sp, lr}
   115b4:	e12fff1e 	bx	lr

000115b8 <__strcmp>:
   115b8:	e1a0c00d 	mov	ip, sp
   115bc:	e92dd810 	push	{r4, fp, ip, lr, pc}
   115c0:	e24cb004 	sub	fp, ip, #4
   115c4:	e24dd02c 	sub	sp, sp, #44	; 0x2c
   115c8:	e50b0030 	str	r0, [fp, #-48]	; 0xffffffd0
   115cc:	e50b1034 	str	r1, [fp, #-52]	; 0xffffffcc
   115d0:	e3a03000 	mov	r3, #0
   115d4:	e50b3028 	str	r3, [fp, #-40]	; 0xffffffd8
   115d8:	e51b3028 	ldr	r3, [fp, #-40]	; 0xffffffd8
   115dc:	e50b301c 	str	r3, [fp, #-28]	; 0xffffffe4
   115e0:	e51b301c 	ldr	r3, [fp, #-28]	; 0xffffffe4
   115e4:	e50b3018 	str	r3, [fp, #-24]	; 0xffffffe8
   115e8:	e51b3018 	ldr	r3, [fp, #-24]	; 0xffffffe8
   115ec:	e50b301c 	str	r3, [fp, #-28]	; 0xffffffe4
   115f0:	e51b2030 	ldr	r2, [fp, #-48]	; 0xffffffd0
   115f4:	e51b3034 	ldr	r3, [fp, #-52]	; 0xffffffcc
   115f8:	e1823003 	orr	r3, r2, r3
   115fc:	e2033003 	and	r3, r3, #3
   11600:	e3530000 	cmp	r3, #0
   11604:	0a00001a 	beq	11674 <__strcmp+0xbc>
   11608:	ea000005 	b	11624 <__strcmp+0x6c>
   1160c:	e51b3030 	ldr	r3, [fp, #-48]	; 0xffffffd0
   11610:	e2833001 	add	r3, r3, #1
   11614:	e50b3030 	str	r3, [fp, #-48]	; 0xffffffd0
   11618:	e51b3034 	ldr	r3, [fp, #-52]	; 0xffffffcc
   1161c:	e2833001 	add	r3, r3, #1
   11620:	e50b3034 	str	r3, [fp, #-52]	; 0xffffffcc
   11624:	e51b3030 	ldr	r3, [fp, #-48]	; 0xffffffd0
   11628:	e5d33000 	ldrb	r3, [r3]
   1162c:	e3530000 	cmp	r3, #0
   11630:	0a000005 	beq	1164c <__strcmp+0x94>
   11634:	e51b3030 	ldr	r3, [fp, #-48]	; 0xffffffd0
   11638:	e5d32000 	ldrb	r2, [r3]
   1163c:	e51b3034 	ldr	r3, [fp, #-52]	; 0xffffffcc
   11640:	e5d33000 	ldrb	r3, [r3]
   11644:	e1520003 	cmp	r2, r3
   11648:	0affffef 	beq	1160c <__strcmp+0x54>
   1164c:	e51b3030 	ldr	r3, [fp, #-48]	; 0xffffffd0
   11650:	e5d33000 	ldrb	r3, [r3]
   11654:	e1a02003 	mov	r2, r3
   11658:	e51b3034 	ldr	r3, [fp, #-52]	; 0xffffffcc
   1165c:	e5d33000 	ldrb	r3, [r3]
   11660:	e0633002 	rsb	r3, r3, r2
   11664:	e50b3028 	str	r3, [fp, #-40]	; 0xffffffd8
   11668:	e51b3028 	ldr	r3, [fp, #-40]	; 0xffffffd8
   1166c:	e50b3038 	str	r3, [fp, #-56]	; 0xffffffc8
   11670:	ea00003f 	b	11774 <__strcmp+0x1bc>
   11674:	e51b3030 	ldr	r3, [fp, #-48]	; 0xffffffd0
   11678:	e50b3024 	str	r3, [fp, #-36]	; 0xffffffdc
   1167c:	e51b3034 	ldr	r3, [fp, #-52]	; 0xffffffcc
   11680:	e50b3020 	str	r3, [fp, #-32]	; 0xffffffe0
   11684:	ea000016 	b	116e4 <__strcmp+0x12c>
   11688:	e51b3024 	ldr	r3, [fp, #-36]	; 0xffffffdc
   1168c:	e5932000 	ldr	r2, [r3]
   11690:	e59f30f0 	ldr	r3, [pc, #240]	; 11788 <__strcmp+0x1d0>
   11694:	e8930018 	ldm	r3, {r3, r4}
   11698:	e0632002 	rsb	r2, r3, r2
   1169c:	e51b3024 	ldr	r3, [fp, #-36]	; 0xffffffdc
   116a0:	e5933000 	ldr	r3, [r3]
   116a4:	e1e03003 	mvn	r3, r3
   116a8:	e0022003 	and	r2, r2, r3
   116ac:	e59f30d8 	ldr	r3, [pc, #216]	; 1178c <__strcmp+0x1d4>
   116b0:	e8930018 	ldm	r3, {r3, r4}
   116b4:	e0023003 	and	r3, r2, r3
   116b8:	e3530000 	cmp	r3, #0
   116bc:	0a000002 	beq	116cc <__strcmp+0x114>
   116c0:	e3a03000 	mov	r3, #0
   116c4:	e50b3038 	str	r3, [fp, #-56]	; 0xffffffc8
   116c8:	ea000029 	b	11774 <__strcmp+0x1bc>
   116cc:	e51b3024 	ldr	r3, [fp, #-36]	; 0xffffffdc
   116d0:	e2833004 	add	r3, r3, #4
   116d4:	e50b3024 	str	r3, [fp, #-36]	; 0xffffffdc
   116d8:	e51b3020 	ldr	r3, [fp, #-32]	; 0xffffffe0
   116dc:	e2833004 	add	r3, r3, #4
   116e0:	e50b3020 	str	r3, [fp, #-32]	; 0xffffffe0
   116e4:	e51b3024 	ldr	r3, [fp, #-36]	; 0xffffffdc
   116e8:	e5932000 	ldr	r2, [r3]
   116ec:	e51b3020 	ldr	r3, [fp, #-32]	; 0xffffffe0
   116f0:	e5933000 	ldr	r3, [r3]
   116f4:	e1520003 	cmp	r2, r3
   116f8:	0affffe2 	beq	11688 <__strcmp+0xd0>
   116fc:	e51b3024 	ldr	r3, [fp, #-36]	; 0xffffffdc
   11700:	e50b3030 	str	r3, [fp, #-48]	; 0xffffffd0
   11704:	e51b3020 	ldr	r3, [fp, #-32]	; 0xffffffe0
   11708:	e50b3034 	str	r3, [fp, #-52]	; 0xffffffcc
   1170c:	ea000005 	b	11728 <__strcmp+0x170>
   11710:	e51b3030 	ldr	r3, [fp, #-48]	; 0xffffffd0
   11714:	e2833001 	add	r3, r3, #1
   11718:	e50b3030 	str	r3, [fp, #-48]	; 0xffffffd0
   1171c:	e51b3034 	ldr	r3, [fp, #-52]	; 0xffffffcc
   11720:	e2833001 	add	r3, r3, #1
   11724:	e50b3034 	str	r3, [fp, #-52]	; 0xffffffcc
   11728:	e51b3030 	ldr	r3, [fp, #-48]	; 0xffffffd0
   1172c:	e5d33000 	ldrb	r3, [r3]
   11730:	e3530000 	cmp	r3, #0
   11734:	0a000005 	beq	11750 <__strcmp+0x198>
   11738:	e51b3030 	ldr	r3, [fp, #-48]	; 0xffffffd0
   1173c:	e5d32000 	ldrb	r2, [r3]
   11740:	e51b3034 	ldr	r3, [fp, #-52]	; 0xffffffcc
   11744:	e5d33000 	ldrb	r3, [r3]
   11748:	e1520003 	cmp	r2, r3
   1174c:	0affffef 	beq	11710 <__strcmp+0x158>
   11750:	e51b3030 	ldr	r3, [fp, #-48]	; 0xffffffd0
   11754:	e5d33000 	ldrb	r3, [r3]
   11758:	e1a02003 	mov	r2, r3
   1175c:	e51b3034 	ldr	r3, [fp, #-52]	; 0xffffffcc
   11760:	e5d33000 	ldrb	r3, [r3]
   11764:	e0633002 	rsb	r3, r3, r2
   11768:	e50b3028 	str	r3, [fp, #-40]	; 0xffffffd8
   1176c:	e51b3028 	ldr	r3, [fp, #-40]	; 0xffffffd8
   11770:	e50b3038 	str	r3, [fp, #-56]	; 0xffffffc8
   11774:	e51b3038 	ldr	r3, [fp, #-56]	; 0xffffffc8
   11778:	e1a00003 	mov	r0, r3
   1177c:	e24bd010 	sub	sp, fp, #16
   11780:	e89d6810 	ldm	sp, {r4, fp, sp, lr}
   11784:	e12fff1e 	bx	lr
   11788:	00016408 	.word	0x00016408
   1178c:	00016410 	.word	0x00016410

00011790 <__strcpy>:
   11790:	e1a0c00d 	mov	ip, sp
   11794:	e92dd810 	push	{r4, fp, ip, lr, pc}
   11798:	e24cb004 	sub	fp, ip, #4
   1179c:	e24dd024 	sub	sp, sp, #36	; 0x24
   117a0:	e50b0028 	str	r0, [fp, #-40]	; 0xffffffd8
   117a4:	e50b102c 	str	r1, [fp, #-44]	; 0xffffffd4
   117a8:	e51b3028 	ldr	r3, [fp, #-40]	; 0xffffffd8
   117ac:	e50b3024 	str	r3, [fp, #-36]	; 0xffffffdc
   117b0:	e51b302c 	ldr	r3, [fp, #-44]	; 0xffffffd4
   117b4:	e50b3020 	str	r3, [fp, #-32]	; 0xffffffe0
   117b8:	e51b2020 	ldr	r2, [fp, #-32]	; 0xffffffe0
   117bc:	e51b3024 	ldr	r3, [fp, #-36]	; 0xffffffdc
   117c0:	e1823003 	orr	r3, r2, r3
   117c4:	e2033003 	and	r3, r3, #3
   117c8:	e3530000 	cmp	r3, #0
   117cc:	0a000014 	beq	11824 <__strcpy+0x94>
   117d0:	e51b3020 	ldr	r3, [fp, #-32]	; 0xffffffe0
   117d4:	e5d33000 	ldrb	r3, [r3]
   117d8:	e51b2024 	ldr	r2, [fp, #-36]	; 0xffffffdc
   117dc:	e5c23000 	strb	r3, [r2]
   117e0:	e51b3024 	ldr	r3, [fp, #-36]	; 0xffffffdc
   117e4:	e5d33000 	ldrb	r3, [r3]
   117e8:	e3530000 	cmp	r3, #0
   117ec:	03a03000 	moveq	r3, #0
   117f0:	13a03001 	movne	r3, #1
   117f4:	e20320ff 	and	r2, r3, #255	; 0xff
   117f8:	e51b3024 	ldr	r3, [fp, #-36]	; 0xffffffdc
   117fc:	e2833001 	add	r3, r3, #1
   11800:	e50b3024 	str	r3, [fp, #-36]	; 0xffffffdc
   11804:	e51b3020 	ldr	r3, [fp, #-32]	; 0xffffffe0
   11808:	e2833001 	add	r3, r3, #1
   1180c:	e50b3020 	str	r3, [fp, #-32]	; 0xffffffe0
   11810:	e3520000 	cmp	r2, #0
   11814:	1affffed 	bne	117d0 <__strcpy+0x40>
   11818:	e51b3028 	ldr	r3, [fp, #-40]	; 0xffffffd8
   1181c:	e50b3030 	str	r3, [fp, #-48]	; 0xffffffd0
   11820:	ea000034 	b	118f8 <__strcpy+0x168>
   11824:	e51b3024 	ldr	r3, [fp, #-36]	; 0xffffffdc
   11828:	e50b301c 	str	r3, [fp, #-28]	; 0xffffffe4
   1182c:	e51b3020 	ldr	r3, [fp, #-32]	; 0xffffffe0
   11830:	e50b3018 	str	r3, [fp, #-24]	; 0xffffffe8
   11834:	ea000009 	b	11860 <__strcpy+0xd0>
   11838:	e51b3018 	ldr	r3, [fp, #-24]	; 0xffffffe8
   1183c:	e5932000 	ldr	r2, [r3]
   11840:	e51b301c 	ldr	r3, [fp, #-28]	; 0xffffffe4
   11844:	e5832000 	str	r2, [r3]
   11848:	e51b301c 	ldr	r3, [fp, #-28]	; 0xffffffe4
   1184c:	e2833004 	add	r3, r3, #4
   11850:	e50b301c 	str	r3, [fp, #-28]	; 0xffffffe4
   11854:	e51b3018 	ldr	r3, [fp, #-24]	; 0xffffffe8
   11858:	e2833004 	add	r3, r3, #4
   1185c:	e50b3018 	str	r3, [fp, #-24]	; 0xffffffe8
   11860:	e51b3018 	ldr	r3, [fp, #-24]	; 0xffffffe8
   11864:	e5932000 	ldr	r2, [r3]
   11868:	e59f309c 	ldr	r3, [pc, #156]	; 1190c <__strcpy+0x17c>
   1186c:	e8930018 	ldm	r3, {r3, r4}
   11870:	e0632002 	rsb	r2, r3, r2
   11874:	e51b3018 	ldr	r3, [fp, #-24]	; 0xffffffe8
   11878:	e5933000 	ldr	r3, [r3]
   1187c:	e1e03003 	mvn	r3, r3
   11880:	e0022003 	and	r2, r2, r3
   11884:	e59f3084 	ldr	r3, [pc, #132]	; 11910 <__strcpy+0x180>
   11888:	e8930018 	ldm	r3, {r3, r4}
   1188c:	e0023003 	and	r3, r2, r3
   11890:	e3530000 	cmp	r3, #0
   11894:	0affffe7 	beq	11838 <__strcpy+0xa8>
   11898:	e51b301c 	ldr	r3, [fp, #-28]	; 0xffffffe4
   1189c:	e50b3024 	str	r3, [fp, #-36]	; 0xffffffdc
   118a0:	e51b3018 	ldr	r3, [fp, #-24]	; 0xffffffe8
   118a4:	e50b3020 	str	r3, [fp, #-32]	; 0xffffffe0
   118a8:	e51b3020 	ldr	r3, [fp, #-32]	; 0xffffffe0
   118ac:	e5d33000 	ldrb	r3, [r3]
   118b0:	e51b2024 	ldr	r2, [fp, #-36]	; 0xffffffdc
   118b4:	e5c23000 	strb	r3, [r2]
   118b8:	e51b3024 	ldr	r3, [fp, #-36]	; 0xffffffdc
   118bc:	e5d33000 	ldrb	r3, [r3]
   118c0:	e3530000 	cmp	r3, #0
   118c4:	03a03000 	moveq	r3, #0
   118c8:	13a03001 	movne	r3, #1
   118cc:	e20320ff 	and	r2, r3, #255	; 0xff
   118d0:	e51b3024 	ldr	r3, [fp, #-36]	; 0xffffffdc
   118d4:	e2833001 	add	r3, r3, #1
   118d8:	e50b3024 	str	r3, [fp, #-36]	; 0xffffffdc
   118dc:	e51b3020 	ldr	r3, [fp, #-32]	; 0xffffffe0
   118e0:	e2833001 	add	r3, r3, #1
   118e4:	e50b3020 	str	r3, [fp, #-32]	; 0xffffffe0
   118e8:	e3520000 	cmp	r2, #0
   118ec:	1affffed 	bne	118a8 <__strcpy+0x118>
   118f0:	e51b3028 	ldr	r3, [fp, #-40]	; 0xffffffd8
   118f4:	e50b3030 	str	r3, [fp, #-48]	; 0xffffffd0
   118f8:	e51b3030 	ldr	r3, [fp, #-48]	; 0xffffffd0
   118fc:	e1a00003 	mov	r0, r3
   11900:	e24bd010 	sub	sp, fp, #16
   11904:	e89d6810 	ldm	sp, {r4, fp, sp, lr}
   11908:	e12fff1e 	bx	lr
   1190c:	00016408 	.word	0x00016408
   11910:	00016410 	.word	0x00016410

00011914 <__strlen>:
   11914:	e1a0c00d 	mov	ip, sp
   11918:	e92dd810 	push	{r4, fp, ip, lr, pc}
   1191c:	e24cb004 	sub	fp, ip, #4
   11920:	e24dd01c 	sub	sp, sp, #28
   11924:	e50b0028 	str	r0, [fp, #-40]	; 0xffffffd8
   11928:	e51b3028 	ldr	r3, [fp, #-40]	; 0xffffffd8
   1192c:	e50b301c 	str	r3, [fp, #-28]	; 0xffffffe4
   11930:	e51b3028 	ldr	r3, [fp, #-40]	; 0xffffffd8
   11934:	e2033003 	and	r3, r3, #3
   11938:	e3530000 	cmp	r3, #0
   1193c:	0a00000e 	beq	1197c <__strlen+0x68>
   11940:	ea000002 	b	11950 <__strlen+0x3c>
   11944:	e51b3028 	ldr	r3, [fp, #-40]	; 0xffffffd8
   11948:	e2833001 	add	r3, r3, #1
   1194c:	e50b3028 	str	r3, [fp, #-40]	; 0xffffffd8
   11950:	e51b3028 	ldr	r3, [fp, #-40]	; 0xffffffd8
   11954:	e5d33000 	ldrb	r3, [r3]
   11958:	e3530000 	cmp	r3, #0
   1195c:	1afffff8 	bne	11944 <__strlen+0x30>
   11960:	e51b3028 	ldr	r3, [fp, #-40]	; 0xffffffd8
   11964:	e51b201c 	ldr	r2, [fp, #-28]	; 0xffffffe4
   11968:	e0623003 	rsb	r3, r2, r3
   1196c:	e50b3020 	str	r3, [fp, #-32]	; 0xffffffe0
   11970:	e51b3020 	ldr	r3, [fp, #-32]	; 0xffffffe0
   11974:	e50b302c 	str	r3, [fp, #-44]	; 0xffffffd4
   11978:	ea000023 	b	11a0c <__strlen+0xf8>
   1197c:	e51b3028 	ldr	r3, [fp, #-40]	; 0xffffffd8
   11980:	e50b3018 	str	r3, [fp, #-24]	; 0xffffffe8
   11984:	ea000002 	b	11994 <__strlen+0x80>
   11988:	e51b3018 	ldr	r3, [fp, #-24]	; 0xffffffe8
   1198c:	e2833004 	add	r3, r3, #4
   11990:	e50b3018 	str	r3, [fp, #-24]	; 0xffffffe8
   11994:	e51b3018 	ldr	r3, [fp, #-24]	; 0xffffffe8
   11998:	e5932000 	ldr	r2, [r3]
   1199c:	e59f307c 	ldr	r3, [pc, #124]	; 11a20 <__strlen+0x10c>
   119a0:	e8930018 	ldm	r3, {r3, r4}
   119a4:	e0632002 	rsb	r2, r3, r2
   119a8:	e51b3018 	ldr	r3, [fp, #-24]	; 0xffffffe8
   119ac:	e5933000 	ldr	r3, [r3]
   119b0:	e1e03003 	mvn	r3, r3
   119b4:	e0022003 	and	r2, r2, r3
   119b8:	e59f3064 	ldr	r3, [pc, #100]	; 11a24 <__strlen+0x110>
   119bc:	e8930018 	ldm	r3, {r3, r4}
   119c0:	e0023003 	and	r3, r2, r3
   119c4:	e3530000 	cmp	r3, #0
   119c8:	0affffee 	beq	11988 <__strlen+0x74>
   119cc:	e51b3018 	ldr	r3, [fp, #-24]	; 0xffffffe8
   119d0:	e50b3028 	str	r3, [fp, #-40]	; 0xffffffd8
   119d4:	ea000002 	b	119e4 <__strlen+0xd0>
   119d8:	e51b3028 	ldr	r3, [fp, #-40]	; 0xffffffd8
   119dc:	e2833001 	add	r3, r3, #1
   119e0:	e50b3028 	str	r3, [fp, #-40]	; 0xffffffd8
   119e4:	e51b3028 	ldr	r3, [fp, #-40]	; 0xffffffd8
   119e8:	e5d33000 	ldrb	r3, [r3]
   119ec:	e3530000 	cmp	r3, #0
   119f0:	1afffff8 	bne	119d8 <__strlen+0xc4>
   119f4:	e51b3028 	ldr	r3, [fp, #-40]	; 0xffffffd8
   119f8:	e51b201c 	ldr	r2, [fp, #-28]	; 0xffffffe4
   119fc:	e0623003 	rsb	r3, r2, r3
   11a00:	e50b3020 	str	r3, [fp, #-32]	; 0xffffffe0
   11a04:	e51b3020 	ldr	r3, [fp, #-32]	; 0xffffffe0
   11a08:	e50b302c 	str	r3, [fp, #-44]	; 0xffffffd4
   11a0c:	e51b302c 	ldr	r3, [fp, #-44]	; 0xffffffd4
   11a10:	e1a00003 	mov	r0, r3
   11a14:	e24bd010 	sub	sp, fp, #16
   11a18:	e89d6810 	ldm	sp, {r4, fp, sp, lr}
   11a1c:	e12fff1e 	bx	lr
   11a20:	00016408 	.word	0x00016408
   11a24:	00016410 	.word	0x00016410

00011a28 <__strncmp>:
   11a28:	e1a0c00d 	mov	ip, sp
   11a2c:	e92dd810 	push	{r4, fp, ip, lr, pc}
   11a30:	e24cb004 	sub	fp, ip, #4
   11a34:	e24dd02c 	sub	sp, sp, #44	; 0x2c
   11a38:	e50b0028 	str	r0, [fp, #-40]	; 0xffffffd8
   11a3c:	e50b102c 	str	r1, [fp, #-44]	; 0xffffffd4
   11a40:	e50b2030 	str	r2, [fp, #-48]	; 0xffffffd0
   11a44:	e51b3030 	ldr	r3, [fp, #-48]	; 0xffffffd0
   11a48:	e3530000 	cmp	r3, #0
   11a4c:	1a000002 	bne	11a5c <__strncmp+0x34>
   11a50:	e3a03000 	mov	r3, #0
   11a54:	e50b303c 	str	r3, [fp, #-60]	; 0xffffffc4
   11a58:	ea00009d 	b	11cd4 <__strncmp+0x2ac>
   11a5c:	e51b2028 	ldr	r2, [fp, #-40]	; 0xffffffd8
   11a60:	e51b302c 	ldr	r3, [fp, #-44]	; 0xffffffd4
   11a64:	e1823003 	orr	r3, r2, r3
   11a68:	e2033003 	and	r3, r3, #3
   11a6c:	e3530000 	cmp	r3, #0
   11a70:	0a000034 	beq	11b48 <__strncmp+0x120>
   11a74:	ea00000f 	b	11ab8 <__strncmp+0x90>
   11a78:	e51b3030 	ldr	r3, [fp, #-48]	; 0xffffffd0
   11a7c:	e3530000 	cmp	r3, #0
   11a80:	0a000003 	beq	11a94 <__strncmp+0x6c>
   11a84:	e51b3028 	ldr	r3, [fp, #-40]	; 0xffffffd8
   11a88:	e5d33000 	ldrb	r3, [r3]
   11a8c:	e3530000 	cmp	r3, #0
   11a90:	1a000002 	bne	11aa0 <__strncmp+0x78>
   11a94:	e3a03000 	mov	r3, #0
   11a98:	e50b303c 	str	r3, [fp, #-60]	; 0xffffffc4
   11a9c:	ea00008c 	b	11cd4 <__strncmp+0x2ac>
   11aa0:	e51b3028 	ldr	r3, [fp, #-40]	; 0xffffffd8
   11aa4:	e2833001 	add	r3, r3, #1
   11aa8:	e50b3028 	str	r3, [fp, #-40]	; 0xffffffd8
   11aac:	e51b302c 	ldr	r3, [fp, #-44]	; 0xffffffd4
   11ab0:	e2833001 	add	r3, r3, #1
   11ab4:	e50b302c 	str	r3, [fp, #-44]	; 0xffffffd4
   11ab8:	e51b3030 	ldr	r3, [fp, #-48]	; 0xffffffd0
   11abc:	e3530000 	cmp	r3, #0
   11ac0:	03a03000 	moveq	r3, #0
   11ac4:	13a03001 	movne	r3, #1
   11ac8:	e20320ff 	and	r2, r3, #255	; 0xff
   11acc:	e51b3030 	ldr	r3, [fp, #-48]	; 0xffffffd0
   11ad0:	e2433001 	sub	r3, r3, #1
   11ad4:	e50b3030 	str	r3, [fp, #-48]	; 0xffffffd0
   11ad8:	e2223001 	eor	r3, r2, #1
   11adc:	e20330ff 	and	r3, r3, #255	; 0xff
   11ae0:	e3530000 	cmp	r3, #0
   11ae4:	1a000008 	bne	11b0c <__strncmp+0xe4>
   11ae8:	e51b3028 	ldr	r3, [fp, #-40]	; 0xffffffd8
   11aec:	e5d32000 	ldrb	r2, [r3]
   11af0:	e51b302c 	ldr	r3, [fp, #-44]	; 0xffffffd4
   11af4:	e5d33000 	ldrb	r3, [r3]
   11af8:	e1520003 	cmp	r2, r3
   11afc:	1a000002 	bne	11b0c <__strncmp+0xe4>
   11b00:	e3a03001 	mov	r3, #1
   11b04:	e50b3038 	str	r3, [fp, #-56]	; 0xffffffc8
   11b08:	ea000001 	b	11b14 <__strncmp+0xec>
   11b0c:	e3a03000 	mov	r3, #0
   11b10:	e50b3038 	str	r3, [fp, #-56]	; 0xffffffc8
   11b14:	e51b3038 	ldr	r3, [fp, #-56]	; 0xffffffc8
   11b18:	e3530000 	cmp	r3, #0
   11b1c:	1affffd5 	bne	11a78 <__strncmp+0x50>
   11b20:	e51b3028 	ldr	r3, [fp, #-40]	; 0xffffffd8
   11b24:	e5d33000 	ldrb	r3, [r3]
   11b28:	e1a02003 	mov	r2, r3
   11b2c:	e51b302c 	ldr	r3, [fp, #-44]	; 0xffffffd4
   11b30:	e5d33000 	ldrb	r3, [r3]
   11b34:	e0633002 	rsb	r3, r3, r2
   11b38:	e50b3020 	str	r3, [fp, #-32]	; 0xffffffe0
   11b3c:	e51b3020 	ldr	r3, [fp, #-32]	; 0xffffffe0
   11b40:	e50b303c 	str	r3, [fp, #-60]	; 0xffffffc4
   11b44:	ea000062 	b	11cd4 <__strncmp+0x2ac>
   11b48:	e51b3028 	ldr	r3, [fp, #-40]	; 0xffffffd8
   11b4c:	e50b301c 	str	r3, [fp, #-28]	; 0xffffffe4
   11b50:	e51b302c 	ldr	r3, [fp, #-44]	; 0xffffffd4
   11b54:	e50b3018 	str	r3, [fp, #-24]	; 0xffffffe8
   11b58:	ea00001c 	b	11bd0 <__strncmp+0x1a8>
   11b5c:	e51b3030 	ldr	r3, [fp, #-48]	; 0xffffffd0
   11b60:	e2433004 	sub	r3, r3, #4
   11b64:	e50b3030 	str	r3, [fp, #-48]	; 0xffffffd0
   11b68:	e51b3030 	ldr	r3, [fp, #-48]	; 0xffffffd0
   11b6c:	e3530000 	cmp	r3, #0
   11b70:	0a00000d 	beq	11bac <__strncmp+0x184>
   11b74:	e51b301c 	ldr	r3, [fp, #-28]	; 0xffffffe4
   11b78:	e5932000 	ldr	r2, [r3]
   11b7c:	e59f3164 	ldr	r3, [pc, #356]	; 11ce8 <__strncmp+0x2c0>
   11b80:	e8930018 	ldm	r3, {r3, r4}
   11b84:	e0632002 	rsb	r2, r3, r2
   11b88:	e51b301c 	ldr	r3, [fp, #-28]	; 0xffffffe4
   11b8c:	e5933000 	ldr	r3, [r3]
   11b90:	e1e03003 	mvn	r3, r3
   11b94:	e0022003 	and	r2, r2, r3
   11b98:	e59f314c 	ldr	r3, [pc, #332]	; 11cec <__strncmp+0x2c4>
   11b9c:	e8930018 	ldm	r3, {r3, r4}
   11ba0:	e0023003 	and	r3, r2, r3
   11ba4:	e3530000 	cmp	r3, #0
   11ba8:	0a000002 	beq	11bb8 <__strncmp+0x190>
   11bac:	e3a03000 	mov	r3, #0
   11bb0:	e50b303c 	str	r3, [fp, #-60]	; 0xffffffc4
   11bb4:	ea000046 	b	11cd4 <__strncmp+0x2ac>
   11bb8:	e51b301c 	ldr	r3, [fp, #-28]	; 0xffffffe4
   11bbc:	e2833004 	add	r3, r3, #4
   11bc0:	e50b301c 	str	r3, [fp, #-28]	; 0xffffffe4
   11bc4:	e51b3018 	ldr	r3, [fp, #-24]	; 0xffffffe8
   11bc8:	e2833004 	add	r3, r3, #4
   11bcc:	e50b3018 	str	r3, [fp, #-24]	; 0xffffffe8
   11bd0:	e51b3030 	ldr	r3, [fp, #-48]	; 0xffffffd0
   11bd4:	e3530003 	cmp	r3, #3
   11bd8:	9a000005 	bls	11bf4 <__strncmp+0x1cc>
   11bdc:	e51b301c 	ldr	r3, [fp, #-28]	; 0xffffffe4
   11be0:	e5932000 	ldr	r2, [r3]
   11be4:	e51b3018 	ldr	r3, [fp, #-24]	; 0xffffffe8
   11be8:	e5933000 	ldr	r3, [r3]
   11bec:	e1520003 	cmp	r2, r3
   11bf0:	0affffd9 	beq	11b5c <__strncmp+0x134>
   11bf4:	e51b301c 	ldr	r3, [fp, #-28]	; 0xffffffe4
   11bf8:	e50b3028 	str	r3, [fp, #-40]	; 0xffffffd8
   11bfc:	e51b3018 	ldr	r3, [fp, #-24]	; 0xffffffe8
   11c00:	e50b302c 	str	r3, [fp, #-44]	; 0xffffffd4
   11c04:	ea00000f 	b	11c48 <__strncmp+0x220>
   11c08:	e51b3030 	ldr	r3, [fp, #-48]	; 0xffffffd0
   11c0c:	e3530000 	cmp	r3, #0
   11c10:	0a000003 	beq	11c24 <__strncmp+0x1fc>
   11c14:	e51b3028 	ldr	r3, [fp, #-40]	; 0xffffffd8
   11c18:	e5d33000 	ldrb	r3, [r3]
   11c1c:	e3530000 	cmp	r3, #0
   11c20:	1a000002 	bne	11c30 <__strncmp+0x208>
   11c24:	e3a03000 	mov	r3, #0
   11c28:	e50b303c 	str	r3, [fp, #-60]	; 0xffffffc4
   11c2c:	ea000028 	b	11cd4 <__strncmp+0x2ac>
   11c30:	e51b3028 	ldr	r3, [fp, #-40]	; 0xffffffd8
   11c34:	e2833001 	add	r3, r3, #1
   11c38:	e50b3028 	str	r3, [fp, #-40]	; 0xffffffd8
   11c3c:	e51b302c 	ldr	r3, [fp, #-44]	; 0xffffffd4
   11c40:	e2833001 	add	r3, r3, #1
   11c44:	e50b302c 	str	r3, [fp, #-44]	; 0xffffffd4
   11c48:	e51b3030 	ldr	r3, [fp, #-48]	; 0xffffffd0
   11c4c:	e3530000 	cmp	r3, #0
   11c50:	03a03000 	moveq	r3, #0
   11c54:	13a03001 	movne	r3, #1
   11c58:	e20320ff 	and	r2, r3, #255	; 0xff
   11c5c:	e51b3030 	ldr	r3, [fp, #-48]	; 0xffffffd0
   11c60:	e2433001 	sub	r3, r3, #1
   11c64:	e50b3030 	str	r3, [fp, #-48]	; 0xffffffd0
   11c68:	e2223001 	eor	r3, r2, #1
   11c6c:	e20330ff 	and	r3, r3, #255	; 0xff
   11c70:	e3530000 	cmp	r3, #0
   11c74:	1a000008 	bne	11c9c <__strncmp+0x274>
   11c78:	e51b3028 	ldr	r3, [fp, #-40]	; 0xffffffd8
   11c7c:	e5d32000 	ldrb	r2, [r3]
   11c80:	e51b302c 	ldr	r3, [fp, #-44]	; 0xffffffd4
   11c84:	e5d33000 	ldrb	r3, [r3]
   11c88:	e1520003 	cmp	r2, r3
   11c8c:	1a000002 	bne	11c9c <__strncmp+0x274>
   11c90:	e3a03001 	mov	r3, #1
   11c94:	e50b3034 	str	r3, [fp, #-52]	; 0xffffffcc
   11c98:	ea000001 	b	11ca4 <__strncmp+0x27c>
   11c9c:	e3a03000 	mov	r3, #0
   11ca0:	e50b3034 	str	r3, [fp, #-52]	; 0xffffffcc
   11ca4:	e51b3034 	ldr	r3, [fp, #-52]	; 0xffffffcc
   11ca8:	e3530000 	cmp	r3, #0
   11cac:	1affffd5 	bne	11c08 <__strncmp+0x1e0>
   11cb0:	e51b3028 	ldr	r3, [fp, #-40]	; 0xffffffd8
   11cb4:	e5d33000 	ldrb	r3, [r3]
   11cb8:	e1a02003 	mov	r2, r3
   11cbc:	e51b302c 	ldr	r3, [fp, #-44]	; 0xffffffd4
   11cc0:	e5d33000 	ldrb	r3, [r3]
   11cc4:	e0633002 	rsb	r3, r3, r2
   11cc8:	e50b3020 	str	r3, [fp, #-32]	; 0xffffffe0
   11ccc:	e51b3020 	ldr	r3, [fp, #-32]	; 0xffffffe0
   11cd0:	e50b303c 	str	r3, [fp, #-60]	; 0xffffffc4
   11cd4:	e51b303c 	ldr	r3, [fp, #-60]	; 0xffffffc4
   11cd8:	e1a00003 	mov	r0, r3
   11cdc:	e24bd010 	sub	sp, fp, #16
   11ce0:	e89d6810 	ldm	sp, {r4, fp, sp, lr}
   11ce4:	e12fff1e 	bx	lr
   11ce8:	00016408 	.word	0x00016408
   11cec:	00016410 	.word	0x00016410

00011cf0 <cyg_posix_crc32>:
   11cf0:	e1a0c00d 	mov	ip, sp
   11cf4:	e92dd800 	push	{fp, ip, lr, pc}
   11cf8:	e24cb004 	sub	fp, ip, #4
   11cfc:	e24dd018 	sub	sp, sp, #24
   11d00:	e50b0020 	str	r0, [fp, #-32]	; 0xffffffe0
   11d04:	e50b1024 	str	r1, [fp, #-36]	; 0xffffffdc
   11d08:	e3a03000 	mov	r3, #0
   11d0c:	e50b3014 	str	r3, [fp, #-20]	; 0xffffffec
   11d10:	e3a03000 	mov	r3, #0
   11d14:	e50b3018 	str	r3, [fp, #-24]	; 0xffffffe8
   11d18:	ea000011 	b	11d64 <cyg_posix_crc32+0x74>
   11d1c:	e51b3014 	ldr	r3, [fp, #-20]	; 0xffffffec
   11d20:	e1a01403 	lsl	r1, r3, #8
   11d24:	e51b3014 	ldr	r3, [fp, #-20]	; 0xffffffec
   11d28:	e1a02c23 	lsr	r2, r3, #24
   11d2c:	e51b3020 	ldr	r3, [fp, #-32]	; 0xffffffe0
   11d30:	e5d33000 	ldrb	r3, [r3]
   11d34:	e0223003 	eor	r3, r2, r3
   11d38:	e20320ff 	and	r2, r3, #255	; 0xff
   11d3c:	e59f30a0 	ldr	r3, [pc, #160]	; 11de4 <cyg_posix_crc32+0xf4>
   11d40:	e7933102 	ldr	r3, [r3, r2, lsl #2]
   11d44:	e0213003 	eor	r3, r1, r3
   11d48:	e50b3014 	str	r3, [fp, #-20]	; 0xffffffec
   11d4c:	e51b3020 	ldr	r3, [fp, #-32]	; 0xffffffe0
   11d50:	e2833001 	add	r3, r3, #1
   11d54:	e50b3020 	str	r3, [fp, #-32]	; 0xffffffe0
   11d58:	e51b3018 	ldr	r3, [fp, #-24]	; 0xffffffe8
   11d5c:	e2833001 	add	r3, r3, #1
   11d60:	e50b3018 	str	r3, [fp, #-24]	; 0xffffffe8
   11d64:	e51b2018 	ldr	r2, [fp, #-24]	; 0xffffffe8
   11d68:	e51b3024 	ldr	r3, [fp, #-36]	; 0xffffffdc
   11d6c:	e1520003 	cmp	r2, r3
   11d70:	baffffe9 	blt	11d1c <cyg_posix_crc32+0x2c>
   11d74:	e51b3024 	ldr	r3, [fp, #-36]	; 0xffffffdc
   11d78:	e50b3010 	str	r3, [fp, #-16]
   11d7c:	ea00000d 	b	11db8 <cyg_posix_crc32+0xc8>
   11d80:	e51b3014 	ldr	r3, [fp, #-20]	; 0xffffffec
   11d84:	e1a01403 	lsl	r1, r3, #8
   11d88:	e51b3014 	ldr	r3, [fp, #-20]	; 0xffffffec
   11d8c:	e1a02c23 	lsr	r2, r3, #24
   11d90:	e51b3010 	ldr	r3, [fp, #-16]
   11d94:	e0223003 	eor	r3, r2, r3
   11d98:	e20320ff 	and	r2, r3, #255	; 0xff
   11d9c:	e59f3040 	ldr	r3, [pc, #64]	; 11de4 <cyg_posix_crc32+0xf4>
   11da0:	e7933102 	ldr	r3, [r3, r2, lsl #2]
   11da4:	e0213003 	eor	r3, r1, r3
   11da8:	e50b3014 	str	r3, [fp, #-20]	; 0xffffffec
   11dac:	e51b3010 	ldr	r3, [fp, #-16]
   11db0:	e1a03423 	lsr	r3, r3, #8
   11db4:	e50b3010 	str	r3, [fp, #-16]
   11db8:	e51b3010 	ldr	r3, [fp, #-16]
   11dbc:	e3530000 	cmp	r3, #0
   11dc0:	1affffee 	bne	11d80 <cyg_posix_crc32+0x90>
   11dc4:	e51b3014 	ldr	r3, [fp, #-20]	; 0xffffffec
   11dc8:	e1e03003 	mvn	r3, r3
   11dcc:	e50b3014 	str	r3, [fp, #-20]	; 0xffffffec
   11dd0:	e51b3014 	ldr	r3, [fp, #-20]	; 0xffffffec
   11dd4:	e1a00003 	mov	r0, r3
   11dd8:	e24bd00c 	sub	sp, fp, #12
   11ddc:	e89d6800 	ldm	sp, {fp, sp, lr}
   11de0:	e12fff1e 	bx	lr
   11de4:	00016418 	.word	0x00016418

00011de8 <cyg_crc16>:
   11de8:	e1a0c00d 	mov	ip, sp
   11dec:	e92dd800 	push	{fp, ip, lr, pc}
   11df0:	e24cb004 	sub	fp, ip, #4
   11df4:	e24dd010 	sub	sp, sp, #16
   11df8:	e50b0018 	str	r0, [fp, #-24]	; 0xffffffe8
   11dfc:	e50b101c 	str	r1, [fp, #-28]	; 0xffffffe4
   11e00:	e3a03000 	mov	r3, #0
   11e04:	e14b30be 	strh	r3, [fp, #-14]
   11e08:	e3a03000 	mov	r3, #0
   11e0c:	e50b3014 	str	r3, [fp, #-20]	; 0xffffffec
   11e10:	ea00001b 	b	11e84 <cyg_crc16+0x9c>
   11e14:	e15b30be 	ldrh	r3, [fp, #-14]
   11e18:	e1a03423 	lsr	r3, r3, #8
   11e1c:	e1a03803 	lsl	r3, r3, #16
   11e20:	e1a03823 	lsr	r3, r3, #16
   11e24:	e1a02003 	mov	r2, r3
   11e28:	e51b3018 	ldr	r3, [fp, #-24]	; 0xffffffe8
   11e2c:	e5d33000 	ldrb	r3, [r3]
   11e30:	e0223003 	eor	r3, r2, r3
   11e34:	e20330ff 	and	r3, r3, #255	; 0xff
   11e38:	e59f2068 	ldr	r2, [pc, #104]	; 11ea8 <cyg_crc16+0xc0>
   11e3c:	e1a03083 	lsl	r3, r3, #1
   11e40:	e0823003 	add	r3, r2, r3
   11e44:	e1d330b0 	ldrh	r3, [r3]
   11e48:	e1a02003 	mov	r2, r3
   11e4c:	e15b30be 	ldrh	r3, [fp, #-14]
   11e50:	e1a03403 	lsl	r3, r3, #8
   11e54:	e1a03803 	lsl	r3, r3, #16
   11e58:	e1a03823 	lsr	r3, r3, #16
   11e5c:	e0223003 	eor	r3, r2, r3
   11e60:	e1a03803 	lsl	r3, r3, #16
   11e64:	e1a03823 	lsr	r3, r3, #16
   11e68:	e14b30be 	strh	r3, [fp, #-14]
   11e6c:	e51b3018 	ldr	r3, [fp, #-24]	; 0xffffffe8
   11e70:	e2833001 	add	r3, r3, #1
   11e74:	e50b3018 	str	r3, [fp, #-24]	; 0xffffffe8
   11e78:	e51b3014 	ldr	r3, [fp, #-20]	; 0xffffffec
   11e7c:	e2833001 	add	r3, r3, #1
   11e80:	e50b3014 	str	r3, [fp, #-20]	; 0xffffffec
   11e84:	e51b2014 	ldr	r2, [fp, #-20]	; 0xffffffec
   11e88:	e51b301c 	ldr	r3, [fp, #-28]	; 0xffffffe4
   11e8c:	e1520003 	cmp	r2, r3
   11e90:	baffffdf 	blt	11e14 <cyg_crc16+0x2c>
   11e94:	e15b30be 	ldrh	r3, [fp, #-14]
   11e98:	e1a00003 	mov	r0, r3
   11e9c:	e24bd00c 	sub	sp, fp, #12
   11ea0:	e89d6800 	ldm	sp, {fp, sp, lr}
   11ea4:	e12fff1e 	bx	lr
   11ea8:	00016818 	.word	0x00016818

00011eac <hal_thread_switch_context>:
   11eac:	e1a0c00d 	mov	ip, sp
   11eb0:	e24dd014 	sub	sp, sp, #20
   11eb4:	e92d5000 	push	{ip, lr}
   11eb8:	e92d1fff 	push	{r0, r1, r2, r3, r4, r5, r6, r7, r8, r9, sl, fp, ip}
   11ebc:	e10f2000 	mrs	r2, CPSR
   11ec0:	e58d2040 	str	r2, [sp, #64]	; 0x40
   11ec4:	e581d000 	str	sp, [r1]

00011ec8 <hal_thread_load_context>:
   11ec8:	e590b000 	ldr	fp, [r0]
   11ecc:	e10f0000 	mrs	r0, CPSR
   11ed0:	e38000c0 	orr	r0, r0, #192	; 0xc0
   11ed4:	e129f000 	msr	CPSR_fc, r0
   11ed8:	e59b0040 	ldr	r0, [fp, #64]	; 0x40
   11edc:	e169f000 	msr	SPSR_fc, r0
   11ee0:	e89b7fff 	ldm	fp, {r0, r1, r2, r3, r4, r5, r6, r7, r8, r9, sl, fp, ip, sp, lr}
   11ee4:	e1b0f00e 	movs	pc, lr

00011ee8 <hal_setjmp>:
   11ee8:	e8807ff0 	stm	r0, {r4, r5, r6, r7, r8, r9, sl, fp, ip, sp, lr}
   11eec:	e3a00000 	mov	r0, #0
   11ef0:	e1a0f00e 	mov	pc, lr

00011ef4 <hal_longjmp>:
   11ef4:	e8907ff0 	ldm	r0, {r4, r5, r6, r7, r8, r9, sl, fp, ip, sp, lr}
   11ef8:	e1a00001 	mov	r0, r1
   11efc:	e1a0f00e 	mov	pc, lr

00011f00 <__computeSignal>:
   11f00:	e1a0c00d 	mov	ip, sp
   11f04:	e92dd800 	push	{fp, ip, lr, pc}
   11f08:	e24cb004 	sub	fp, ip, #4
   11f0c:	e24dd008 	sub	sp, sp, #8
   11f10:	e50b0010 	str	r0, [fp, #-16]
   11f14:	e51b3010 	ldr	r3, [fp, #-16]
   11f18:	e2433003 	sub	r3, r3, #3
   11f1c:	e3530004 	cmp	r3, #4
   11f20:	979ff103 	ldrls	pc, [pc, r3, lsl #2]
   11f24:	ea00000a 	b	11f54 <__computeSignal+0x54>
   11f28:	00011f3c 	.word	0x00011f3c
   11f2c:	00011f3c 	.word	0x00011f3c
   11f30:	00011f3c 	.word	0x00011f3c
   11f34:	00011f48 	.word	0x00011f48
   11f38:	00011f48 	.word	0x00011f48
   11f3c:	e3a0300a 	mov	r3, #10
   11f40:	e50b3014 	str	r3, [fp, #-20]	; 0xffffffec
   11f44:	ea000004 	b	11f5c <__computeSignal+0x5c>
   11f48:	e3a03002 	mov	r3, #2
   11f4c:	e50b3014 	str	r3, [fp, #-20]	; 0xffffffec
   11f50:	ea000001 	b	11f5c <__computeSignal+0x5c>
   11f54:	e3a03005 	mov	r3, #5
   11f58:	e50b3014 	str	r3, [fp, #-20]	; 0xffffffec
   11f5c:	e51b3014 	ldr	r3, [fp, #-20]	; 0xffffffec
   11f60:	e1a00003 	mov	r0, r3
   11f64:	e24bd00c 	sub	sp, fp, #12
   11f68:	e89d6800 	ldm	sp, {fp, sp, lr}
   11f6c:	e12fff1e 	bx	lr

00011f70 <__get_trap_number>:
   11f70:	e1a0c00d 	mov	ip, sp
   11f74:	e92dd800 	push	{fp, ip, lr, pc}
   11f78:	e24cb004 	sub	fp, ip, #4
   11f7c:	e59f3014 	ldr	r3, [pc, #20]	; 11f98 <__get_trap_number+0x28>
   11f80:	e5933000 	ldr	r3, [r3]
   11f84:	e5933044 	ldr	r3, [r3, #68]	; 0x44
   11f88:	e1a00003 	mov	r0, r3
   11f8c:	e24bd00c 	sub	sp, fp, #12
   11f90:	e89d6800 	ldm	sp, {fp, sp, lr}
   11f94:	e12fff1e 	bx	lr
   11f98:	8100561c 	.word	0x8100561c

00011f9c <set_pc>:
   11f9c:	e1a0c00d 	mov	ip, sp
   11fa0:	e92dd800 	push	{fp, ip, lr, pc}
   11fa4:	e24cb004 	sub	fp, ip, #4
   11fa8:	e24dd008 	sub	sp, sp, #8
   11fac:	e50b0010 	str	r0, [fp, #-16]
   11fb0:	e3a0000f 	mov	r0, #15
   11fb4:	e51b1010 	ldr	r1, [fp, #-16]
   11fb8:	eb000058 	bl	12120 <put_register>
   11fbc:	e24bd00c 	sub	sp, fp, #12
   11fc0:	e89d6800 	ldm	sp, {fp, sp, lr}
   11fc4:	e12fff1e 	bx	lr

00011fc8 <reg_offset>:
   11fc8:	e1a0c00d 	mov	ip, sp
   11fcc:	e92dd800 	push	{fp, ip, lr, pc}
   11fd0:	e24cb004 	sub	fp, ip, #4
   11fd4:	e24dd010 	sub	sp, sp, #16
   11fd8:	e1a03000 	mov	r3, r0
   11fdc:	e54b3015 	strb	r3, [fp, #-21]	; 0xffffffeb
   11fe0:	e55b3015 	ldrb	r3, [fp, #-21]	; 0xffffffeb
   11fe4:	e353000f 	cmp	r3, #15
   11fe8:	8a000003 	bhi	11ffc <reg_offset+0x34>
   11fec:	e55b3015 	ldrb	r3, [fp, #-21]	; 0xffffffeb
   11ff0:	e1a03103 	lsl	r3, r3, #2
   11ff4:	e50b301c 	str	r3, [fp, #-28]	; 0xffffffe4
   11ff8:	ea00001c 	b	12070 <reg_offset+0xa8>
   11ffc:	e3a03040 	mov	r3, #64	; 0x40
   12000:	e50b3010 	str	r3, [fp, #-16]
   12004:	e55b3015 	ldrb	r3, [fp, #-21]	; 0xffffffeb
   12008:	e3530017 	cmp	r3, #23
   1200c:	8a000008 	bhi	12034 <reg_offset+0x6c>
   12010:	e55b3015 	ldrb	r3, [fp, #-21]	; 0xffffffeb
   12014:	e1a02103 	lsl	r2, r3, #2
   12018:	e1a03102 	lsl	r3, r2, #2
   1201c:	e0623003 	rsb	r3, r2, r3
   12020:	e24320c0 	sub	r2, r3, #192	; 0xc0
   12024:	e51b3010 	ldr	r3, [fp, #-16]
   12028:	e0823003 	add	r3, r2, r3
   1202c:	e50b301c 	str	r3, [fp, #-28]	; 0xffffffe4
   12030:	ea00000e 	b	12070 <reg_offset+0xa8>
   12034:	e51b3010 	ldr	r3, [fp, #-16]
   12038:	e2833060 	add	r3, r3, #96	; 0x60
   1203c:	e50b3010 	str	r3, [fp, #-16]
   12040:	e55b3015 	ldrb	r3, [fp, #-21]	; 0xffffffeb
   12044:	e3530019 	cmp	r3, #25
   12048:	8a000006 	bhi	12068 <reg_offset+0xa0>
   1204c:	e55b3015 	ldrb	r3, [fp, #-21]	; 0xffffffeb
   12050:	e2433018 	sub	r3, r3, #24
   12054:	e1a02103 	lsl	r2, r3, #2
   12058:	e51b3010 	ldr	r3, [fp, #-16]
   1205c:	e0823003 	add	r3, r2, r3
   12060:	e50b301c 	str	r3, [fp, #-28]	; 0xffffffe4
   12064:	ea000001 	b	12070 <reg_offset+0xa8>
   12068:	e3e03000 	mvn	r3, #0
   1206c:	e50b301c 	str	r3, [fp, #-28]	; 0xffffffe4
   12070:	e51b301c 	ldr	r3, [fp, #-28]	; 0xffffffe4
   12074:	e1a00003 	mov	r0, r3
   12078:	e24bd00c 	sub	sp, fp, #12
   1207c:	e89d6800 	ldm	sp, {fp, sp, lr}
   12080:	e12fff1e 	bx	lr

00012084 <get_register>:
   12084:	e1a0c00d 	mov	ip, sp
   12088:	e92dd800 	push	{fp, ip, lr, pc}
   1208c:	e24cb004 	sub	fp, ip, #4
   12090:	e24dd010 	sub	sp, sp, #16
   12094:	e1a03000 	mov	r3, r0
   12098:	e54b3015 	strb	r3, [fp, #-21]	; 0xffffffeb
   1209c:	e55b3015 	ldrb	r3, [fp, #-21]	; 0xffffffeb
   120a0:	e1a00003 	mov	r0, r3
   120a4:	ebffffc7 	bl	11fc8 <reg_offset>
   120a8:	e1a03000 	mov	r3, r0
   120ac:	e50b3010 	str	r3, [fp, #-16]
   120b0:	e55b3015 	ldrb	r3, [fp, #-21]	; 0xffffffeb
   120b4:	e353000f 	cmp	r3, #15
   120b8:	9a000002 	bls	120c8 <get_register+0x44>
   120bc:	e55b3015 	ldrb	r3, [fp, #-21]	; 0xffffffeb
   120c0:	e3530017 	cmp	r3, #23
   120c4:	9a000002 	bls	120d4 <get_register+0x50>
   120c8:	e51b3010 	ldr	r3, [fp, #-16]
   120cc:	e3730001 	cmn	r3, #1
   120d0:	1a000002 	bne	120e0 <get_register+0x5c>
   120d4:	e3e03000 	mvn	r3, #0
   120d8:	e50b301c 	str	r3, [fp, #-28]	; 0xffffffe4
   120dc:	ea000009 	b	12108 <get_register+0x84>
   120e0:	e59f3034 	ldr	r3, [pc, #52]	; 1211c <get_register+0x98>
   120e4:	e5932000 	ldr	r2, [r3]
   120e8:	e51b3010 	ldr	r3, [fp, #-16]
   120ec:	e1a03123 	lsr	r3, r3, #2
   120f0:	e1a03103 	lsl	r3, r3, #2
   120f4:	e0823003 	add	r3, r2, r3
   120f8:	e5933000 	ldr	r3, [r3]
   120fc:	e50b3014 	str	r3, [fp, #-20]	; 0xffffffec
   12100:	e51b3014 	ldr	r3, [fp, #-20]	; 0xffffffec
   12104:	e50b301c 	str	r3, [fp, #-28]	; 0xffffffe4
   12108:	e51b301c 	ldr	r3, [fp, #-28]	; 0xffffffe4
   1210c:	e1a00003 	mov	r0, r3
   12110:	e24bd00c 	sub	sp, fp, #12
   12114:	e89d6800 	ldm	sp, {fp, sp, lr}
   12118:	e12fff1e 	bx	lr
   1211c:	810002c4 	.word	0x810002c4

00012120 <put_register>:
   12120:	e1a0c00d 	mov	ip, sp
   12124:	e92dd800 	push	{fp, ip, lr, pc}
   12128:	e24cb004 	sub	fp, ip, #4
   1212c:	e24dd010 	sub	sp, sp, #16
   12130:	e1a03000 	mov	r3, r0
   12134:	e50b101c 	str	r1, [fp, #-28]	; 0xffffffe4
   12138:	e54b3015 	strb	r3, [fp, #-21]	; 0xffffffeb
   1213c:	e55b3015 	ldrb	r3, [fp, #-21]	; 0xffffffeb
   12140:	e1a00003 	mov	r0, r3
   12144:	ebffff9f 	bl	11fc8 <reg_offset>
   12148:	e1a03000 	mov	r3, r0
   1214c:	e50b3010 	str	r3, [fp, #-16]
   12150:	e55b3015 	ldrb	r3, [fp, #-21]	; 0xffffffeb
   12154:	e353000f 	cmp	r3, #15
   12158:	9a000002 	bls	12168 <put_register+0x48>
   1215c:	e55b3015 	ldrb	r3, [fp, #-21]	; 0xffffffeb
   12160:	e3530017 	cmp	r3, #23
   12164:	9a00000a 	bls	12194 <put_register+0x74>
   12168:	e51b3010 	ldr	r3, [fp, #-16]
   1216c:	e3730001 	cmn	r3, #1
   12170:	0a000007 	beq	12194 <put_register+0x74>
   12174:	e59f3024 	ldr	r3, [pc, #36]	; 121a0 <put_register+0x80>
   12178:	e5932000 	ldr	r2, [r3]
   1217c:	e51b3010 	ldr	r3, [fp, #-16]
   12180:	e1a03123 	lsr	r3, r3, #2
   12184:	e1a03103 	lsl	r3, r3, #2
   12188:	e0822003 	add	r2, r2, r3
   1218c:	e51b301c 	ldr	r3, [fp, #-28]	; 0xffffffe4
   12190:	e5823000 	str	r3, [r2]
   12194:	e24bd00c 	sub	sp, fp, #12
   12198:	e89d6800 	ldm	sp, {fp, sp, lr}
   1219c:	e12fff1e 	bx	lr
   121a0:	810002c4 	.word	0x810002c4

000121a4 <get_register_as_bytes>:
   121a4:	e1a0c00d 	mov	ip, sp
   121a8:	e92dd800 	push	{fp, ip, lr, pc}
   121ac:	e24cb004 	sub	fp, ip, #4
   121b0:	e24dd020 	sub	sp, sp, #32
   121b4:	e1a03000 	mov	r3, r0
   121b8:	e50b101c 	str	r1, [fp, #-28]	; 0xffffffe4
   121bc:	e54b3015 	strb	r3, [fp, #-21]	; 0xffffffeb
   121c0:	e55b3015 	ldrb	r3, [fp, #-21]	; 0xffffffeb
   121c4:	e1a00003 	mov	r0, r3
   121c8:	ebffff7e 	bl	11fc8 <reg_offset>
   121cc:	e1a03000 	mov	r3, r0
   121d0:	e50b3010 	str	r3, [fp, #-16]
   121d4:	e51b3010 	ldr	r3, [fp, #-16]
   121d8:	e3730001 	cmn	r3, #1
   121dc:	0a000016 	beq	1223c <get_register_as_bytes+0x98>
   121e0:	e59f3070 	ldr	r3, [pc, #112]	; 12258 <get_register_as_bytes+0xb4>
   121e4:	e5932000 	ldr	r2, [r3]
   121e8:	e51b3010 	ldr	r3, [fp, #-16]
   121ec:	e0822003 	add	r2, r2, r3
   121f0:	e50b2028 	str	r2, [fp, #-40]	; 0xffffffd8
   121f4:	e55b3015 	ldrb	r3, [fp, #-21]	; 0xffffffeb
   121f8:	e353000f 	cmp	r3, #15
   121fc:	9a000002 	bls	1220c <get_register_as_bytes+0x68>
   12200:	e55b3015 	ldrb	r3, [fp, #-21]	; 0xffffffeb
   12204:	e3530017 	cmp	r3, #23
   12208:	9a000002 	bls	12218 <get_register_as_bytes+0x74>
   1220c:	e3a03004 	mov	r3, #4
   12210:	e50b3024 	str	r3, [fp, #-36]	; 0xffffffdc
   12214:	ea000001 	b	12220 <get_register_as_bytes+0x7c>
   12218:	e3a0300c 	mov	r3, #12
   1221c:	e50b3024 	str	r3, [fp, #-36]	; 0xffffffdc
   12220:	e51b001c 	ldr	r0, [fp, #-28]	; 0xffffffe4
   12224:	e51b1028 	ldr	r1, [fp, #-40]	; 0xffffffd8
   12228:	e51b2024 	ldr	r2, [fp, #-36]	; 0xffffffdc
   1222c:	ebffebce 	bl	d16c <_memcpy>
   12230:	e3a03001 	mov	r3, #1
   12234:	e50b3020 	str	r3, [fp, #-32]	; 0xffffffe0
   12238:	ea000001 	b	12244 <get_register_as_bytes+0xa0>
   1223c:	e3a03000 	mov	r3, #0
   12240:	e50b3020 	str	r3, [fp, #-32]	; 0xffffffe0
   12244:	e51b3020 	ldr	r3, [fp, #-32]	; 0xffffffe0
   12248:	e1a00003 	mov	r0, r3
   1224c:	e24bd00c 	sub	sp, fp, #12
   12250:	e89d6800 	ldm	sp, {fp, sp, lr}
   12254:	e12fff1e 	bx	lr
   12258:	810002c4 	.word	0x810002c4

0001225c <put_register_as_bytes>:
   1225c:	e1a0c00d 	mov	ip, sp
   12260:	e92dd800 	push	{fp, ip, lr, pc}
   12264:	e24cb004 	sub	fp, ip, #4
   12268:	e24dd020 	sub	sp, sp, #32
   1226c:	e1a03000 	mov	r3, r0
   12270:	e50b101c 	str	r1, [fp, #-28]	; 0xffffffe4
   12274:	e54b3015 	strb	r3, [fp, #-21]	; 0xffffffeb
   12278:	e55b3015 	ldrb	r3, [fp, #-21]	; 0xffffffeb
   1227c:	e1a00003 	mov	r0, r3
   12280:	ebffff50 	bl	11fc8 <reg_offset>
   12284:	e1a03000 	mov	r3, r0
   12288:	e50b3010 	str	r3, [fp, #-16]
   1228c:	e51b3010 	ldr	r3, [fp, #-16]
   12290:	e3730001 	cmn	r3, #1
   12294:	0a000016 	beq	122f4 <put_register_as_bytes+0x98>
   12298:	e59f3070 	ldr	r3, [pc, #112]	; 12310 <put_register_as_bytes+0xb4>
   1229c:	e5932000 	ldr	r2, [r3]
   122a0:	e51b3010 	ldr	r3, [fp, #-16]
   122a4:	e0822003 	add	r2, r2, r3
   122a8:	e50b2028 	str	r2, [fp, #-40]	; 0xffffffd8
   122ac:	e55b3015 	ldrb	r3, [fp, #-21]	; 0xffffffeb
   122b0:	e353000f 	cmp	r3, #15
   122b4:	9a000002 	bls	122c4 <put_register_as_bytes+0x68>
   122b8:	e55b3015 	ldrb	r3, [fp, #-21]	; 0xffffffeb
   122bc:	e3530017 	cmp	r3, #23
   122c0:	9a000002 	bls	122d0 <put_register_as_bytes+0x74>
   122c4:	e3a03004 	mov	r3, #4
   122c8:	e50b3024 	str	r3, [fp, #-36]	; 0xffffffdc
   122cc:	ea000001 	b	122d8 <put_register_as_bytes+0x7c>
   122d0:	e3a0300c 	mov	r3, #12
   122d4:	e50b3024 	str	r3, [fp, #-36]	; 0xffffffdc
   122d8:	e51b0028 	ldr	r0, [fp, #-40]	; 0xffffffd8
   122dc:	e51b101c 	ldr	r1, [fp, #-28]	; 0xffffffe4
   122e0:	e51b2024 	ldr	r2, [fp, #-36]	; 0xffffffdc
   122e4:	ebffeba0 	bl	d16c <_memcpy>
   122e8:	e3a03001 	mov	r3, #1
   122ec:	e50b3020 	str	r3, [fp, #-32]	; 0xffffffe0
   122f0:	ea000001 	b	122fc <put_register_as_bytes+0xa0>
   122f4:	e3a03000 	mov	r3, #0
   122f8:	e50b3020 	str	r3, [fp, #-32]	; 0xffffffe0
   122fc:	e51b3020 	ldr	r3, [fp, #-32]	; 0xffffffe0
   12300:	e1a00003 	mov	r0, r3
   12304:	e24bd00c 	sub	sp, fp, #12
   12308:	e89d6800 	ldm	sp, {fp, sp, lr}
   1230c:	e12fff1e 	bx	lr
   12310:	810002c4 	.word	0x810002c4

00012314 <v5T_semantics>:
   12314:	e1a0c00d 	mov	ip, sp
   12318:	e92dd800 	push	{fp, ip, lr, pc}
   1231c:	e24cb004 	sub	fp, ip, #4
   12320:	e24dd008 	sub	sp, sp, #8
   12324:	ee103f10 	mrc	15, 0, r3, cr0, cr0, {0}
   12328:	e50b3010 	str	r3, [fp, #-16]
   1232c:	e51b3010 	ldr	r3, [fp, #-16]
   12330:	e1a03823 	lsr	r3, r3, #16
   12334:	e20330ff 	and	r3, r3, #255	; 0xff
   12338:	e3530004 	cmp	r3, #4
   1233c:	93a03000 	movls	r3, #0
   12340:	83a03001 	movhi	r3, #1
   12344:	e1a00003 	mov	r0, r3
   12348:	e24bd00c 	sub	sp, fp, #12
   1234c:	e89d6800 	ldm	sp, {fp, sp, lr}
   12350:	e12fff1e 	bx	lr

00012354 <ins_will_execute>:
   12354:	e1a0c00d 	mov	ip, sp
   12358:	e92dd800 	push	{fp, ip, lr, pc}
   1235c:	e24cb004 	sub	fp, ip, #4
   12360:	e24dd030 	sub	sp, sp, #48	; 0x30
   12364:	e50b0018 	str	r0, [fp, #-24]	; 0xffffffe8
   12368:	e3a00019 	mov	r0, #25
   1236c:	ebffff44 	bl	12084 <get_register>
   12370:	e1a03000 	mov	r3, r0
   12374:	e50b3014 	str	r3, [fp, #-20]	; 0xffffffec
   12378:	e3a03000 	mov	r3, #0
   1237c:	e50b3010 	str	r3, [fp, #-16]
   12380:	e51b3018 	ldr	r3, [fp, #-24]	; 0xffffffe8
   12384:	e1a03e23 	lsr	r3, r3, #28
   12388:	e353000f 	cmp	r3, #15
   1238c:	979ff103 	ldrls	pc, [pc, r3, lsl #2]
   12390:	ea0000cb 	b	126c4 <ins_will_execute+0x370>
   12394:	000123d4 	.word	0x000123d4
   12398:	000123f0 	.word	0x000123f0
   1239c:	0001240c 	.word	0x0001240c
   123a0:	00012428 	.word	0x00012428
   123a4:	00012444 	.word	0x00012444
   123a8:	00012454 	.word	0x00012454
   123ac:	00012468 	.word	0x00012468
   123b0:	00012484 	.word	0x00012484
   123b4:	000124a0 	.word	0x000124a0
   123b8:	000124e0 	.word	0x000124e0
   123bc:	00012520 	.word	0x00012520
   123c0:	00012560 	.word	0x00012560
   123c4:	000125a0 	.word	0x000125a0
   123c8:	00012618 	.word	0x00012618
   123cc:	00012690 	.word	0x00012690
   123d0:	0001269c 	.word	0x0001269c
   123d4:	e51b3014 	ldr	r3, [fp, #-20]	; 0xffffffec
   123d8:	e2033101 	and	r3, r3, #1073741824	; 0x40000000
   123dc:	e3530000 	cmp	r3, #0
   123e0:	03a03000 	moveq	r3, #0
   123e4:	13a03001 	movne	r3, #1
   123e8:	e50b3010 	str	r3, [fp, #-16]
   123ec:	ea0000b4 	b	126c4 <ins_will_execute+0x370>
   123f0:	e51b3014 	ldr	r3, [fp, #-20]	; 0xffffffec
   123f4:	e2033101 	and	r3, r3, #1073741824	; 0x40000000
   123f8:	e3530000 	cmp	r3, #0
   123fc:	13a03000 	movne	r3, #0
   12400:	03a03001 	moveq	r3, #1
   12404:	e50b3010 	str	r3, [fp, #-16]
   12408:	ea0000ad 	b	126c4 <ins_will_execute+0x370>
   1240c:	e51b3014 	ldr	r3, [fp, #-20]	; 0xffffffec
   12410:	e2033202 	and	r3, r3, #536870912	; 0x20000000
   12414:	e3530000 	cmp	r3, #0
   12418:	03a03000 	moveq	r3, #0
   1241c:	13a03001 	movne	r3, #1
   12420:	e50b3010 	str	r3, [fp, #-16]
   12424:	ea0000a6 	b	126c4 <ins_will_execute+0x370>
   12428:	e51b3014 	ldr	r3, [fp, #-20]	; 0xffffffec
   1242c:	e2033202 	and	r3, r3, #536870912	; 0x20000000
   12430:	e3530000 	cmp	r3, #0
   12434:	13a03000 	movne	r3, #0
   12438:	03a03001 	moveq	r3, #1
   1243c:	e50b3010 	str	r3, [fp, #-16]
   12440:	ea00009f 	b	126c4 <ins_will_execute+0x370>
   12444:	e51b3014 	ldr	r3, [fp, #-20]	; 0xffffffec
   12448:	e1a03fa3 	lsr	r3, r3, #31
   1244c:	e50b3010 	str	r3, [fp, #-16]
   12450:	ea00009b 	b	126c4 <ins_will_execute+0x370>
   12454:	e51b3014 	ldr	r3, [fp, #-20]	; 0xffffffec
   12458:	e1e03003 	mvn	r3, r3
   1245c:	e1a03fa3 	lsr	r3, r3, #31
   12460:	e50b3010 	str	r3, [fp, #-16]
   12464:	ea000096 	b	126c4 <ins_will_execute+0x370>
   12468:	e51b3014 	ldr	r3, [fp, #-20]	; 0xffffffec
   1246c:	e2033201 	and	r3, r3, #268435456	; 0x10000000
   12470:	e3530000 	cmp	r3, #0
   12474:	03a03000 	moveq	r3, #0
   12478:	13a03001 	movne	r3, #1
   1247c:	e50b3010 	str	r3, [fp, #-16]
   12480:	ea00008f 	b	126c4 <ins_will_execute+0x370>
   12484:	e51b3014 	ldr	r3, [fp, #-20]	; 0xffffffec
   12488:	e2033201 	and	r3, r3, #268435456	; 0x10000000
   1248c:	e3530000 	cmp	r3, #0
   12490:	13a03000 	movne	r3, #0
   12494:	03a03001 	moveq	r3, #1
   12498:	e50b3010 	str	r3, [fp, #-16]
   1249c:	ea000088 	b	126c4 <ins_will_execute+0x370>
   124a0:	e51b3014 	ldr	r3, [fp, #-20]	; 0xffffffec
   124a4:	e2033202 	and	r3, r3, #536870912	; 0x20000000
   124a8:	e3530000 	cmp	r3, #0
   124ac:	0a000006 	beq	124cc <ins_will_execute+0x178>
   124b0:	e51b3014 	ldr	r3, [fp, #-20]	; 0xffffffec
   124b4:	e2033101 	and	r3, r3, #1073741824	; 0x40000000
   124b8:	e3530000 	cmp	r3, #0
   124bc:	1a000002 	bne	124cc <ins_will_execute+0x178>
   124c0:	e3a03001 	mov	r3, #1
   124c4:	e50b3038 	str	r3, [fp, #-56]	; 0xffffffc8
   124c8:	ea000001 	b	124d4 <ins_will_execute+0x180>
   124cc:	e3a03000 	mov	r3, #0
   124d0:	e50b3038 	str	r3, [fp, #-56]	; 0xffffffc8
   124d4:	e51b3038 	ldr	r3, [fp, #-56]	; 0xffffffc8
   124d8:	e50b3010 	str	r3, [fp, #-16]
   124dc:	ea000078 	b	126c4 <ins_will_execute+0x370>
   124e0:	e51b3014 	ldr	r3, [fp, #-20]	; 0xffffffec
   124e4:	e2033202 	and	r3, r3, #536870912	; 0x20000000
   124e8:	e3530000 	cmp	r3, #0
   124ec:	0a000003 	beq	12500 <ins_will_execute+0x1ac>
   124f0:	e51b3014 	ldr	r3, [fp, #-20]	; 0xffffffec
   124f4:	e2033101 	and	r3, r3, #1073741824	; 0x40000000
   124f8:	e3530000 	cmp	r3, #0
   124fc:	0a000002 	beq	1250c <ins_will_execute+0x1b8>
   12500:	e3a03001 	mov	r3, #1
   12504:	e50b3034 	str	r3, [fp, #-52]	; 0xffffffcc
   12508:	ea000001 	b	12514 <ins_will_execute+0x1c0>
   1250c:	e3a03000 	mov	r3, #0
   12510:	e50b3034 	str	r3, [fp, #-52]	; 0xffffffcc
   12514:	e51b3034 	ldr	r3, [fp, #-52]	; 0xffffffcc
   12518:	e50b3010 	str	r3, [fp, #-16]
   1251c:	ea000068 	b	126c4 <ins_will_execute+0x370>
   12520:	e51b3014 	ldr	r3, [fp, #-20]	; 0xffffffec
   12524:	e2033209 	and	r3, r3, #-1879048192	; 0x90000000
   12528:	e3530209 	cmp	r3, #-1879048192	; 0x90000000
   1252c:	0a000003 	beq	12540 <ins_will_execute+0x1ec>
   12530:	e51b3014 	ldr	r3, [fp, #-20]	; 0xffffffec
   12534:	e2033209 	and	r3, r3, #-1879048192	; 0x90000000
   12538:	e3530000 	cmp	r3, #0
   1253c:	1a000002 	bne	1254c <ins_will_execute+0x1f8>
   12540:	e3a03001 	mov	r3, #1
   12544:	e50b3030 	str	r3, [fp, #-48]	; 0xffffffd0
   12548:	ea000001 	b	12554 <ins_will_execute+0x200>
   1254c:	e3a03000 	mov	r3, #0
   12550:	e50b3030 	str	r3, [fp, #-48]	; 0xffffffd0
   12554:	e51b3030 	ldr	r3, [fp, #-48]	; 0xffffffd0
   12558:	e50b3010 	str	r3, [fp, #-16]
   1255c:	ea000058 	b	126c4 <ins_will_execute+0x370>
   12560:	e51b3014 	ldr	r3, [fp, #-20]	; 0xffffffec
   12564:	e2033209 	and	r3, r3, #-1879048192	; 0x90000000
   12568:	e3530102 	cmp	r3, #-2147483648	; 0x80000000
   1256c:	0a000003 	beq	12580 <ins_will_execute+0x22c>
   12570:	e51b3014 	ldr	r3, [fp, #-20]	; 0xffffffec
   12574:	e2033209 	and	r3, r3, #-1879048192	; 0x90000000
   12578:	e3530201 	cmp	r3, #268435456	; 0x10000000
   1257c:	1a000002 	bne	1258c <ins_will_execute+0x238>
   12580:	e3a03001 	mov	r3, #1
   12584:	e50b302c 	str	r3, [fp, #-44]	; 0xffffffd4
   12588:	ea000001 	b	12594 <ins_will_execute+0x240>
   1258c:	e3a03000 	mov	r3, #0
   12590:	e50b302c 	str	r3, [fp, #-44]	; 0xffffffd4
   12594:	e51b302c 	ldr	r3, [fp, #-44]	; 0xffffffd4
   12598:	e50b3010 	str	r3, [fp, #-16]
   1259c:	ea000048 	b	126c4 <ins_will_execute+0x370>
   125a0:	e51b3014 	ldr	r3, [fp, #-20]	; 0xffffffec
   125a4:	e2033209 	and	r3, r3, #-1879048192	; 0x90000000
   125a8:	e3530209 	cmp	r3, #-1879048192	; 0x90000000
   125ac:	0a000003 	beq	125c0 <ins_will_execute+0x26c>
   125b0:	e51b3014 	ldr	r3, [fp, #-20]	; 0xffffffec
   125b4:	e2033209 	and	r3, r3, #-1879048192	; 0x90000000
   125b8:	e3530000 	cmp	r3, #0
   125bc:	1a000002 	bne	125cc <ins_will_execute+0x278>
   125c0:	e3a03001 	mov	r3, #1
   125c4:	e50b3028 	str	r3, [fp, #-40]	; 0xffffffd8
   125c8:	ea000001 	b	125d4 <ins_will_execute+0x280>
   125cc:	e3a03000 	mov	r3, #0
   125d0:	e50b3028 	str	r3, [fp, #-40]	; 0xffffffd8
   125d4:	e51b3028 	ldr	r3, [fp, #-40]	; 0xffffffd8
   125d8:	e50b3010 	str	r3, [fp, #-16]
   125dc:	e51b3014 	ldr	r3, [fp, #-20]	; 0xffffffec
   125e0:	e2033101 	and	r3, r3, #1073741824	; 0x40000000
   125e4:	e3530000 	cmp	r3, #0
   125e8:	1a000005 	bne	12604 <ins_will_execute+0x2b0>
   125ec:	e51b3010 	ldr	r3, [fp, #-16]
   125f0:	e3530000 	cmp	r3, #0
   125f4:	0a000002 	beq	12604 <ins_will_execute+0x2b0>
   125f8:	e3a03001 	mov	r3, #1
   125fc:	e50b3024 	str	r3, [fp, #-36]	; 0xffffffdc
   12600:	ea000001 	b	1260c <ins_will_execute+0x2b8>
   12604:	e3a03000 	mov	r3, #0
   12608:	e50b3024 	str	r3, [fp, #-36]	; 0xffffffdc
   1260c:	e51b3024 	ldr	r3, [fp, #-36]	; 0xffffffdc
   12610:	e50b3010 	str	r3, [fp, #-16]
   12614:	ea00002a 	b	126c4 <ins_will_execute+0x370>
   12618:	e51b3014 	ldr	r3, [fp, #-20]	; 0xffffffec
   1261c:	e2033209 	and	r3, r3, #-1879048192	; 0x90000000
   12620:	e3530102 	cmp	r3, #-2147483648	; 0x80000000
   12624:	0a000003 	beq	12638 <ins_will_execute+0x2e4>
   12628:	e51b3014 	ldr	r3, [fp, #-20]	; 0xffffffec
   1262c:	e2033209 	and	r3, r3, #-1879048192	; 0x90000000
   12630:	e3530201 	cmp	r3, #268435456	; 0x10000000
   12634:	1a000002 	bne	12644 <ins_will_execute+0x2f0>
   12638:	e3a03001 	mov	r3, #1
   1263c:	e50b3020 	str	r3, [fp, #-32]	; 0xffffffe0
   12640:	ea000001 	b	1264c <ins_will_execute+0x2f8>
   12644:	e3a03000 	mov	r3, #0
   12648:	e50b3020 	str	r3, [fp, #-32]	; 0xffffffe0
   1264c:	e51b3020 	ldr	r3, [fp, #-32]	; 0xffffffe0
   12650:	e50b3010 	str	r3, [fp, #-16]
   12654:	e51b3014 	ldr	r3, [fp, #-20]	; 0xffffffec
   12658:	e2033101 	and	r3, r3, #1073741824	; 0x40000000
   1265c:	e3530000 	cmp	r3, #0
   12660:	1a000002 	bne	12670 <ins_will_execute+0x31c>
   12664:	e51b3010 	ldr	r3, [fp, #-16]
   12668:	e3530000 	cmp	r3, #0
   1266c:	0a000002 	beq	1267c <ins_will_execute+0x328>
   12670:	e3a03001 	mov	r3, #1
   12674:	e50b301c 	str	r3, [fp, #-28]	; 0xffffffe4
   12678:	ea000001 	b	12684 <ins_will_execute+0x330>
   1267c:	e3a03000 	mov	r3, #0
   12680:	e50b301c 	str	r3, [fp, #-28]	; 0xffffffe4
   12684:	e51b301c 	ldr	r3, [fp, #-28]	; 0xffffffe4
   12688:	e50b3010 	str	r3, [fp, #-16]
   1268c:	ea00000c 	b	126c4 <ins_will_execute+0x370>
   12690:	e3a03001 	mov	r3, #1
   12694:	e50b3010 	str	r3, [fp, #-16]
   12698:	ea000009 	b	126c4 <ins_will_execute+0x370>
   1269c:	e51b3018 	ldr	r3, [fp, #-24]	; 0xffffffe8
   126a0:	e203340e 	and	r3, r3, #234881024	; 0xe000000
   126a4:	e1a03c23 	lsr	r3, r3, #24
   126a8:	e353000a 	cmp	r3, #10
   126ac:	1a000002 	bne	126bc <ins_will_execute+0x368>
   126b0:	e3a03001 	mov	r3, #1
   126b4:	e50b3010 	str	r3, [fp, #-16]
   126b8:	ea000001 	b	126c4 <ins_will_execute+0x370>
   126bc:	e3a03000 	mov	r3, #0
   126c0:	e50b3010 	str	r3, [fp, #-16]
   126c4:	e51b3010 	ldr	r3, [fp, #-16]
   126c8:	e1a00003 	mov	r0, r3
   126cc:	e24bd00c 	sub	sp, fp, #12
   126d0:	e89d6800 	ldm	sp, {fp, sp, lr}
   126d4:	e12fff1e 	bx	lr

000126d8 <RmShifted>:
   126d8:	e1a0c00d 	mov	ip, sp
   126dc:	e92dd800 	push	{fp, ip, lr, pc}
   126e0:	e24cb004 	sub	fp, ip, #4
   126e4:	e24dd010 	sub	sp, sp, #16
   126e8:	e50b0018 	str	r0, [fp, #-24]	; 0xffffffe8
   126ec:	e51b3018 	ldr	r3, [fp, #-24]	; 0xffffffe8
   126f0:	e20330ff 	and	r3, r3, #255	; 0xff
   126f4:	e203300f 	and	r3, r3, #15
   126f8:	e1a00003 	mov	r0, r3
   126fc:	ebfffe60 	bl	12084 <get_register>
   12700:	e1a03000 	mov	r3, r0
   12704:	e50b3014 	str	r3, [fp, #-20]	; 0xffffffec
   12708:	e51b3018 	ldr	r3, [fp, #-24]	; 0xffffffe8
   1270c:	e2033010 	and	r3, r3, #16
   12710:	e3530000 	cmp	r3, #0
   12714:	1a000004 	bne	1272c <RmShifted+0x54>
   12718:	e51b3018 	ldr	r3, [fp, #-24]	; 0xffffffe8
   1271c:	e2033d3e 	and	r3, r3, #3968	; 0xf80
   12720:	e1a033c3 	asr	r3, r3, #7
   12724:	e50b3010 	str	r3, [fp, #-16]
   12728:	ea000007 	b	1274c <RmShifted+0x74>
   1272c:	e51b3018 	ldr	r3, [fp, #-24]	; 0xffffffe8
   12730:	e2033c0f 	and	r3, r3, #3840	; 0xf00
   12734:	e1a03443 	asr	r3, r3, #8
   12738:	e20330ff 	and	r3, r3, #255	; 0xff
   1273c:	e1a00003 	mov	r0, r3
   12740:	ebfffe4f 	bl	12084 <get_register>
   12744:	e1a03000 	mov	r3, r0
   12748:	e50b3010 	str	r3, [fp, #-16]
   1274c:	e51b3018 	ldr	r3, [fp, #-24]	; 0xffffffe8
   12750:	e2033060 	and	r3, r3, #96	; 0x60
   12754:	e1a032c3 	asr	r3, r3, #5
   12758:	e3530003 	cmp	r3, #3
   1275c:	979ff103 	ldrls	pc, [pc, r3, lsl #2]
   12760:	ea000026 	b	12800 <RmShifted+0x128>
   12764:	00012774 	.word	0x00012774
   12768:	00012788 	.word	0x00012788
   1276c:	0001279c 	.word	0x0001279c
   12770:	000127b0 	.word	0x000127b0
   12774:	e51b3014 	ldr	r3, [fp, #-20]	; 0xffffffec
   12778:	e51b2010 	ldr	r2, [fp, #-16]
   1277c:	e1a03213 	lsl	r3, r3, r2
   12780:	e50b3014 	str	r3, [fp, #-20]	; 0xffffffec
   12784:	ea00001d 	b	12800 <RmShifted+0x128>
   12788:	e51b3014 	ldr	r3, [fp, #-20]	; 0xffffffec
   1278c:	e51b2010 	ldr	r2, [fp, #-16]
   12790:	e1a03233 	lsr	r3, r3, r2
   12794:	e50b3014 	str	r3, [fp, #-20]	; 0xffffffec
   12798:	ea000018 	b	12800 <RmShifted+0x128>
   1279c:	e51b3014 	ldr	r3, [fp, #-20]	; 0xffffffec
   127a0:	e51b2010 	ldr	r2, [fp, #-16]
   127a4:	e1a03253 	asr	r3, r3, r2
   127a8:	e50b3014 	str	r3, [fp, #-20]	; 0xffffffec
   127ac:	ea000013 	b	12800 <RmShifted+0x128>
   127b0:	e51b3010 	ldr	r3, [fp, #-16]
   127b4:	e3530000 	cmp	r3, #0
   127b8:	1a00000c 	bne	127f0 <RmShifted+0x118>
   127bc:	e51b3014 	ldr	r3, [fp, #-20]	; 0xffffffec
   127c0:	e1a030a3 	lsr	r3, r3, #1
   127c4:	e50b3014 	str	r3, [fp, #-20]	; 0xffffffec
   127c8:	e3a00019 	mov	r0, #25
   127cc:	ebfffe2c 	bl	12084 <get_register>
   127d0:	e1a03000 	mov	r3, r0
   127d4:	e2033202 	and	r3, r3, #536870912	; 0x20000000
   127d8:	e3530000 	cmp	r3, #0
   127dc:	0a000007 	beq	12800 <RmShifted+0x128>
   127e0:	e51b3014 	ldr	r3, [fp, #-20]	; 0xffffffec
   127e4:	e3833102 	orr	r3, r3, #-2147483648	; 0x80000000
   127e8:	e50b3014 	str	r3, [fp, #-20]	; 0xffffffec
   127ec:	ea000003 	b	12800 <RmShifted+0x128>
   127f0:	e51b3014 	ldr	r3, [fp, #-20]	; 0xffffffec
   127f4:	e51b2010 	ldr	r2, [fp, #-16]
   127f8:	e1a03273 	ror	r3, r3, r2
   127fc:	e50b3014 	str	r3, [fp, #-20]	; 0xffffffec
   12800:	e51b3014 	ldr	r3, [fp, #-20]	; 0xffffffec
   12804:	e1a00003 	mov	r0, r3
   12808:	e24bd00c 	sub	sp, fp, #12
   1280c:	e89d6800 	ldm	sp, {fp, sp, lr}
   12810:	e12fff1e 	bx	lr

00012814 <target_ins>:
   12814:	e1a0c00d 	mov	ip, sp
   12818:	e92dd800 	push	{fp, ip, lr, pc}
   1281c:	e24cb004 	sub	fp, ip, #4
   12820:	e24dd030 	sub	sp, sp, #48	; 0x30
   12824:	e50b0030 	str	r0, [fp, #-48]	; 0xffffffd0
   12828:	e50b1034 	str	r1, [fp, #-52]	; 0xffffffcc
   1282c:	e51b3034 	ldr	r3, [fp, #-52]	; 0xffffffcc
   12830:	e2033303 	and	r3, r3, #201326592	; 0xc000000
   12834:	e1a03d23 	lsr	r3, r3, #26
   12838:	e3530003 	cmp	r3, #3
   1283c:	979ff103 	ldrls	pc, [pc, r3, lsl #2]
   12840:	ea0001ad 	b	12efc <target_ins+0x6e8>
   12844:	00012854 	.word	0x00012854
   12848:	00012b54 	.word	0x00012b54
   1284c:	00012cd8 	.word	0x00012cd8
   12850:	00012ebc 	.word	0x00012ebc
   12854:	e51b3034 	ldr	r3, [fp, #-52]	; 0xffffffcc
   12858:	e3c3220f 	bic	r2, r3, #-268435456	; 0xf0000000
   1285c:	e3c2202f 	bic	r2, r2, #47	; 0x2f
   12860:	e3a03613 	mov	r3, #19922944	; 0x1300000
   12864:	e24330f0 	sub	r3, r3, #240	; 0xf0
   12868:	e1520003 	cmp	r2, r3
   1286c:	1a000009 	bne	12898 <target_ins+0x84>
   12870:	e51b3034 	ldr	r3, [fp, #-52]	; 0xffffffcc
   12874:	e20330ff 	and	r3, r3, #255	; 0xff
   12878:	e203300f 	and	r3, r3, #15
   1287c:	e1a00003 	mov	r0, r3
   12880:	ebfffdff 	bl	12084 <get_register>
   12884:	e1a03000 	mov	r3, r0
   12888:	e50b3028 	str	r3, [fp, #-40]	; 0xffffffd8
   1288c:	e51b3028 	ldr	r3, [fp, #-40]	; 0xffffffd8
   12890:	e50b3038 	str	r3, [fp, #-56]	; 0xffffffc8
   12894:	ea00019a 	b	12f04 <target_ins+0x6f0>
   12898:	e51b3030 	ldr	r3, [fp, #-48]	; 0xffffffd0
   1289c:	e2833004 	add	r3, r3, #4
   128a0:	e50b3028 	str	r3, [fp, #-40]	; 0xffffffd8
   128a4:	e51b3034 	ldr	r3, [fp, #-52]	; 0xffffffcc
   128a8:	e2033a0f 	and	r3, r3, #61440	; 0xf000
   128ac:	e3530a0f 	cmp	r3, #61440	; 0xf000
   128b0:	1a0000a4 	bne	12b48 <target_ins+0x334>
   128b4:	e51b3034 	ldr	r3, [fp, #-52]	; 0xffffffcc
   128b8:	e3c3320f 	bic	r3, r3, #-268435456	; 0xf0000000
   128bc:	e3c33501 	bic	r3, r3, #4194304	; 0x400000
   128c0:	e1a03823 	lsr	r3, r3, #16
   128c4:	e1a03803 	lsl	r3, r3, #16
   128c8:	e3a02743 	mov	r2, #17563648	; 0x10c0000
   128cc:	e2822803 	add	r2, r2, #196608	; 0x30000
   128d0:	e1530002 	cmp	r3, r2
   128d4:	0a00009b 	beq	12b48 <target_ins+0x334>
   128d8:	e51b3034 	ldr	r3, [fp, #-52]	; 0xffffffcc
   128dc:	e203380f 	and	r3, r3, #983040	; 0xf0000
   128e0:	e1a03823 	lsr	r3, r3, #16
   128e4:	e20330ff 	and	r3, r3, #255	; 0xff
   128e8:	e1a00003 	mov	r0, r3
   128ec:	ebfffde4 	bl	12084 <get_register>
   128f0:	e1a03000 	mov	r3, r0
   128f4:	e50b301c 	str	r3, [fp, #-28]	; 0xffffffe4
   128f8:	e51b3034 	ldr	r3, [fp, #-52]	; 0xffffffcc
   128fc:	e203380f 	and	r3, r3, #983040	; 0xf0000
   12900:	e353080f 	cmp	r3, #983040	; 0xf0000
   12904:	1a000002 	bne	12914 <target_ins+0x100>
   12908:	e51b301c 	ldr	r3, [fp, #-28]	; 0xffffffe4
   1290c:	e2833008 	add	r3, r3, #8
   12910:	e50b301c 	str	r3, [fp, #-28]	; 0xffffffe4
   12914:	e51b3034 	ldr	r3, [fp, #-52]	; 0xffffffcc
   12918:	e2033402 	and	r3, r3, #33554432	; 0x2000000
   1291c:	e3530000 	cmp	r3, #0
   12920:	1a000007 	bne	12944 <target_ins+0x130>
   12924:	e51b3034 	ldr	r3, [fp, #-52]	; 0xffffffcc
   12928:	e1a03a03 	lsl	r3, r3, #20
   1292c:	e1a03a23 	lsr	r3, r3, #20
   12930:	e1a00003 	mov	r0, r3
   12934:	ebffff67 	bl	126d8 <RmShifted>
   12938:	e1a03000 	mov	r3, r0
   1293c:	e50b3020 	str	r3, [fp, #-32]	; 0xffffffe0
   12940:	ea000011 	b	1298c <target_ins+0x178>
   12944:	e51b3034 	ldr	r3, [fp, #-52]	; 0xffffffcc
   12948:	e20330ff 	and	r3, r3, #255	; 0xff
   1294c:	e50b3020 	str	r3, [fp, #-32]	; 0xffffffe0
   12950:	e51b3034 	ldr	r3, [fp, #-52]	; 0xffffffcc
   12954:	e2033c0f 	and	r3, r3, #3840	; 0xf00
   12958:	e1a03423 	lsr	r3, r3, #8
   1295c:	e50b3018 	str	r3, [fp, #-24]	; 0xffffffe8
   12960:	e51b3018 	ldr	r3, [fp, #-24]	; 0xffffffe8
   12964:	e1a02083 	lsl	r2, r3, #1
   12968:	e51b3020 	ldr	r3, [fp, #-32]	; 0xffffffe0
   1296c:	e1a01233 	lsr	r1, r3, r2
   12970:	e51b3018 	ldr	r3, [fp, #-24]	; 0xffffffe8
   12974:	e2633010 	rsb	r3, r3, #16
   12978:	e1a02083 	lsl	r2, r3, #1
   1297c:	e51b3020 	ldr	r3, [fp, #-32]	; 0xffffffe0
   12980:	e1a03213 	lsl	r3, r3, r2
   12984:	e1813003 	orr	r3, r1, r3
   12988:	e50b3020 	str	r3, [fp, #-32]	; 0xffffffe0
   1298c:	e51b3034 	ldr	r3, [fp, #-52]	; 0xffffffcc
   12990:	e203361e 	and	r3, r3, #31457280	; 0x1e00000
   12994:	e1a03aa3 	lsr	r3, r3, #21
   12998:	e353000f 	cmp	r3, #15
   1299c:	979ff103 	ldrls	pc, [pc, r3, lsl #2]
   129a0:	ea000068 	b	12b48 <target_ins+0x334>
   129a4:	000129e4 	.word	0x000129e4
   129a8:	000129f8 	.word	0x000129f8
   129ac:	00012a0c 	.word	0x00012a0c
   129b0:	00012a20 	.word	0x00012a20
   129b4:	00012a34 	.word	0x00012a34
   129b8:	00012a48 	.word	0x00012a48
   129bc:	00012a84 	.word	0x00012a84
   129c0:	00012ac4 	.word	0x00012ac4
   129c4:	00012b48 	.word	0x00012b48
   129c8:	00012b48 	.word	0x00012b48
   129cc:	00012b48 	.word	0x00012b48
   129d0:	00012b48 	.word	0x00012b48
   129d4:	00012b04 	.word	0x00012b04
   129d8:	00012b18 	.word	0x00012b18
   129dc:	00012b24 	.word	0x00012b24
   129e0:	00012b3c 	.word	0x00012b3c
   129e4:	e51b301c 	ldr	r3, [fp, #-28]	; 0xffffffe4
   129e8:	e51b2020 	ldr	r2, [fp, #-32]	; 0xffffffe0
   129ec:	e0033002 	and	r3, r3, r2
   129f0:	e50b3028 	str	r3, [fp, #-40]	; 0xffffffd8
   129f4:	ea000053 	b	12b48 <target_ins+0x334>
   129f8:	e51b301c 	ldr	r3, [fp, #-28]	; 0xffffffe4
   129fc:	e51b2020 	ldr	r2, [fp, #-32]	; 0xffffffe0
   12a00:	e0233002 	eor	r3, r3, r2
   12a04:	e50b3028 	str	r3, [fp, #-40]	; 0xffffffd8
   12a08:	ea00004e 	b	12b48 <target_ins+0x334>
   12a0c:	e51b301c 	ldr	r3, [fp, #-28]	; 0xffffffe4
   12a10:	e51b2020 	ldr	r2, [fp, #-32]	; 0xffffffe0
   12a14:	e0623003 	rsb	r3, r2, r3
   12a18:	e50b3028 	str	r3, [fp, #-40]	; 0xffffffd8
   12a1c:	ea000049 	b	12b48 <target_ins+0x334>
   12a20:	e51b3020 	ldr	r3, [fp, #-32]	; 0xffffffe0
   12a24:	e51b201c 	ldr	r2, [fp, #-28]	; 0xffffffe4
   12a28:	e0623003 	rsb	r3, r2, r3
   12a2c:	e50b3028 	str	r3, [fp, #-40]	; 0xffffffd8
   12a30:	ea000044 	b	12b48 <target_ins+0x334>
   12a34:	e51b301c 	ldr	r3, [fp, #-28]	; 0xffffffe4
   12a38:	e51b2020 	ldr	r2, [fp, #-32]	; 0xffffffe0
   12a3c:	e0833002 	add	r3, r3, r2
   12a40:	e50b3028 	str	r3, [fp, #-40]	; 0xffffffd8
   12a44:	ea00003f 	b	12b48 <target_ins+0x334>
   12a48:	e3a00019 	mov	r0, #25
   12a4c:	ebfffd8c 	bl	12084 <get_register>
   12a50:	e1a03000 	mov	r3, r0
   12a54:	e2033202 	and	r3, r3, #536870912	; 0x20000000
   12a58:	e3530000 	cmp	r3, #0
   12a5c:	03a03000 	moveq	r3, #0
   12a60:	13a03001 	movne	r3, #1
   12a64:	e50b3010 	str	r3, [fp, #-16]
   12a68:	e51b201c 	ldr	r2, [fp, #-28]	; 0xffffffe4
   12a6c:	e51b3020 	ldr	r3, [fp, #-32]	; 0xffffffe0
   12a70:	e0822003 	add	r2, r2, r3
   12a74:	e51b3010 	ldr	r3, [fp, #-16]
   12a78:	e0823003 	add	r3, r2, r3
   12a7c:	e50b3028 	str	r3, [fp, #-40]	; 0xffffffd8
   12a80:	ea000030 	b	12b48 <target_ins+0x334>
   12a84:	e3a00019 	mov	r0, #25
   12a88:	ebfffd7d 	bl	12084 <get_register>
   12a8c:	e1a03000 	mov	r3, r0
   12a90:	e2033202 	and	r3, r3, #536870912	; 0x20000000
   12a94:	e3530000 	cmp	r3, #0
   12a98:	03a03000 	moveq	r3, #0
   12a9c:	13a03001 	movne	r3, #1
   12aa0:	e50b3010 	str	r3, [fp, #-16]
   12aa4:	e51b201c 	ldr	r2, [fp, #-28]	; 0xffffffe4
   12aa8:	e51b3020 	ldr	r3, [fp, #-32]	; 0xffffffe0
   12aac:	e0632002 	rsb	r2, r3, r2
   12ab0:	e51b3010 	ldr	r3, [fp, #-16]
   12ab4:	e0823003 	add	r3, r2, r3
   12ab8:	e2433001 	sub	r3, r3, #1
   12abc:	e50b3028 	str	r3, [fp, #-40]	; 0xffffffd8
   12ac0:	ea000020 	b	12b48 <target_ins+0x334>
   12ac4:	e3a00019 	mov	r0, #25
   12ac8:	ebfffd6d 	bl	12084 <get_register>
   12acc:	e1a03000 	mov	r3, r0
   12ad0:	e2033202 	and	r3, r3, #536870912	; 0x20000000
   12ad4:	e3530000 	cmp	r3, #0
   12ad8:	03a03000 	moveq	r3, #0
   12adc:	13a03001 	movne	r3, #1
   12ae0:	e50b3010 	str	r3, [fp, #-16]
   12ae4:	e51b2020 	ldr	r2, [fp, #-32]	; 0xffffffe0
   12ae8:	e51b301c 	ldr	r3, [fp, #-28]	; 0xffffffe4
   12aec:	e0632002 	rsb	r2, r3, r2
   12af0:	e51b3010 	ldr	r3, [fp, #-16]
   12af4:	e0823003 	add	r3, r2, r3
   12af8:	e2433001 	sub	r3, r3, #1
   12afc:	e50b3028 	str	r3, [fp, #-40]	; 0xffffffd8
   12b00:	ea000010 	b	12b48 <target_ins+0x334>
   12b04:	e51b301c 	ldr	r3, [fp, #-28]	; 0xffffffe4
   12b08:	e51b2020 	ldr	r2, [fp, #-32]	; 0xffffffe0
   12b0c:	e1833002 	orr	r3, r3, r2
   12b10:	e50b3028 	str	r3, [fp, #-40]	; 0xffffffd8
   12b14:	ea00000b 	b	12b48 <target_ins+0x334>
   12b18:	e51b3020 	ldr	r3, [fp, #-32]	; 0xffffffe0
   12b1c:	e50b3028 	str	r3, [fp, #-40]	; 0xffffffd8
   12b20:	ea000008 	b	12b48 <target_ins+0x334>
   12b24:	e51b3020 	ldr	r3, [fp, #-32]	; 0xffffffe0
   12b28:	e1e02003 	mvn	r2, r3
   12b2c:	e51b301c 	ldr	r3, [fp, #-28]	; 0xffffffe4
   12b30:	e0023003 	and	r3, r2, r3
   12b34:	e50b3028 	str	r3, [fp, #-40]	; 0xffffffd8
   12b38:	ea000002 	b	12b48 <target_ins+0x334>
   12b3c:	e51b3020 	ldr	r3, [fp, #-32]	; 0xffffffe0
   12b40:	e1e03003 	mvn	r3, r3
   12b44:	e50b3028 	str	r3, [fp, #-40]	; 0xffffffd8
   12b48:	e51b3028 	ldr	r3, [fp, #-40]	; 0xffffffd8
   12b4c:	e50b3038 	str	r3, [fp, #-56]	; 0xffffffc8
   12b50:	ea0000eb 	b	12f04 <target_ins+0x6f0>
   12b54:	e51b3034 	ldr	r3, [fp, #-52]	; 0xffffffcc
   12b58:	e3c334fd 	bic	r3, r3, #-50331648	; 0xfd000000
   12b5c:	e3c338ff 	bic	r3, r3, #16711680	; 0xff0000
   12b60:	e3c33cff 	bic	r3, r3, #65280	; 0xff00
   12b64:	e3c330ef 	bic	r3, r3, #239	; 0xef
   12b68:	e3a02402 	mov	r2, #33554432	; 0x2000000
   12b6c:	e2822010 	add	r2, r2, #16
   12b70:	e1530002 	cmp	r3, r2
   12b74:	1a000003 	bne	12b88 <target_ins+0x374>
   12b78:	e51b3030 	ldr	r3, [fp, #-48]	; 0xffffffd0
   12b7c:	e2833004 	add	r3, r3, #4
   12b80:	e50b3038 	str	r3, [fp, #-56]	; 0xffffffc8
   12b84:	ea0000de 	b	12f04 <target_ins+0x6f0>
   12b88:	e51b3034 	ldr	r3, [fp, #-52]	; 0xffffffcc
   12b8c:	e2033601 	and	r3, r3, #1048576	; 0x100000
   12b90:	e3530000 	cmp	r3, #0
   12b94:	1a000003 	bne	12ba8 <target_ins+0x394>
   12b98:	e51b3030 	ldr	r3, [fp, #-48]	; 0xffffffd0
   12b9c:	e2833004 	add	r3, r3, #4
   12ba0:	e50b3038 	str	r3, [fp, #-56]	; 0xffffffc8
   12ba4:	ea0000d6 	b	12f04 <target_ins+0x6f0>
   12ba8:	e51b3034 	ldr	r3, [fp, #-52]	; 0xffffffcc
   12bac:	e2033a0f 	and	r3, r3, #61440	; 0xf000
   12bb0:	e3530a0f 	cmp	r3, #61440	; 0xf000
   12bb4:	0a000003 	beq	12bc8 <target_ins+0x3b4>
   12bb8:	e51b3030 	ldr	r3, [fp, #-48]	; 0xffffffd0
   12bbc:	e2833004 	add	r3, r3, #4
   12bc0:	e50b3038 	str	r3, [fp, #-56]	; 0xffffffc8
   12bc4:	ea0000ce 	b	12f04 <target_ins+0x6f0>
   12bc8:	e51b3034 	ldr	r3, [fp, #-52]	; 0xffffffcc
   12bcc:	e203380f 	and	r3, r3, #983040	; 0xf0000
   12bd0:	e1a03823 	lsr	r3, r3, #16
   12bd4:	e20330ff 	and	r3, r3, #255	; 0xff
   12bd8:	e1a00003 	mov	r0, r3
   12bdc:	ebfffd28 	bl	12084 <get_register>
   12be0:	e1a03000 	mov	r3, r0
   12be4:	e50b301c 	str	r3, [fp, #-28]	; 0xffffffe4
   12be8:	e51b3034 	ldr	r3, [fp, #-52]	; 0xffffffcc
   12bec:	e203380f 	and	r3, r3, #983040	; 0xf0000
   12bf0:	e353080f 	cmp	r3, #983040	; 0xf0000
   12bf4:	1a000002 	bne	12c04 <target_ins+0x3f0>
   12bf8:	e51b301c 	ldr	r3, [fp, #-28]	; 0xffffffe4
   12bfc:	e2833008 	add	r3, r3, #8
   12c00:	e50b301c 	str	r3, [fp, #-28]	; 0xffffffe4
   12c04:	e51b3034 	ldr	r3, [fp, #-52]	; 0xffffffcc
   12c08:	e2033401 	and	r3, r3, #16777216	; 0x1000000
   12c0c:	e3530000 	cmp	r3, #0
   12c10:	0a00002c 	beq	12cc8 <target_ins+0x4b4>
   12c14:	e51b3034 	ldr	r3, [fp, #-52]	; 0xffffffcc
   12c18:	e2033402 	and	r3, r3, #33554432	; 0x2000000
   12c1c:	e3530000 	cmp	r3, #0
   12c20:	1a000011 	bne	12c6c <target_ins+0x458>
   12c24:	e51b3034 	ldr	r3, [fp, #-52]	; 0xffffffcc
   12c28:	e2033502 	and	r3, r3, #8388608	; 0x800000
   12c2c:	e3530000 	cmp	r3, #0
   12c30:	0a000006 	beq	12c50 <target_ins+0x43c>
   12c34:	e51b3034 	ldr	r3, [fp, #-52]	; 0xffffffcc
   12c38:	e1a03a03 	lsl	r3, r3, #20
   12c3c:	e1a03a23 	lsr	r3, r3, #20
   12c40:	e51b201c 	ldr	r2, [fp, #-28]	; 0xffffffe4
   12c44:	e0823003 	add	r3, r2, r3
   12c48:	e50b301c 	str	r3, [fp, #-28]	; 0xffffffe4
   12c4c:	ea00001d 	b	12cc8 <target_ins+0x4b4>
   12c50:	e51b3034 	ldr	r3, [fp, #-52]	; 0xffffffcc
   12c54:	e1a03a03 	lsl	r3, r3, #20
   12c58:	e1a03a23 	lsr	r3, r3, #20
   12c5c:	e51b201c 	ldr	r2, [fp, #-28]	; 0xffffffe4
   12c60:	e0633002 	rsb	r3, r3, r2
   12c64:	e50b301c 	str	r3, [fp, #-28]	; 0xffffffe4
   12c68:	ea000016 	b	12cc8 <target_ins+0x4b4>
   12c6c:	e51b3034 	ldr	r3, [fp, #-52]	; 0xffffffcc
   12c70:	e2033502 	and	r3, r3, #8388608	; 0x800000
   12c74:	e3530000 	cmp	r3, #0
   12c78:	0a000009 	beq	12ca4 <target_ins+0x490>
   12c7c:	e51b3034 	ldr	r3, [fp, #-52]	; 0xffffffcc
   12c80:	e1a03a03 	lsl	r3, r3, #20
   12c84:	e1a03a23 	lsr	r3, r3, #20
   12c88:	e1a00003 	mov	r0, r3
   12c8c:	ebfffe91 	bl	126d8 <RmShifted>
   12c90:	e1a02000 	mov	r2, r0
   12c94:	e51b301c 	ldr	r3, [fp, #-28]	; 0xffffffe4
   12c98:	e0833002 	add	r3, r3, r2
   12c9c:	e50b301c 	str	r3, [fp, #-28]	; 0xffffffe4
   12ca0:	ea000008 	b	12cc8 <target_ins+0x4b4>
   12ca4:	e51b3034 	ldr	r3, [fp, #-52]	; 0xffffffcc
   12ca8:	e1a03a03 	lsl	r3, r3, #20
   12cac:	e1a03a23 	lsr	r3, r3, #20
   12cb0:	e1a00003 	mov	r0, r3
   12cb4:	ebfffe87 	bl	126d8 <RmShifted>
   12cb8:	e1a02000 	mov	r2, r0
   12cbc:	e51b301c 	ldr	r3, [fp, #-28]	; 0xffffffe4
   12cc0:	e0623003 	rsb	r3, r2, r3
   12cc4:	e50b301c 	str	r3, [fp, #-28]	; 0xffffffe4
   12cc8:	e51b301c 	ldr	r3, [fp, #-28]	; 0xffffffe4
   12ccc:	e5933000 	ldr	r3, [r3]
   12cd0:	e50b3038 	str	r3, [fp, #-56]	; 0xffffffc8
   12cd4:	ea00008a 	b	12f04 <target_ins+0x6f0>
   12cd8:	e51b3034 	ldr	r3, [fp, #-52]	; 0xffffffcc
   12cdc:	e2033402 	and	r3, r3, #33554432	; 0x2000000
   12ce0:	e3530000 	cmp	r3, #0
   12ce4:	1a00004a 	bne	12e14 <target_ins+0x600>
   12ce8:	e51b3034 	ldr	r3, [fp, #-52]	; 0xffffffcc
   12cec:	e2033601 	and	r3, r3, #1048576	; 0x100000
   12cf0:	e3530000 	cmp	r3, #0
   12cf4:	1a000003 	bne	12d08 <target_ins+0x4f4>
   12cf8:	e51b3030 	ldr	r3, [fp, #-48]	; 0xffffffd0
   12cfc:	e2833004 	add	r3, r3, #4
   12d00:	e50b3038 	str	r3, [fp, #-56]	; 0xffffffc8
   12d04:	ea00007e 	b	12f04 <target_ins+0x6f0>
   12d08:	e51b3034 	ldr	r3, [fp, #-52]	; 0xffffffcc
   12d0c:	e2033902 	and	r3, r3, #32768	; 0x8000
   12d10:	e3530000 	cmp	r3, #0
   12d14:	1a000003 	bne	12d28 <target_ins+0x514>
   12d18:	e51b3030 	ldr	r3, [fp, #-48]	; 0xffffffd0
   12d1c:	e2833004 	add	r3, r3, #4
   12d20:	e50b3038 	str	r3, [fp, #-56]	; 0xffffffc8
   12d24:	ea000076 	b	12f04 <target_ins+0x6f0>
   12d28:	e51b3034 	ldr	r3, [fp, #-52]	; 0xffffffcc
   12d2c:	e203380f 	and	r3, r3, #983040	; 0xf0000
   12d30:	e1a03823 	lsr	r3, r3, #16
   12d34:	e20330ff 	and	r3, r3, #255	; 0xff
   12d38:	e1a00003 	mov	r0, r3
   12d3c:	ebfffcd0 	bl	12084 <get_register>
   12d40:	e1a03000 	mov	r3, r0
   12d44:	e50b301c 	str	r3, [fp, #-28]	; 0xffffffe4
   12d48:	e51b3034 	ldr	r3, [fp, #-52]	; 0xffffffcc
   12d4c:	e203380f 	and	r3, r3, #983040	; 0xf0000
   12d50:	e353080f 	cmp	r3, #983040	; 0xf0000
   12d54:	1a000002 	bne	12d64 <target_ins+0x550>
   12d58:	e51b301c 	ldr	r3, [fp, #-28]	; 0xffffffe4
   12d5c:	e2833008 	add	r3, r3, #8
   12d60:	e50b301c 	str	r3, [fp, #-28]	; 0xffffffe4
   12d64:	e51b3034 	ldr	r3, [fp, #-52]	; 0xffffffcc
   12d68:	e1a03803 	lsl	r3, r3, #16
   12d6c:	e1a03823 	lsr	r3, r3, #16
   12d70:	e50b3024 	str	r3, [fp, #-36]	; 0xffffffdc
   12d74:	e3a03000 	mov	r3, #0
   12d78:	e50b3014 	str	r3, [fp, #-20]	; 0xffffffec
   12d7c:	e3a03000 	mov	r3, #0
   12d80:	e50b3018 	str	r3, [fp, #-24]	; 0xffffffe8
   12d84:	ea00000d 	b	12dc0 <target_ins+0x5ac>
   12d88:	e3a02001 	mov	r2, #1
   12d8c:	e51b3018 	ldr	r3, [fp, #-24]	; 0xffffffe8
   12d90:	e1a03312 	lsl	r3, r2, r3
   12d94:	e1a02003 	mov	r2, r3
   12d98:	e51b3024 	ldr	r3, [fp, #-36]	; 0xffffffdc
   12d9c:	e0023003 	and	r3, r2, r3
   12da0:	e3530000 	cmp	r3, #0
   12da4:	0a000002 	beq	12db4 <target_ins+0x5a0>
   12da8:	e51b3014 	ldr	r3, [fp, #-20]	; 0xffffffec
   12dac:	e2833001 	add	r3, r3, #1
   12db0:	e50b3014 	str	r3, [fp, #-20]	; 0xffffffec
   12db4:	e51b3018 	ldr	r3, [fp, #-24]	; 0xffffffe8
   12db8:	e2833001 	add	r3, r3, #1
   12dbc:	e50b3018 	str	r3, [fp, #-24]	; 0xffffffe8
   12dc0:	e51b3018 	ldr	r3, [fp, #-24]	; 0xffffffe8
   12dc4:	e353000e 	cmp	r3, #14
   12dc8:	daffffee 	ble	12d88 <target_ins+0x574>
   12dcc:	e51b3034 	ldr	r3, [fp, #-52]	; 0xffffffcc
   12dd0:	e2033502 	and	r3, r3, #8388608	; 0x800000
   12dd4:	e3530000 	cmp	r3, #0
   12dd8:	0a000006 	beq	12df8 <target_ins+0x5e4>
   12ddc:	e51b3014 	ldr	r3, [fp, #-20]	; 0xffffffec
   12de0:	e1a03103 	lsl	r3, r3, #2
   12de4:	e1a02003 	mov	r2, r3
   12de8:	e51b301c 	ldr	r3, [fp, #-28]	; 0xffffffe4
   12dec:	e0833002 	add	r3, r3, r2
   12df0:	e50b301c 	str	r3, [fp, #-28]	; 0xffffffe4
   12df4:	ea000002 	b	12e04 <target_ins+0x5f0>
   12df8:	e51b301c 	ldr	r3, [fp, #-28]	; 0xffffffe4
   12dfc:	e2433004 	sub	r3, r3, #4
   12e00:	e50b301c 	str	r3, [fp, #-28]	; 0xffffffe4
   12e04:	e51b301c 	ldr	r3, [fp, #-28]	; 0xffffffe4
   12e08:	e5933000 	ldr	r3, [r3]
   12e0c:	e50b3038 	str	r3, [fp, #-56]	; 0xffffffc8
   12e10:	ea00003b 	b	12f04 <target_ins+0x6f0>
   12e14:	e51b0034 	ldr	r0, [fp, #-52]	; 0xffffffcc
   12e18:	ebfffd4d 	bl	12354 <ins_will_execute>
   12e1c:	e1a03000 	mov	r3, r0
   12e20:	e3530000 	cmp	r3, #0
   12e24:	0a000020 	beq	12eac <target_ins+0x698>
   12e28:	e51b3034 	ldr	r3, [fp, #-52]	; 0xffffffcc
   12e2c:	e3c334ff 	bic	r3, r3, #-16777216	; 0xff000000
   12e30:	e1a03103 	lsl	r3, r3, #2
   12e34:	e50b3024 	str	r3, [fp, #-36]	; 0xffffffdc
   12e38:	e51b3034 	ldr	r3, [fp, #-52]	; 0xffffffcc
   12e3c:	e2033502 	and	r3, r3, #8388608	; 0x800000
   12e40:	e3530000 	cmp	r3, #0
   12e44:	0a000002 	beq	12e54 <target_ins+0x640>
   12e48:	e51b3024 	ldr	r3, [fp, #-36]	; 0xffffffdc
   12e4c:	e383333f 	orr	r3, r3, #-67108864	; 0xfc000000
   12e50:	e50b3024 	str	r3, [fp, #-36]	; 0xffffffdc
   12e54:	e51b3024 	ldr	r3, [fp, #-36]	; 0xffffffdc
   12e58:	e2832008 	add	r2, r3, #8
   12e5c:	e51b3030 	ldr	r3, [fp, #-48]	; 0xffffffd0
   12e60:	e0833002 	add	r3, r3, r2
   12e64:	e50b3028 	str	r3, [fp, #-40]	; 0xffffffd8
   12e68:	e51b3034 	ldr	r3, [fp, #-52]	; 0xffffffcc
   12e6c:	e20334fe 	and	r3, r3, #-33554432	; 0xfe000000
   12e70:	e35304fa 	cmp	r3, #-100663296	; 0xfa000000
   12e74:	1a000009 	bne	12ea0 <target_ins+0x68c>
   12e78:	e51b3034 	ldr	r3, [fp, #-52]	; 0xffffffcc
   12e7c:	e2033401 	and	r3, r3, #16777216	; 0x1000000
   12e80:	e3530000 	cmp	r3, #0
   12e84:	0a000002 	beq	12e94 <target_ins+0x680>
   12e88:	e51b3028 	ldr	r3, [fp, #-40]	; 0xffffffd8
   12e8c:	e3833002 	orr	r3, r3, #2
   12e90:	e50b3028 	str	r3, [fp, #-40]	; 0xffffffd8
   12e94:	e51b3028 	ldr	r3, [fp, #-40]	; 0xffffffd8
   12e98:	e3833001 	orr	r3, r3, #1
   12e9c:	e50b3028 	str	r3, [fp, #-40]	; 0xffffffd8
   12ea0:	e51b3028 	ldr	r3, [fp, #-40]	; 0xffffffd8
   12ea4:	e50b3038 	str	r3, [fp, #-56]	; 0xffffffc8
   12ea8:	ea000015 	b	12f04 <target_ins+0x6f0>
   12eac:	e51b3030 	ldr	r3, [fp, #-48]	; 0xffffffd0
   12eb0:	e2833004 	add	r3, r3, #4
   12eb4:	e50b3038 	str	r3, [fp, #-56]	; 0xffffffc8
   12eb8:	ea000011 	b	12f04 <target_ins+0x6f0>
   12ebc:	e51b3034 	ldr	r3, [fp, #-52]	; 0xffffffcc
   12ec0:	e2033403 	and	r3, r3, #50331648	; 0x3000000
   12ec4:	e3530403 	cmp	r3, #50331648	; 0x3000000
   12ec8:	1a000007 	bne	12eec <target_ins+0x6d8>
   12ecc:	e51b0034 	ldr	r0, [fp, #-52]	; 0xffffffcc
   12ed0:	ebfffd1f 	bl	12354 <ins_will_execute>
   12ed4:	e1a03000 	mov	r3, r0
   12ed8:	e3530000 	cmp	r3, #0
   12edc:	0a000002 	beq	12eec <target_ins+0x6d8>
   12ee0:	e3a03008 	mov	r3, #8
   12ee4:	e50b3038 	str	r3, [fp, #-56]	; 0xffffffc8
   12ee8:	ea000005 	b	12f04 <target_ins+0x6f0>
   12eec:	e51b3030 	ldr	r3, [fp, #-48]	; 0xffffffd0
   12ef0:	e2833004 	add	r3, r3, #4
   12ef4:	e50b3038 	str	r3, [fp, #-56]	; 0xffffffc8
   12ef8:	ea000001 	b	12f04 <target_ins+0x6f0>
   12efc:	e3a03000 	mov	r3, #0
   12f00:	e50b3038 	str	r3, [fp, #-56]	; 0xffffffc8
   12f04:	e51b3038 	ldr	r3, [fp, #-56]	; 0xffffffc8
   12f08:	e1a00003 	mov	r0, r3
   12f0c:	e24bd00c 	sub	sp, fp, #12
   12f10:	e89d6800 	ldm	sp, {fp, sp, lr}
   12f14:	e12fff1e 	bx	lr

00012f18 <target_thumb_ins>:
   12f18:	e1a0c00d 	mov	ip, sp
   12f1c:	e92dd800 	push	{fp, ip, lr, pc}
   12f20:	e24cb004 	sub	fp, ip, #4
   12f24:	e24dd020 	sub	sp, sp, #32
   12f28:	e50b0028 	str	r0, [fp, #-40]	; 0xffffffd8
   12f2c:	e1a03001 	mov	r3, r1
   12f30:	e14b32ba 	strh	r3, [fp, #-42]	; 0xffffffd6
   12f34:	e51b3028 	ldr	r3, [fp, #-40]	; 0xffffffd8
   12f38:	e2833002 	add	r3, r3, #2
   12f3c:	e3833001 	orr	r3, r3, #1
   12f40:	e50b3020 	str	r3, [fp, #-32]	; 0xffffffe0
   12f44:	e15b32ba 	ldrh	r3, [fp, #-42]	; 0xffffffd6
   12f48:	e1a03623 	lsr	r3, r3, #12
   12f4c:	e1a03803 	lsl	r3, r3, #16
   12f50:	e1a03823 	lsr	r3, r3, #16
   12f54:	e2433004 	sub	r3, r3, #4
   12f58:	e353000b 	cmp	r3, #11
   12f5c:	979ff103 	ldrls	pc, [pc, r3, lsl #2]
   12f60:	ea0000b0 	b	13228 <target_thumb_ins+0x310>
   12f64:	00012f94 	.word	0x00012f94
   12f68:	00013228 	.word	0x00013228
   12f6c:	00013228 	.word	0x00013228
   12f70:	00013228 	.word	0x00013228
   12f74:	00013228 	.word	0x00013228
   12f78:	00013228 	.word	0x00013228
   12f7c:	00013228 	.word	0x00013228
   12f80:	00012fd0 	.word	0x00012fd0
   12f84:	00013228 	.word	0x00013228
   12f88:	00013078 	.word	0x00013078
   12f8c:	00013104 	.word	0x00013104
   12f90:	00013164 	.word	0x00013164
   12f94:	e15b32ba 	ldrh	r3, [fp, #-42]	; 0xffffffd6
   12f98:	e3c330f8 	bic	r3, r3, #248	; 0xf8
   12f9c:	e1a03803 	lsl	r3, r3, #16
   12fa0:	e1a03823 	lsr	r3, r3, #16
   12fa4:	e3530c47 	cmp	r3, #18176	; 0x4700
   12fa8:	1a00009e 	bne	13228 <target_thumb_ins+0x310>
   12fac:	e15b32ba 	ldrh	r3, [fp, #-42]	; 0xffffffd6
   12fb0:	e2033078 	and	r3, r3, #120	; 0x78
   12fb4:	e1a031c3 	asr	r3, r3, #3
   12fb8:	e20330ff 	and	r3, r3, #255	; 0xff
   12fbc:	e1a00003 	mov	r0, r3
   12fc0:	ebfffc2f 	bl	12084 <get_register>
   12fc4:	e1a03000 	mov	r3, r0
   12fc8:	e50b3020 	str	r3, [fp, #-32]	; 0xffffffe0
   12fcc:	ea000095 	b	13228 <target_thumb_ins+0x310>
   12fd0:	e15b32ba 	ldrh	r3, [fp, #-42]	; 0xffffffd6
   12fd4:	e2033c0f 	and	r3, r3, #3840	; 0xf00
   12fd8:	e3530c0d 	cmp	r3, #3328	; 0xd00
   12fdc:	1a000091 	bne	13228 <target_thumb_ins+0x310>
   12fe0:	e3a0000d 	mov	r0, #13
   12fe4:	ebfffc26 	bl	12084 <get_register>
   12fe8:	e1a03000 	mov	r3, r0
   12fec:	e50b3014 	str	r3, [fp, #-20]	; 0xffffffec
   12ff0:	e3a03000 	mov	r3, #0
   12ff4:	e50b3010 	str	r3, [fp, #-16]
   12ff8:	e3a03000 	mov	r3, #0
   12ffc:	e50b301c 	str	r3, [fp, #-28]	; 0xffffffe4
   13000:	ea00000c 	b	13038 <target_thumb_ins+0x120>
   13004:	e15b22ba 	ldrh	r2, [fp, #-42]	; 0xffffffd6
   13008:	e51b3010 	ldr	r3, [fp, #-16]
   1300c:	e1a03352 	asr	r3, r2, r3
   13010:	e2033001 	and	r3, r3, #1
   13014:	e20330ff 	and	r3, r3, #255	; 0xff
   13018:	e3530000 	cmp	r3, #0
   1301c:	0a000002 	beq	1302c <target_thumb_ins+0x114>
   13020:	e51b301c 	ldr	r3, [fp, #-28]	; 0xffffffe4
   13024:	e2833004 	add	r3, r3, #4
   13028:	e50b301c 	str	r3, [fp, #-28]	; 0xffffffe4
   1302c:	e51b3010 	ldr	r3, [fp, #-16]
   13030:	e2833001 	add	r3, r3, #1
   13034:	e50b3010 	str	r3, [fp, #-16]
   13038:	e51b3010 	ldr	r3, [fp, #-16]
   1303c:	e3530007 	cmp	r3, #7
   13040:	daffffef 	ble	13004 <target_thumb_ins+0xec>
   13044:	e51b2014 	ldr	r2, [fp, #-20]	; 0xffffffec
   13048:	e51b301c 	ldr	r3, [fp, #-28]	; 0xffffffe4
   1304c:	e0823003 	add	r3, r2, r3
   13050:	e5933000 	ldr	r3, [r3]
   13054:	e50b3020 	str	r3, [fp, #-32]	; 0xffffffe0
   13058:	ebfffcad 	bl	12314 <v5T_semantics>
   1305c:	e1a03000 	mov	r3, r0
   13060:	e3530000 	cmp	r3, #0
   13064:	1a00006f 	bne	13228 <target_thumb_ins+0x310>
   13068:	e51b3020 	ldr	r3, [fp, #-32]	; 0xffffffe0
   1306c:	e3833001 	orr	r3, r3, #1
   13070:	e50b3020 	str	r3, [fp, #-32]	; 0xffffffe0
   13074:	ea00006b 	b	13228 <target_thumb_ins+0x310>
   13078:	e15b32ba 	ldrh	r3, [fp, #-42]	; 0xffffffd6
   1307c:	e2033c0f 	and	r3, r3, #3840	; 0xf00
   13080:	e1a03a03 	lsl	r3, r3, #20
   13084:	e50b3018 	str	r3, [fp, #-24]	; 0xffffffe8
   13088:	e51b3018 	ldr	r3, [fp, #-24]	; 0xffffffe8
   1308c:	e203320f 	and	r3, r3, #-268435456	; 0xf0000000
   13090:	e353020f 	cmp	r3, #-268435456	; 0xf0000000
   13094:	1a000002 	bne	130a4 <target_thumb_ins+0x18c>
   13098:	e3a03008 	mov	r3, #8
   1309c:	e50b3020 	str	r3, [fp, #-32]	; 0xffffffe0
   130a0:	ea000060 	b	13228 <target_thumb_ins+0x310>
   130a4:	e51b0018 	ldr	r0, [fp, #-24]	; 0xffffffe8
   130a8:	ebfffca9 	bl	12354 <ins_will_execute>
   130ac:	e1a03000 	mov	r3, r0
   130b0:	e3530000 	cmp	r3, #0
   130b4:	0a00005b 	beq	13228 <target_thumb_ins+0x310>
   130b8:	e15b32ba 	ldrh	r3, [fp, #-42]	; 0xffffffd6
   130bc:	e20330ff 	and	r3, r3, #255	; 0xff
   130c0:	e1a03083 	lsl	r3, r3, #1
   130c4:	e50b301c 	str	r3, [fp, #-28]	; 0xffffffe4
   130c8:	e15b32ba 	ldrh	r3, [fp, #-42]	; 0xffffffd6
   130cc:	e2033080 	and	r3, r3, #128	; 0x80
   130d0:	e3530000 	cmp	r3, #0
   130d4:	0a000003 	beq	130e8 <target_thumb_ins+0x1d0>
   130d8:	e51b301c 	ldr	r3, [fp, #-28]	; 0xffffffe4
   130dc:	e1e03b83 	mvn	r3, r3, lsl #23
   130e0:	e1e03ba3 	mvn	r3, r3, lsr #23
   130e4:	e50b301c 	str	r3, [fp, #-28]	; 0xffffffe4
   130e8:	e51b2028 	ldr	r2, [fp, #-40]	; 0xffffffd8
   130ec:	e51b301c 	ldr	r3, [fp, #-28]	; 0xffffffe4
   130f0:	e0823003 	add	r3, r2, r3
   130f4:	e2833004 	add	r3, r3, #4
   130f8:	e3833001 	orr	r3, r3, #1
   130fc:	e50b3020 	str	r3, [fp, #-32]	; 0xffffffe0
   13100:	ea000048 	b	13228 <target_thumb_ins+0x310>
   13104:	e15b32ba 	ldrh	r3, [fp, #-42]	; 0xffffffd6
   13108:	e2033b02 	and	r3, r3, #2048	; 0x800
   1310c:	e3530000 	cmp	r3, #0
   13110:	1a000044 	bne	13228 <target_thumb_ins+0x310>
   13114:	e15b32ba 	ldrh	r3, [fp, #-42]	; 0xffffffd6
   13118:	e1a03a83 	lsl	r3, r3, #21
   1311c:	e1a03aa3 	lsr	r3, r3, #21
   13120:	e1a03083 	lsl	r3, r3, #1
   13124:	e50b301c 	str	r3, [fp, #-28]	; 0xffffffe4
   13128:	e15b32ba 	ldrh	r3, [fp, #-42]	; 0xffffffd6
   1312c:	e2033b01 	and	r3, r3, #1024	; 0x400
   13130:	e3530000 	cmp	r3, #0
   13134:	0a000003 	beq	13148 <target_thumb_ins+0x230>
   13138:	e51b301c 	ldr	r3, [fp, #-28]	; 0xffffffe4
   1313c:	e1e03a83 	mvn	r3, r3, lsl #21
   13140:	e1e03aa3 	mvn	r3, r3, lsr #21
   13144:	e50b301c 	str	r3, [fp, #-28]	; 0xffffffe4
   13148:	e51b2028 	ldr	r2, [fp, #-40]	; 0xffffffd8
   1314c:	e51b301c 	ldr	r3, [fp, #-28]	; 0xffffffe4
   13150:	e0823003 	add	r3, r2, r3
   13154:	e2833004 	add	r3, r3, #4
   13158:	e3833001 	orr	r3, r3, #1
   1315c:	e50b3020 	str	r3, [fp, #-32]	; 0xffffffe0
   13160:	ea000030 	b	13228 <target_thumb_ins+0x310>
   13164:	e15b32ba 	ldrh	r3, [fp, #-42]	; 0xffffffd6
   13168:	e2033b02 	and	r3, r3, #2048	; 0x800
   1316c:	e3530000 	cmp	r3, #0
   13170:	1a00002c 	bne	13228 <target_thumb_ins+0x310>
   13174:	e15b32ba 	ldrh	r3, [fp, #-42]	; 0xffffffd6
   13178:	e1a03a83 	lsl	r3, r3, #21
   1317c:	e1a03aa3 	lsr	r3, r3, #21
   13180:	e1a03603 	lsl	r3, r3, #12
   13184:	e50b301c 	str	r3, [fp, #-28]	; 0xffffffe4
   13188:	e15b32ba 	ldrh	r3, [fp, #-42]	; 0xffffffd6
   1318c:	e2033b01 	and	r3, r3, #1024	; 0x400
   13190:	e3530000 	cmp	r3, #0
   13194:	0a000003 	beq	131a8 <target_thumb_ins+0x290>
   13198:	e51b301c 	ldr	r3, [fp, #-28]	; 0xffffffe4
   1319c:	e1e03483 	mvn	r3, r3, lsl #9
   131a0:	e1e034a3 	mvn	r3, r3, lsr #9
   131a4:	e50b301c 	str	r3, [fp, #-28]	; 0xffffffe4
   131a8:	e51b3028 	ldr	r3, [fp, #-40]	; 0xffffffd8
   131ac:	e2833002 	add	r3, r3, #2
   131b0:	e1d330b0 	ldrh	r3, [r3]
   131b4:	e14b32ba 	strh	r3, [fp, #-42]	; 0xffffffd6
   131b8:	e15b32ba 	ldrh	r3, [fp, #-42]	; 0xffffffd6
   131bc:	e2033b3a 	and	r3, r3, #59392	; 0xe800
   131c0:	e3530b3a 	cmp	r3, #59392	; 0xe800
   131c4:	1a000017 	bne	13228 <target_thumb_ins+0x310>
   131c8:	e15b32ba 	ldrh	r3, [fp, #-42]	; 0xffffffd6
   131cc:	e1a03a83 	lsl	r3, r3, #21
   131d0:	e1a03aa3 	lsr	r3, r3, #21
   131d4:	e1a03083 	lsl	r3, r3, #1
   131d8:	e1a02003 	mov	r2, r3
   131dc:	e51b301c 	ldr	r3, [fp, #-28]	; 0xffffffe4
   131e0:	e1833002 	orr	r3, r3, r2
   131e4:	e50b301c 	str	r3, [fp, #-28]	; 0xffffffe4
   131e8:	e51b2028 	ldr	r2, [fp, #-40]	; 0xffffffd8
   131ec:	e51b301c 	ldr	r3, [fp, #-28]	; 0xffffffe4
   131f0:	e0823003 	add	r3, r2, r3
   131f4:	e2833004 	add	r3, r3, #4
   131f8:	e50b3020 	str	r3, [fp, #-32]	; 0xffffffe0
   131fc:	e15b32ba 	ldrh	r3, [fp, #-42]	; 0xffffffd6
   13200:	e2033a01 	and	r3, r3, #4096	; 0x1000
   13204:	e3530000 	cmp	r3, #0
   13208:	1a000003 	bne	1321c <target_thumb_ins+0x304>
   1320c:	e51b3020 	ldr	r3, [fp, #-32]	; 0xffffffe0
   13210:	e3c33003 	bic	r3, r3, #3
   13214:	e50b3020 	str	r3, [fp, #-32]	; 0xffffffe0
   13218:	ea000002 	b	13228 <target_thumb_ins+0x310>
   1321c:	e51b3020 	ldr	r3, [fp, #-32]	; 0xffffffe0
   13220:	e3833001 	orr	r3, r3, #1
   13224:	e50b3020 	str	r3, [fp, #-32]	; 0xffffffe0
   13228:	e51b3020 	ldr	r3, [fp, #-32]	; 0xffffffe0
   1322c:	e1a00003 	mov	r0, r3
   13230:	e24bd00c 	sub	sp, fp, #12
   13234:	e89d6800 	ldm	sp, {fp, sp, lr}
   13238:	e12fff1e 	bx	lr

0001323c <__single_step>:
   1323c:	e1a0c00d 	mov	ip, sp
   13240:	e92dd800 	push	{fp, ip, lr, pc}
   13244:	e24cb004 	sub	fp, ip, #4
   13248:	e24dd010 	sub	sp, sp, #16
   1324c:	e3a0000f 	mov	r0, #15
   13250:	ebfffb8b 	bl	12084 <get_register>
   13254:	e1a03000 	mov	r3, r0
   13258:	e50b301c 	str	r3, [fp, #-28]	; 0xffffffe4
   1325c:	e3a00019 	mov	r0, #25
   13260:	ebfffb87 	bl	12084 <get_register>
   13264:	e1a03000 	mov	r3, r0
   13268:	e50b3018 	str	r3, [fp, #-24]	; 0xffffffe8
   1326c:	e51b3018 	ldr	r3, [fp, #-24]	; 0xffffffe8
   13270:	e2033020 	and	r3, r3, #32
   13274:	e3530000 	cmp	r3, #0
   13278:	0a000008 	beq	132a0 <__single_step+0x64>
   1327c:	e51b301c 	ldr	r3, [fp, #-28]	; 0xffffffe4
   13280:	e1d330b0 	ldrh	r3, [r3]
   13284:	e51b001c 	ldr	r0, [fp, #-28]	; 0xffffffe4
   13288:	e1a01003 	mov	r1, r3
   1328c:	ebffff21 	bl	12f18 <target_thumb_ins>
   13290:	e1a02000 	mov	r2, r0
   13294:	e59f30dc 	ldr	r3, [pc, #220]	; 13378 <__single_step+0x13c>
   13298:	e5832000 	str	r2, [r3]
   1329c:	ea000014 	b	132f4 <__single_step+0xb8>
   132a0:	e51b301c 	ldr	r3, [fp, #-28]	; 0xffffffe4
   132a4:	e5933000 	ldr	r3, [r3]
   132a8:	e50b3014 	str	r3, [fp, #-20]	; 0xffffffec
   132ac:	e51b0014 	ldr	r0, [fp, #-20]	; 0xffffffec
   132b0:	ebfffc27 	bl	12354 <ins_will_execute>
   132b4:	e1a03000 	mov	r3, r0
   132b8:	e3530000 	cmp	r3, #0
   132bc:	0a000008 	beq	132e4 <__single_step+0xa8>
   132c0:	e51b301c 	ldr	r3, [fp, #-28]	; 0xffffffe4
   132c4:	e1a00003 	mov	r0, r3
   132c8:	e51b1014 	ldr	r1, [fp, #-20]	; 0xffffffec
   132cc:	ebfffd50 	bl	12814 <target_ins>
   132d0:	e1a03000 	mov	r3, r0
   132d4:	e1a02003 	mov	r2, r3
   132d8:	e59f3098 	ldr	r3, [pc, #152]	; 13378 <__single_step+0x13c>
   132dc:	e5832000 	str	r2, [r3]
   132e0:	ea000003 	b	132f4 <__single_step+0xb8>
   132e4:	e51b301c 	ldr	r3, [fp, #-28]	; 0xffffffe4
   132e8:	e2832004 	add	r2, r3, #4
   132ec:	e59f3084 	ldr	r3, [pc, #132]	; 13378 <__single_step+0x13c>
   132f0:	e5832000 	str	r2, [r3]
   132f4:	e59f307c 	ldr	r3, [pc, #124]	; 13378 <__single_step+0x13c>
   132f8:	e5933000 	ldr	r3, [r3]
   132fc:	e2033001 	and	r3, r3, #1
   13300:	e20330ff 	and	r3, r3, #255	; 0xff
   13304:	e3530000 	cmp	r3, #0
   13308:	0a00000c 	beq	13340 <__single_step+0x104>
   1330c:	e59f3064 	ldr	r3, [pc, #100]	; 13378 <__single_step+0x13c>
   13310:	e5933000 	ldr	r3, [r3]
   13314:	e3c33001 	bic	r3, r3, #1
   13318:	e50b3010 	str	r3, [fp, #-16]
   1331c:	e51b3010 	ldr	r3, [fp, #-16]
   13320:	e1d320b0 	ldrh	r2, [r3]
   13324:	e59f3050 	ldr	r3, [pc, #80]	; 1337c <__single_step+0x140>
   13328:	e1c320b0 	strh	r2, [r3]
   1332c:	e51b2010 	ldr	r2, [fp, #-16]
   13330:	e3e03c41 	mvn	r3, #16640	; 0x4100
   13334:	e2433041 	sub	r3, r3, #65	; 0x41
   13338:	e1c230b0 	strh	r3, [r2]
   1333c:	ea00000a 	b	1336c <__single_step+0x130>
   13340:	e59f3030 	ldr	r3, [pc, #48]	; 13378 <__single_step+0x13c>
   13344:	e5933000 	ldr	r3, [r3]
   13348:	e5932000 	ldr	r2, [r3]
   1334c:	e59f302c 	ldr	r3, [pc, #44]	; 13380 <__single_step+0x144>
   13350:	e5832000 	str	r2, [r3]
   13354:	e59f301c 	ldr	r3, [pc, #28]	; 13378 <__single_step+0x13c>
   13358:	e5933000 	ldr	r3, [r3]
   1335c:	e1a02003 	mov	r2, r3
   13360:	e3e03c21 	mvn	r3, #8448	; 0x2100
   13364:	e2433346 	sub	r3, r3, #402653185	; 0x18000001
   13368:	e5823000 	str	r3, [r2]
   1336c:	e24bd00c 	sub	sp, fp, #12
   13370:	e89d6800 	ldm	sp, {fp, sp, lr}
   13374:	e12fff1e 	bx	lr
   13378:	81004420 	.word	0x81004420
   1337c:	8100442c 	.word	0x8100442c
   13380:	81004428 	.word	0x81004428

00013384 <__clear_single_step>:
   13384:	e1a0c00d 	mov	ip, sp
   13388:	e92dd800 	push	{fp, ip, lr, pc}
   1338c:	e24cb004 	sub	fp, ip, #4
   13390:	e24dd008 	sub	sp, sp, #8
   13394:	e59f3074 	ldr	r3, [pc, #116]	; 13410 <__clear_single_step+0x8c>
   13398:	e5933000 	ldr	r3, [r3]
   1339c:	e3530000 	cmp	r3, #0
   133a0:	0a000017 	beq	13404 <__clear_single_step+0x80>
   133a4:	e59f3064 	ldr	r3, [pc, #100]	; 13410 <__clear_single_step+0x8c>
   133a8:	e5933000 	ldr	r3, [r3]
   133ac:	e2033001 	and	r3, r3, #1
   133b0:	e20330ff 	and	r3, r3, #255	; 0xff
   133b4:	e3530000 	cmp	r3, #0
   133b8:	0a000008 	beq	133e0 <__clear_single_step+0x5c>
   133bc:	e59f304c 	ldr	r3, [pc, #76]	; 13410 <__clear_single_step+0x8c>
   133c0:	e5933000 	ldr	r3, [r3]
   133c4:	e3c33001 	bic	r3, r3, #1
   133c8:	e50b3010 	str	r3, [fp, #-16]
   133cc:	e51b2010 	ldr	r2, [fp, #-16]
   133d0:	e59f303c 	ldr	r3, [pc, #60]	; 13414 <__clear_single_step+0x90>
   133d4:	e1d330b0 	ldrh	r3, [r3]
   133d8:	e1c230b0 	strh	r3, [r2]
   133dc:	ea000005 	b	133f8 <__clear_single_step+0x74>
   133e0:	e59f3028 	ldr	r3, [pc, #40]	; 13410 <__clear_single_step+0x8c>
   133e4:	e5933000 	ldr	r3, [r3]
   133e8:	e1a02003 	mov	r2, r3
   133ec:	e59f3024 	ldr	r3, [pc, #36]	; 13418 <__clear_single_step+0x94>
   133f0:	e5933000 	ldr	r3, [r3]
   133f4:	e5823000 	str	r3, [r2]
   133f8:	e59f2010 	ldr	r2, [pc, #16]	; 13410 <__clear_single_step+0x8c>
   133fc:	e3a03000 	mov	r3, #0
   13400:	e5823000 	str	r3, [r2]
   13404:	e24bd00c 	sub	sp, fp, #12
   13408:	e89d6800 	ldm	sp, {fp, sp, lr}
   1340c:	e12fff1e 	bx	lr
   13410:	81004420 	.word	0x81004420
   13414:	8100442c 	.word	0x8100442c
   13418:	81004428 	.word	0x81004428

0001341c <__install_breakpoints>:
   1341c:	e1a0c00d 	mov	ip, sp
   13420:	e92dd800 	push	{fp, ip, lr, pc}
   13424:	e24cb004 	sub	fp, ip, #4
   13428:	e24bd00c 	sub	sp, fp, #12
   1342c:	e89d6800 	ldm	sp, {fp, sp, lr}
   13430:	e12fff1e 	bx	lr

00013434 <__clear_breakpoints>:
   13434:	e1a0c00d 	mov	ip, sp
   13438:	e92dd800 	push	{fp, ip, lr, pc}
   1343c:	e24cb004 	sub	fp, ip, #4
   13440:	e24bd00c 	sub	sp, fp, #12
   13444:	e89d6800 	ldm	sp, {fp, sp, lr}
   13448:	e12fff1e 	bx	lr

0001344c <__is_breakpoint_function>:
   1344c:	e1a0c00d 	mov	ip, sp
   13450:	e92dd800 	push	{fp, ip, lr, pc}
   13454:	e24cb004 	sub	fp, ip, #4
   13458:	e3a0000f 	mov	r0, #15
   1345c:	ebfffb08 	bl	12084 <get_register>
   13460:	e1a02000 	mov	r2, r0
   13464:	e59f3018 	ldr	r3, [pc, #24]	; 13484 <__is_breakpoint_function+0x38>
   13468:	e1520003 	cmp	r2, r3
   1346c:	13a03000 	movne	r3, #0
   13470:	03a03001 	moveq	r3, #1
   13474:	e1a00003 	mov	r0, r3
   13478:	e24bd00c 	sub	sp, fp, #12
   1347c:	e89d6800 	ldm	sp, {fp, sp, lr}
   13480:	e12fff1e 	bx	lr
   13484:	0000536c 	.word	0x0000536c

00013488 <__skipinst>:
   13488:	e1a0c00d 	mov	ip, sp
   1348c:	e92dd800 	push	{fp, ip, lr, pc}
   13490:	e24cb004 	sub	fp, ip, #4
   13494:	e24dd008 	sub	sp, sp, #8
   13498:	e3a0000f 	mov	r0, #15
   1349c:	ebfffaf8 	bl	12084 <get_register>
   134a0:	e1a03000 	mov	r3, r0
   134a4:	e50b3014 	str	r3, [fp, #-20]	; 0xffffffec
   134a8:	e3a00019 	mov	r0, #25
   134ac:	ebfffaf4 	bl	12084 <get_register>
   134b0:	e1a03000 	mov	r3, r0
   134b4:	e50b3010 	str	r3, [fp, #-16]
   134b8:	e51b3010 	ldr	r3, [fp, #-16]
   134bc:	e2033020 	and	r3, r3, #32
   134c0:	e3530000 	cmp	r3, #0
   134c4:	0a000003 	beq	134d8 <__skipinst+0x50>
   134c8:	e51b3014 	ldr	r3, [fp, #-20]	; 0xffffffec
   134cc:	e2833002 	add	r3, r3, #2
   134d0:	e50b3014 	str	r3, [fp, #-20]	; 0xffffffec
   134d4:	ea000002 	b	134e4 <__skipinst+0x5c>
   134d8:	e51b3014 	ldr	r3, [fp, #-20]	; 0xffffffec
   134dc:	e2833004 	add	r3, r3, #4
   134e0:	e50b3014 	str	r3, [fp, #-20]	; 0xffffffec
   134e4:	e3a0000f 	mov	r0, #15
   134e8:	e51b1014 	ldr	r1, [fp, #-20]	; 0xffffffec
   134ec:	ebfffb0b 	bl	12120 <put_register>
   134f0:	e24bd00c 	sub	sp, fp, #12
   134f4:	e89d6800 	ldm	sp, {fp, sp, lr}
   134f8:	e12fff1e 	bx	lr

000134fc <cyg_hal_gdb_remove_break>:
   134fc:	e1a0c00d 	mov	ip, sp
   13500:	e92dd800 	push	{fp, ip, lr, pc}
   13504:	e24cb004 	sub	fp, ip, #4
   13508:	e24dd008 	sub	sp, sp, #8
   1350c:	e50b0010 	str	r0, [fp, #-16]
   13510:	e59f30ac 	ldr	r3, [pc, #172]	; 135c4 <cyg_hal_gdb_remove_break+0xc8>
   13514:	e5933000 	ldr	r3, [r3]
   13518:	e3530000 	cmp	r3, #0
   1351c:	0a000002 	beq	1352c <cyg_hal_gdb_remove_break+0x30>
   13520:	e3a03000 	mov	r3, #0
   13524:	e50b3014 	str	r3, [fp, #-20]	; 0xffffffec
   13528:	ea000020 	b	135b0 <cyg_hal_gdb_remove_break+0xb4>
   1352c:	e59f3094 	ldr	r3, [pc, #148]	; 135c8 <cyg_hal_gdb_remove_break+0xcc>
   13530:	e5933000 	ldr	r3, [r3]
   13534:	e3c32001 	bic	r2, r3, #1
   13538:	e51b3010 	ldr	r3, [fp, #-16]
   1353c:	e1520003 	cmp	r2, r3
   13540:	1a000018 	bne	135a8 <cyg_hal_gdb_remove_break+0xac>
   13544:	e59f307c 	ldr	r3, [pc, #124]	; 135c8 <cyg_hal_gdb_remove_break+0xcc>
   13548:	e5933000 	ldr	r3, [r3]
   1354c:	e2033001 	and	r3, r3, #1
   13550:	e20330ff 	and	r3, r3, #255	; 0xff
   13554:	e3530000 	cmp	r3, #0
   13558:	0a000004 	beq	13570 <cyg_hal_gdb_remove_break+0x74>
   1355c:	e51b3010 	ldr	r3, [fp, #-16]
   13560:	e59f2060 	ldr	r2, [pc, #96]	; 135c8 <cyg_hal_gdb_remove_break+0xcc>
   13564:	e1d220b4 	ldrh	r2, [r2, #4]
   13568:	e1c320b0 	strh	r2, [r3]
   1356c:	ea000003 	b	13580 <cyg_hal_gdb_remove_break+0x84>
   13570:	e51b3010 	ldr	r3, [fp, #-16]
   13574:	e59f204c 	ldr	r2, [pc, #76]	; 135c8 <cyg_hal_gdb_remove_break+0xcc>
   13578:	e5922004 	ldr	r2, [r2, #4]
   1357c:	e5832000 	str	r2, [r3]
   13580:	e59f2040 	ldr	r2, [pc, #64]	; 135c8 <cyg_hal_gdb_remove_break+0xcc>
   13584:	e3a03000 	mov	r3, #0
   13588:	e5823000 	str	r3, [r2]
   1358c:	e3a00003 	mov	r0, #3
   13590:	ebffda5b 	bl	9f04 <__data_cache>
   13594:	e3a00003 	mov	r0, #3
   13598:	ebffda40 	bl	9ea0 <__instruction_cache>
   1359c:	e3a03001 	mov	r3, #1
   135a0:	e50b3014 	str	r3, [fp, #-20]	; 0xffffffec
   135a4:	ea000001 	b	135b0 <cyg_hal_gdb_remove_break+0xb4>
   135a8:	e3a03000 	mov	r3, #0
   135ac:	e50b3014 	str	r3, [fp, #-20]	; 0xffffffec
   135b0:	e51b3014 	ldr	r3, [fp, #-20]	; 0xffffffec
   135b4:	e1a00003 	mov	r0, r3
   135b8:	e24bd00c 	sub	sp, fp, #12
   135bc:	e89d6800 	ldm	sp, {fp, sp, lr}
   135c0:	e12fff1e 	bx	lr
   135c4:	81004424 	.word	0x81004424
   135c8:	81004430 	.word	0x81004430

000135cc <cyg_hal_gdb_interrupt>:
   135cc:	e1a0c00d 	mov	ip, sp
   135d0:	e92dd800 	push	{fp, ip, lr, pc}
   135d4:	e24cb004 	sub	fp, ip, #4
   135d8:	e24dd010 	sub	sp, sp, #16
   135dc:	e50b0018 	str	r0, [fp, #-24]	; 0xffffffe8
   135e0:	e59f20d0 	ldr	r2, [pc, #208]	; 136b8 <cyg_hal_gdb_interrupt+0xec>
   135e4:	e3a03000 	mov	r3, #0
   135e8:	e5823000 	str	r3, [r2]
   135ec:	e59f30c8 	ldr	r3, [pc, #200]	; 136bc <cyg_hal_gdb_interrupt+0xf0>
   135f0:	e5933000 	ldr	r3, [r3]
   135f4:	e3530000 	cmp	r3, #0
   135f8:	0a000003 	beq	1360c <cyg_hal_gdb_interrupt+0x40>
   135fc:	e59f30b8 	ldr	r3, [pc, #184]	; 136bc <cyg_hal_gdb_interrupt+0xf0>
   13600:	e5933000 	ldr	r3, [r3]
   13604:	e1a00003 	mov	r0, r3
   13608:	ebffffbb 	bl	134fc <cyg_hal_gdb_remove_break>
   1360c:	e59f30a8 	ldr	r3, [pc, #168]	; 136bc <cyg_hal_gdb_interrupt+0xf0>
   13610:	e5933000 	ldr	r3, [r3]
   13614:	e3530000 	cmp	r3, #0
   13618:	1a000023 	bne	136ac <cyg_hal_gdb_interrupt+0xe0>
   1361c:	e3a00019 	mov	r0, #25
   13620:	ebfffa97 	bl	12084 <get_register>
   13624:	e1a03000 	mov	r3, r0
   13628:	e50b3010 	str	r3, [fp, #-16]
   1362c:	e51b3010 	ldr	r3, [fp, #-16]
   13630:	e2033020 	and	r3, r3, #32
   13634:	e3530000 	cmp	r3, #0
   13638:	0a00000c 	beq	13670 <cyg_hal_gdb_interrupt+0xa4>
   1363c:	e51b3018 	ldr	r3, [fp, #-24]	; 0xffffffe8
   13640:	e3832001 	orr	r2, r3, #1
   13644:	e59f3070 	ldr	r3, [pc, #112]	; 136bc <cyg_hal_gdb_interrupt+0xf0>
   13648:	e5832000 	str	r2, [r3]
   1364c:	e51b3018 	ldr	r3, [fp, #-24]	; 0xffffffe8
   13650:	e1d320b0 	ldrh	r2, [r3]
   13654:	e59f3060 	ldr	r3, [pc, #96]	; 136bc <cyg_hal_gdb_interrupt+0xf0>
   13658:	e1c320b4 	strh	r2, [r3, #4]
   1365c:	e51b2018 	ldr	r2, [fp, #-24]	; 0xffffffe8
   13660:	e3e03c41 	mvn	r3, #16640	; 0x4100
   13664:	e2433041 	sub	r3, r3, #65	; 0x41
   13668:	e1c230b0 	strh	r3, [r2]
   1366c:	ea00000a 	b	1369c <cyg_hal_gdb_interrupt+0xd0>
   13670:	e59f2044 	ldr	r2, [pc, #68]	; 136bc <cyg_hal_gdb_interrupt+0xf0>
   13674:	e51b3018 	ldr	r3, [fp, #-24]	; 0xffffffe8
   13678:	e5823000 	str	r3, [r2]
   1367c:	e51b3018 	ldr	r3, [fp, #-24]	; 0xffffffe8
   13680:	e5932000 	ldr	r2, [r3]
   13684:	e59f3030 	ldr	r3, [pc, #48]	; 136bc <cyg_hal_gdb_interrupt+0xf0>
   13688:	e5832004 	str	r2, [r3, #4]
   1368c:	e51b2018 	ldr	r2, [fp, #-24]	; 0xffffffe8
   13690:	e3e03c21 	mvn	r3, #8448	; 0x2100
   13694:	e2433346 	sub	r3, r3, #402653185	; 0x18000001
   13698:	e5823000 	str	r3, [r2]
   1369c:	e3a00003 	mov	r0, #3
   136a0:	ebffda17 	bl	9f04 <__data_cache>
   136a4:	e3a00003 	mov	r0, #3
   136a8:	ebffd9fc 	bl	9ea0 <__instruction_cache>
   136ac:	e24bd00c 	sub	sp, fp, #12
   136b0:	e89d6800 	ldm	sp, {fp, sp, lr}
   136b4:	e12fff1e 	bx	lr
   136b8:	81004424 	.word	0x81004424
   136bc:	81004430 	.word	0x81004430

000136c0 <cyg_hal_gdb_break_is_set>:
   136c0:	e1a0c00d 	mov	ip, sp
   136c4:	e92dd800 	push	{fp, ip, lr, pc}
   136c8:	e24cb004 	sub	fp, ip, #4
   136cc:	e24dd008 	sub	sp, sp, #8
   136d0:	e59f3030 	ldr	r3, [pc, #48]	; 13708 <cyg_hal_gdb_break_is_set+0x48>
   136d4:	e5933000 	ldr	r3, [r3]
   136d8:	e3530000 	cmp	r3, #0
   136dc:	0a000002 	beq	136ec <cyg_hal_gdb_break_is_set+0x2c>
   136e0:	e3a03001 	mov	r3, #1
   136e4:	e50b3010 	str	r3, [fp, #-16]
   136e8:	ea000001 	b	136f4 <cyg_hal_gdb_break_is_set+0x34>
   136ec:	e3a03000 	mov	r3, #0
   136f0:	e50b3010 	str	r3, [fp, #-16]
   136f4:	e51b3010 	ldr	r3, [fp, #-16]
   136f8:	e1a00003 	mov	r0, r3
   136fc:	e24bd00c 	sub	sp, fp, #12
   13700:	e89d6800 	ldm	sp, {fp, sp, lr}
   13704:	e12fff1e 	bx	lr
   13708:	81004430 	.word	0x81004430

0001370c <cyg_hal_plf_serial_init_channel>:
   1370c:	e1a0c00d 	mov	ip, sp
   13710:	e92dd800 	push	{fp, ip, lr, pc}
   13714:	e24cb004 	sub	fp, ip, #4
   13718:	e24dd018 	sub	sp, sp, #24
   1371c:	e50b0020 	str	r0, [fp, #-32]	; 0xffffffe0
   13720:	e51b3020 	ldr	r3, [fp, #-32]	; 0xffffffe0
   13724:	e50b3018 	str	r3, [fp, #-24]	; 0xffffffe8
   13728:	e51b3018 	ldr	r3, [fp, #-24]	; 0xffffffe8
   1372c:	e5933000 	ldr	r3, [r3]
   13730:	e50b3014 	str	r3, [fp, #-20]	; 0xffffffec
   13734:	e51b3018 	ldr	r3, [fp, #-24]	; 0xffffffe8
   13738:	e593300c 	ldr	r3, [r3, #12]
   1373c:	e1a03203 	lsl	r3, r3, #4
   13740:	e3a007e5 	mov	r0, #60030976	; 0x3940000
   13744:	e2400c79 	sub	r0, r0, #30976	; 0x7900
   13748:	e1a01003 	mov	r1, r3
   1374c:	eb0001fc 	bl	13f44 <__aeabi_idiv>
   13750:	e1a03000 	mov	r3, r0
   13754:	e14b30be 	strh	r3, [fp, #-14]
   13758:	e51b3014 	ldr	r3, [fp, #-20]	; 0xffffffec
   1375c:	e283200c 	add	r2, r3, #12
   13760:	e3a03080 	mov	r3, #128	; 0x80
   13764:	e5823000 	str	r3, [r2]
   13768:	e51b3014 	ldr	r3, [fp, #-20]	; 0xffffffec
   1376c:	e2832004 	add	r2, r3, #4
   13770:	e15b30be 	ldrh	r3, [fp, #-14]
   13774:	e1a03423 	lsr	r3, r3, #8
   13778:	e1a03803 	lsl	r3, r3, #16
   1377c:	e1a03823 	lsr	r3, r3, #16
   13780:	e5823000 	str	r3, [r2]
   13784:	e51b2014 	ldr	r2, [fp, #-20]	; 0xffffffec
   13788:	e15b30be 	ldrh	r3, [fp, #-14]
   1378c:	e20330ff 	and	r3, r3, #255	; 0xff
   13790:	e5823000 	str	r3, [r2]
   13794:	e51b3014 	ldr	r3, [fp, #-20]	; 0xffffffec
   13798:	e283200c 	add	r2, r3, #12
   1379c:	e3a03003 	mov	r3, #3
   137a0:	e5823000 	str	r3, [r2]
   137a4:	e51b3014 	ldr	r3, [fp, #-20]	; 0xffffffec
   137a8:	e2832008 	add	r2, r3, #8
   137ac:	e3a03007 	mov	r3, #7
   137b0:	e5823000 	str	r3, [r2]
   137b4:	e24bd00c 	sub	sp, fp, #12
   137b8:	e89d6800 	ldm	sp, {fp, sp, lr}
   137bc:	e12fff1e 	bx	lr

000137c0 <cyg_hal_plf_serial_putc>:
   137c0:	e1a0c00d 	mov	ip, sp
   137c4:	e92dd800 	push	{fp, ip, lr, pc}
   137c8:	e24cb004 	sub	fp, ip, #4
   137cc:	e24dd010 	sub	sp, sp, #16
   137d0:	e50b0018 	str	r0, [fp, #-24]	; 0xffffffe8
   137d4:	e1a03001 	mov	r3, r1
   137d8:	e54b3019 	strb	r3, [fp, #-25]	; 0xffffffe7
   137dc:	e51b3018 	ldr	r3, [fp, #-24]	; 0xffffffe8
   137e0:	e5933000 	ldr	r3, [r3]
   137e4:	e50b3014 	str	r3, [fp, #-20]	; 0xffffffec
   137e8:	e51b3014 	ldr	r3, [fp, #-20]	; 0xffffffec
   137ec:	e2833014 	add	r3, r3, #20
   137f0:	e5933000 	ldr	r3, [r3]
   137f4:	e54b300d 	strb	r3, [fp, #-13]
   137f8:	e55b300d 	ldrb	r3, [fp, #-13]
   137fc:	e2033020 	and	r3, r3, #32
   13800:	e3530000 	cmp	r3, #0
   13804:	0afffff7 	beq	137e8 <cyg_hal_plf_serial_putc+0x28>
   13808:	e51b2014 	ldr	r2, [fp, #-20]	; 0xffffffec
   1380c:	e55b3019 	ldrb	r3, [fp, #-25]	; 0xffffffe7
   13810:	e5823000 	str	r3, [r2]
   13814:	e24bd00c 	sub	sp, fp, #12
   13818:	e89d6800 	ldm	sp, {fp, sp, lr}
   1381c:	e12fff1e 	bx	lr

00013820 <cyg_hal_plf_serial_getc_nonblock>:
   13820:	e1a0c00d 	mov	ip, sp
   13824:	e92dd800 	push	{fp, ip, lr, pc}
   13828:	e24cb004 	sub	fp, ip, #4
   1382c:	e24dd020 	sub	sp, sp, #32
   13830:	e50b0020 	str	r0, [fp, #-32]	; 0xffffffe0
   13834:	e50b1024 	str	r1, [fp, #-36]	; 0xffffffdc
   13838:	e51b3020 	ldr	r3, [fp, #-32]	; 0xffffffe0
   1383c:	e50b3018 	str	r3, [fp, #-24]	; 0xffffffe8
   13840:	e51b3018 	ldr	r3, [fp, #-24]	; 0xffffffe8
   13844:	e5933000 	ldr	r3, [r3]
   13848:	e50b3014 	str	r3, [fp, #-20]	; 0xffffffec
   1384c:	e51b3014 	ldr	r3, [fp, #-20]	; 0xffffffec
   13850:	e2833014 	add	r3, r3, #20
   13854:	e5933000 	ldr	r3, [r3]
   13858:	e54b300d 	strb	r3, [fp, #-13]
   1385c:	e55b300d 	ldrb	r3, [fp, #-13]
   13860:	e2033001 	and	r3, r3, #1
   13864:	e3530000 	cmp	r3, #0
   13868:	1a000002 	bne	13878 <cyg_hal_plf_serial_getc_nonblock+0x58>
   1386c:	e3a03000 	mov	r3, #0
   13870:	e50b3028 	str	r3, [fp, #-40]	; 0xffffffd8
   13874:	ea000006 	b	13894 <cyg_hal_plf_serial_getc_nonblock+0x74>
   13878:	e51b3014 	ldr	r3, [fp, #-20]	; 0xffffffec
   1387c:	e5933000 	ldr	r3, [r3]
   13880:	e20330ff 	and	r3, r3, #255	; 0xff
   13884:	e51b2024 	ldr	r2, [fp, #-36]	; 0xffffffdc
   13888:	e5c23000 	strb	r3, [r2]
   1388c:	e3a03001 	mov	r3, #1
   13890:	e50b3028 	str	r3, [fp, #-40]	; 0xffffffd8
   13894:	e51b3028 	ldr	r3, [fp, #-40]	; 0xffffffd8
   13898:	e1a00003 	mov	r0, r3
   1389c:	e24bd00c 	sub	sp, fp, #12
   138a0:	e89d6800 	ldm	sp, {fp, sp, lr}
   138a4:	e12fff1e 	bx	lr

000138a8 <cyg_hal_plf_serial_getc>:
   138a8:	e1a0c00d 	mov	ip, sp
   138ac:	e92dd800 	push	{fp, ip, lr, pc}
   138b0:	e24cb004 	sub	fp, ip, #4
   138b4:	e24dd010 	sub	sp, sp, #16
   138b8:	e50b0018 	str	r0, [fp, #-24]	; 0xffffffe8
   138bc:	e24b300d 	sub	r3, fp, #13
   138c0:	e51b0018 	ldr	r0, [fp, #-24]	; 0xffffffe8
   138c4:	e1a01003 	mov	r1, r3
   138c8:	ebffffd4 	bl	13820 <cyg_hal_plf_serial_getc_nonblock>
   138cc:	e1a03000 	mov	r3, r0
   138d0:	e3530000 	cmp	r3, #0
   138d4:	0afffff8 	beq	138bc <cyg_hal_plf_serial_getc+0x14>
   138d8:	e55b300d 	ldrb	r3, [fp, #-13]
   138dc:	e1a00003 	mov	r0, r3
   138e0:	e24bd00c 	sub	sp, fp, #12
   138e4:	e89d6800 	ldm	sp, {fp, sp, lr}
   138e8:	e12fff1e 	bx	lr

000138ec <cyg_hal_plf_serial_write>:
   138ec:	e1a0c00d 	mov	ip, sp
   138f0:	e92dd800 	push	{fp, ip, lr, pc}
   138f4:	e24cb004 	sub	fp, ip, #4
   138f8:	e24dd010 	sub	sp, sp, #16
   138fc:	e50b0010 	str	r0, [fp, #-16]
   13900:	e50b1014 	str	r1, [fp, #-20]	; 0xffffffec
   13904:	e50b2018 	str	r2, [fp, #-24]	; 0xffffffe8
   13908:	ea000007 	b	1392c <cyg_hal_plf_serial_write+0x40>
   1390c:	e51b3014 	ldr	r3, [fp, #-20]	; 0xffffffec
   13910:	e5d32000 	ldrb	r2, [r3]
   13914:	e51b3014 	ldr	r3, [fp, #-20]	; 0xffffffec
   13918:	e2833001 	add	r3, r3, #1
   1391c:	e50b3014 	str	r3, [fp, #-20]	; 0xffffffec
   13920:	e51b0010 	ldr	r0, [fp, #-16]
   13924:	e1a01002 	mov	r1, r2
   13928:	ebffffa4 	bl	137c0 <cyg_hal_plf_serial_putc>
   1392c:	e51b3018 	ldr	r3, [fp, #-24]	; 0xffffffe8
   13930:	e3530000 	cmp	r3, #0
   13934:	03a03000 	moveq	r3, #0
   13938:	13a03001 	movne	r3, #1
   1393c:	e20320ff 	and	r2, r3, #255	; 0xff
   13940:	e51b3018 	ldr	r3, [fp, #-24]	; 0xffffffe8
   13944:	e2433001 	sub	r3, r3, #1
   13948:	e50b3018 	str	r3, [fp, #-24]	; 0xffffffe8
   1394c:	e3520000 	cmp	r2, #0
   13950:	1affffed 	bne	1390c <cyg_hal_plf_serial_write+0x20>
   13954:	e24bd00c 	sub	sp, fp, #12
   13958:	e89d6800 	ldm	sp, {fp, sp, lr}
   1395c:	e12fff1e 	bx	lr

00013960 <cyg_hal_plf_serial_read>:
   13960:	e1a0c00d 	mov	ip, sp
   13964:	e92dd800 	push	{fp, ip, lr, pc}
   13968:	e24cb004 	sub	fp, ip, #4
   1396c:	e24dd010 	sub	sp, sp, #16
   13970:	e50b0010 	str	r0, [fp, #-16]
   13974:	e50b1014 	str	r1, [fp, #-20]	; 0xffffffec
   13978:	e50b2018 	str	r2, [fp, #-24]	; 0xffffffe8
   1397c:	ea000007 	b	139a0 <cyg_hal_plf_serial_read+0x40>
   13980:	e51b0010 	ldr	r0, [fp, #-16]
   13984:	ebffffc7 	bl	138a8 <cyg_hal_plf_serial_getc>
   13988:	e1a03000 	mov	r3, r0
   1398c:	e51b2014 	ldr	r2, [fp, #-20]	; 0xffffffec
   13990:	e5c23000 	strb	r3, [r2]
   13994:	e51b3014 	ldr	r3, [fp, #-20]	; 0xffffffec
   13998:	e2833001 	add	r3, r3, #1
   1399c:	e50b3014 	str	r3, [fp, #-20]	; 0xffffffec
   139a0:	e51b3018 	ldr	r3, [fp, #-24]	; 0xffffffe8
   139a4:	e3530000 	cmp	r3, #0
   139a8:	03a03000 	moveq	r3, #0
   139ac:	13a03001 	movne	r3, #1
   139b0:	e20320ff 	and	r2, r3, #255	; 0xff
   139b4:	e51b3018 	ldr	r3, [fp, #-24]	; 0xffffffe8
   139b8:	e2433001 	sub	r3, r3, #1
   139bc:	e50b3018 	str	r3, [fp, #-24]	; 0xffffffe8
   139c0:	e3520000 	cmp	r2, #0
   139c4:	1affffed 	bne	13980 <cyg_hal_plf_serial_read+0x20>
   139c8:	e24bd00c 	sub	sp, fp, #12
   139cc:	e89d6800 	ldm	sp, {fp, sp, lr}
   139d0:	e12fff1e 	bx	lr

000139d4 <cyg_hal_plf_serial_getc_timeout>:
   139d4:	e1a0c00d 	mov	ip, sp
   139d8:	e92dd800 	push	{fp, ip, lr, pc}
   139dc:	e24cb004 	sub	fp, ip, #4
   139e0:	e24dd018 	sub	sp, sp, #24
   139e4:	e50b0020 	str	r0, [fp, #-32]	; 0xffffffe0
   139e8:	e50b1024 	str	r1, [fp, #-36]	; 0xffffffdc
   139ec:	e51b3020 	ldr	r3, [fp, #-32]	; 0xffffffe0
   139f0:	e50b3014 	str	r3, [fp, #-20]	; 0xffffffec
   139f4:	e51b3014 	ldr	r3, [fp, #-20]	; 0xffffffec
   139f8:	e5933004 	ldr	r3, [r3, #4]
   139fc:	e1a02083 	lsl	r2, r3, #1
   13a00:	e1a03102 	lsl	r3, r2, #2
   13a04:	e0823003 	add	r3, r2, r3
   13a08:	e50b3018 	str	r3, [fp, #-24]	; 0xffffffe8
   13a0c:	e51b0020 	ldr	r0, [fp, #-32]	; 0xffffffe0
   13a10:	e51b1024 	ldr	r1, [fp, #-36]	; 0xffffffdc
   13a14:	ebffff81 	bl	13820 <cyg_hal_plf_serial_getc_nonblock>
   13a18:	e1a03000 	mov	r3, r0
   13a1c:	e50b3010 	str	r3, [fp, #-16]
   13a20:	e51b3010 	ldr	r3, [fp, #-16]
   13a24:	e3530000 	cmp	r3, #0
   13a28:	1a00000c 	bne	13a60 <cyg_hal_plf_serial_getc_timeout+0x8c>
   13a2c:	e51b3018 	ldr	r3, [fp, #-24]	; 0xffffffe8
   13a30:	e3530000 	cmp	r3, #0
   13a34:	13a03000 	movne	r3, #0
   13a38:	03a03001 	moveq	r3, #1
   13a3c:	e20320ff 	and	r2, r3, #255	; 0xff
   13a40:	e51b3018 	ldr	r3, [fp, #-24]	; 0xffffffe8
   13a44:	e2433001 	sub	r3, r3, #1
   13a48:	e50b3018 	str	r3, [fp, #-24]	; 0xffffffe8
   13a4c:	e3520000 	cmp	r2, #0
   13a50:	1a000002 	bne	13a60 <cyg_hal_plf_serial_getc_timeout+0x8c>
   13a54:	e3a00064 	mov	r0, #100	; 0x64
   13a58:	eb000005 	bl	13a74 <__call_vv_CYGNUM_CALL_IF_DELAY_US>
   13a5c:	eaffffea 	b	13a0c <cyg_hal_plf_serial_getc_timeout+0x38>
   13a60:	e51b3010 	ldr	r3, [fp, #-16]
   13a64:	e1a00003 	mov	r0, r3
   13a68:	e24bd00c 	sub	sp, fp, #12
   13a6c:	e89d6800 	ldm	sp, {fp, sp, lr}
   13a70:	e12fff1e 	bx	lr

00013a74 <__call_vv_CYGNUM_CALL_IF_DELAY_US>:
   13a74:	e1a0c00d 	mov	ip, sp
   13a78:	e92dd800 	push	{fp, ip, lr, pc}
   13a7c:	e24cb004 	sub	fp, ip, #4
   13a80:	e24dd008 	sub	sp, sp, #8
   13a84:	e50b0010 	str	r0, [fp, #-16]
   13a88:	e59f3018 	ldr	r3, [pc, #24]	; 13aa8 <__call_vv_CYGNUM_CALL_IF_DELAY_US+0x34>
   13a8c:	e5933048 	ldr	r3, [r3, #72]	; 0x48
   13a90:	e51b0010 	ldr	r0, [fp, #-16]
   13a94:	e1a0e00f 	mov	lr, pc
   13a98:	e12fff13 	bx	r3
   13a9c:	e24bd00c 	sub	sp, fp, #12
   13aa0:	e89d6800 	ldm	sp, {fp, sp, lr}
   13aa4:	e12fff1e 	bx	lr
   13aa8:	40000050 	.word	0x40000050

00013aac <cyg_hal_plf_serial_control>:
   13aac:	e1a0c00d 	mov	ip, sp
   13ab0:	e92d000e 	push	{r1, r2, r3}
   13ab4:	e92dd800 	push	{fp, ip, lr, pc}
   13ab8:	e24cb010 	sub	fp, ip, #16
   13abc:	e24dd01c 	sub	sp, sp, #28
   13ac0:	e50b0024 	str	r0, [fp, #-36]	; 0xffffffdc
   13ac4:	e51b3024 	ldr	r3, [fp, #-36]	; 0xffffffdc
   13ac8:	e50b301c 	str	r3, [fp, #-28]	; 0xffffffe4
   13acc:	e51b3024 	ldr	r3, [fp, #-36]	; 0xffffffdc
   13ad0:	e5933000 	ldr	r3, [r3]
   13ad4:	e50b3018 	str	r3, [fp, #-24]	; 0xffffffe8
   13ad8:	e3a03000 	mov	r3, #0
   13adc:	e50b3014 	str	r3, [fp, #-20]	; 0xffffffec
   13ae0:	e28b3008 	add	r3, fp, #8
   13ae4:	e50b3020 	str	r3, [fp, #-32]	; 0xffffffe0
   13ae8:	e5db3004 	ldrb	r3, [fp, #4]
   13aec:	e3530007 	cmp	r3, #7
   13af0:	979ff103 	ldrls	pc, [pc, r3, lsl #2]
   13af4:	ea000045 	b	13c10 <cyg_hal_plf_serial_control+0x164>
   13af8:	00013b28 	.word	0x00013b28
   13afc:	00013b18 	.word	0x00013b18
   13b00:	00013c10 	.word	0x00013c10
   13b04:	00013c10 	.word	0x00013c10
   13b08:	00013b98 	.word	0x00013b98
   13b0c:	00013b58 	.word	0x00013b58
   13b10:	00013bd4 	.word	0x00013bd4
   13b14:	00013be4 	.word	0x00013be4
   13b18:	e51b301c 	ldr	r3, [fp, #-28]	; 0xffffffe4
   13b1c:	e593300c 	ldr	r3, [r3, #12]
   13b20:	e50b3014 	str	r3, [fp, #-20]	; 0xffffffec
   13b24:	ea000039 	b	13c10 <cyg_hal_plf_serial_control+0x164>
   13b28:	e51b2020 	ldr	r2, [fp, #-32]	; 0xffffffe0
   13b2c:	e2823004 	add	r3, r2, #4
   13b30:	e50b3020 	str	r3, [fp, #-32]	; 0xffffffe0
   13b34:	e1a03002 	mov	r3, r2
   13b38:	e5932000 	ldr	r2, [r3]
   13b3c:	e51b301c 	ldr	r3, [fp, #-28]	; 0xffffffe4
   13b40:	e583200c 	str	r2, [r3, #12]
   13b44:	e51b001c 	ldr	r0, [fp, #-28]	; 0xffffffe4
   13b48:	ebfffeef 	bl	1370c <cyg_hal_plf_serial_init_channel>
   13b4c:	e3a03000 	mov	r3, #0
   13b50:	e50b3014 	str	r3, [fp, #-20]	; 0xffffffec
   13b54:	ea00002d 	b	13c10 <cyg_hal_plf_serial_control+0x164>
   13b58:	e59f20c4 	ldr	r2, [pc, #196]	; 13c24 <cyg_hal_plf_serial_control+0x178>
   13b5c:	e3a03001 	mov	r3, #1
   13b60:	e5823000 	str	r3, [r2]
   13b64:	e51b301c 	ldr	r3, [fp, #-28]	; 0xffffffe4
   13b68:	e5933008 	ldr	r3, [r3, #8]
   13b6c:	e1a00003 	mov	r0, r3
   13b70:	ebffc6bc 	bl	5668 <hal_interrupt_acknowledge>
   13b74:	e51b301c 	ldr	r3, [fp, #-28]	; 0xffffffe4
   13b78:	e5933008 	ldr	r3, [r3, #8]
   13b7c:	e1a00003 	mov	r0, r3
   13b80:	ebffc6aa 	bl	5630 <hal_interrupt_unmask>
   13b84:	e51b3018 	ldr	r3, [fp, #-24]	; 0xffffffe8
   13b88:	e2832004 	add	r2, r3, #4
   13b8c:	e3a03001 	mov	r3, #1
   13b90:	e5823000 	str	r3, [r2]
   13b94:	ea00001d 	b	13c10 <cyg_hal_plf_serial_control+0x164>
   13b98:	e59f3084 	ldr	r3, [pc, #132]	; 13c24 <cyg_hal_plf_serial_control+0x178>
   13b9c:	e5933000 	ldr	r3, [r3]
   13ba0:	e50b3014 	str	r3, [fp, #-20]	; 0xffffffec
   13ba4:	e59f2078 	ldr	r2, [pc, #120]	; 13c24 <cyg_hal_plf_serial_control+0x178>
   13ba8:	e3a03000 	mov	r3, #0
   13bac:	e5823000 	str	r3, [r2]
   13bb0:	e51b301c 	ldr	r3, [fp, #-28]	; 0xffffffe4
   13bb4:	e5933008 	ldr	r3, [r3, #8]
   13bb8:	e1a00003 	mov	r0, r3
   13bbc:	ebffc68d 	bl	55f8 <hal_interrupt_mask>
   13bc0:	e51b3018 	ldr	r3, [fp, #-24]	; 0xffffffe8
   13bc4:	e2832004 	add	r2, r3, #4
   13bc8:	e3a03000 	mov	r3, #0
   13bcc:	e5823000 	str	r3, [r2]
   13bd0:	ea00000e 	b	13c10 <cyg_hal_plf_serial_control+0x164>
   13bd4:	e51b301c 	ldr	r3, [fp, #-28]	; 0xffffffe4
   13bd8:	e5933008 	ldr	r3, [r3, #8]
   13bdc:	e50b3014 	str	r3, [fp, #-20]	; 0xffffffec
   13be0:	ea00000a 	b	13c10 <cyg_hal_plf_serial_control+0x164>
   13be4:	e51b301c 	ldr	r3, [fp, #-28]	; 0xffffffe4
   13be8:	e5933004 	ldr	r3, [r3, #4]
   13bec:	e50b3014 	str	r3, [fp, #-20]	; 0xffffffec
   13bf0:	e51b2020 	ldr	r2, [fp, #-32]	; 0xffffffe0
   13bf4:	e2823004 	add	r3, r2, #4
   13bf8:	e50b3020 	str	r3, [fp, #-32]	; 0xffffffe0
   13bfc:	e1a03002 	mov	r3, r2
   13c00:	e5933000 	ldr	r3, [r3]
   13c04:	e1a02003 	mov	r2, r3
   13c08:	e51b301c 	ldr	r3, [fp, #-28]	; 0xffffffe4
   13c0c:	e5832004 	str	r2, [r3, #4]
   13c10:	e51b3014 	ldr	r3, [fp, #-20]	; 0xffffffec
   13c14:	e1a00003 	mov	r0, r3
   13c18:	e24bd00c 	sub	sp, fp, #12
   13c1c:	e89d6800 	ldm	sp, {fp, sp, lr}
   13c20:	e12fff1e 	bx	lr
   13c24:	81004438 	.word	0x81004438

00013c28 <cyg_hal_plf_serial_isr>:
   13c28:	e1a0c00d 	mov	ip, sp
   13c2c:	e92dd800 	push	{fp, ip, lr, pc}
   13c30:	e24cb004 	sub	fp, ip, #4
   13c34:	e24dd020 	sub	sp, sp, #32
   13c38:	e50b0020 	str	r0, [fp, #-32]	; 0xffffffe0
   13c3c:	e50b1024 	str	r1, [fp, #-36]	; 0xffffffdc
   13c40:	e50b2028 	str	r2, [fp, #-40]	; 0xffffffd8
   13c44:	e50b302c 	str	r3, [fp, #-44]	; 0xffffffd4
   13c48:	e3a03000 	mov	r3, #0
   13c4c:	e50b3018 	str	r3, [fp, #-24]	; 0xffffffe8
   13c50:	e51b3020 	ldr	r3, [fp, #-32]	; 0xffffffe0
   13c54:	e50b3014 	str	r3, [fp, #-20]	; 0xffffffec
   13c58:	e51b2024 	ldr	r2, [fp, #-36]	; 0xffffffdc
   13c5c:	e3a03000 	mov	r3, #0
   13c60:	e5823000 	str	r3, [r2]
   13c64:	e51b3014 	ldr	r3, [fp, #-20]	; 0xffffffec
   13c68:	e5933000 	ldr	r3, [r3]
   13c6c:	e2833008 	add	r3, r3, #8
   13c70:	e5933000 	ldr	r3, [r3]
   13c74:	e54b300d 	strb	r3, [fp, #-13]
   13c78:	e55b300d 	ldrb	r3, [fp, #-13]
   13c7c:	e2033007 	and	r3, r3, #7
   13c80:	e3530004 	cmp	r3, #4
   13c84:	1a000010 	bne	13ccc <cyg_hal_plf_serial_isr+0xa4>
   13c88:	e51b3014 	ldr	r3, [fp, #-20]	; 0xffffffec
   13c8c:	e5933000 	ldr	r3, [r3]
   13c90:	e5933000 	ldr	r3, [r3]
   13c94:	e20330ff 	and	r3, r3, #255	; 0xff
   13c98:	e54b3019 	strb	r3, [fp, #-25]	; 0xffffffe7
   13c9c:	e24b3019 	sub	r3, fp, #25
   13ca0:	e1a00003 	mov	r0, r3
   13ca4:	e3a01001 	mov	r1, #1
   13ca8:	ebffddb9 	bl	b394 <cyg_hal_is_break>
   13cac:	e1a03000 	mov	r3, r0
   13cb0:	e3530000 	cmp	r3, #0
   13cb4:	0a000002 	beq	13cc4 <cyg_hal_plf_serial_isr+0x9c>
   13cb8:	e51b2024 	ldr	r2, [fp, #-36]	; 0xffffffdc
   13cbc:	e3a03001 	mov	r3, #1
   13cc0:	e5823000 	str	r3, [r2]
   13cc4:	e3a03001 	mov	r3, #1
   13cc8:	e50b3018 	str	r3, [fp, #-24]	; 0xffffffe8
   13ccc:	e51b3014 	ldr	r3, [fp, #-20]	; 0xffffffec
   13cd0:	e5933008 	ldr	r3, [r3, #8]
   13cd4:	e1a00003 	mov	r0, r3
   13cd8:	ebffc662 	bl	5668 <hal_interrupt_acknowledge>
   13cdc:	e51b3018 	ldr	r3, [fp, #-24]	; 0xffffffe8
   13ce0:	e1a00003 	mov	r0, r3
   13ce4:	e24bd00c 	sub	sp, fp, #12
   13ce8:	e89d6800 	ldm	sp, {fp, sp, lr}
   13cec:	e12fff1e 	bx	lr

00013cf0 <cyg_hal_plf_serial_init>:
   13cf0:	e1a0c00d 	mov	ip, sp
   13cf4:	e92dd800 	push	{fp, ip, lr, pc}
   13cf8:	e24cb004 	sub	fp, ip, #4
   13cfc:	e24dd008 	sub	sp, sp, #8
   13d00:	e3e00000 	mvn	r0, #0
   13d04:	eb000037 	bl	13de8 <__call_vv_CYGNUM_CALL_IF_SET_CONSOLE_COMM>
   13d08:	e1a03000 	mov	r3, r0
   13d0c:	e50b3010 	str	r3, [fp, #-16]
   13d10:	e59f0088 	ldr	r0, [pc, #136]	; 13da0 <cyg_hal_plf_serial_init+0xb0>
   13d14:	ebfffe7c 	bl	1370c <cyg_hal_plf_serial_init_channel>
   13d18:	e3a00000 	mov	r0, #0
   13d1c:	eb000031 	bl	13de8 <__call_vv_CYGNUM_CALL_IF_SET_CONSOLE_COMM>
   13d20:	eb000026 	bl	13dc0 <__call_vv_CYGNUM_CALL_IF_CONSOLE_PROCS>
   13d24:	e1a03000 	mov	r3, r0
   13d28:	e50b3014 	str	r3, [fp, #-20]	; 0xffffffec
   13d2c:	e59f206c 	ldr	r2, [pc, #108]	; 13da0 <cyg_hal_plf_serial_init+0xb0>
   13d30:	e51b3014 	ldr	r3, [fp, #-20]	; 0xffffffec
   13d34:	e5832000 	str	r2, [r3]
   13d38:	e59f2064 	ldr	r2, [pc, #100]	; 13da4 <cyg_hal_plf_serial_init+0xb4>
   13d3c:	e51b3014 	ldr	r3, [fp, #-20]	; 0xffffffec
   13d40:	e5832004 	str	r2, [r3, #4]
   13d44:	e59f205c 	ldr	r2, [pc, #92]	; 13da8 <cyg_hal_plf_serial_init+0xb8>
   13d48:	e51b3014 	ldr	r3, [fp, #-20]	; 0xffffffec
   13d4c:	e5832008 	str	r2, [r3, #8]
   13d50:	e59f2054 	ldr	r2, [pc, #84]	; 13dac <cyg_hal_plf_serial_init+0xbc>
   13d54:	e51b3014 	ldr	r3, [fp, #-20]	; 0xffffffec
   13d58:	e583200c 	str	r2, [r3, #12]
   13d5c:	e59f204c 	ldr	r2, [pc, #76]	; 13db0 <cyg_hal_plf_serial_init+0xc0>
   13d60:	e51b3014 	ldr	r3, [fp, #-20]	; 0xffffffec
   13d64:	e5832010 	str	r2, [r3, #16]
   13d68:	e59f2044 	ldr	r2, [pc, #68]	; 13db4 <cyg_hal_plf_serial_init+0xc4>
   13d6c:	e51b3014 	ldr	r3, [fp, #-20]	; 0xffffffec
   13d70:	e5832014 	str	r2, [r3, #20]
   13d74:	e59f203c 	ldr	r2, [pc, #60]	; 13db8 <cyg_hal_plf_serial_init+0xc8>
   13d78:	e51b3014 	ldr	r3, [fp, #-20]	; 0xffffffec
   13d7c:	e5832018 	str	r2, [r3, #24]
   13d80:	e59f2034 	ldr	r2, [pc, #52]	; 13dbc <cyg_hal_plf_serial_init+0xcc>
   13d84:	e51b3014 	ldr	r3, [fp, #-20]	; 0xffffffec
   13d88:	e583201c 	str	r2, [r3, #28]
   13d8c:	e51b0010 	ldr	r0, [fp, #-16]
   13d90:	eb000014 	bl	13de8 <__call_vv_CYGNUM_CALL_IF_SET_CONSOLE_COMM>
   13d94:	e24bd00c 	sub	sp, fp, #12
   13d98:	e89d6800 	ldm	sp, {fp, sp, lr}
   13d9c:	e12fff1e 	bx	lr
   13da0:	810002f8 	.word	0x810002f8
   13da4:	000138ec 	.word	0x000138ec
   13da8:	00013960 	.word	0x00013960
   13dac:	000137c0 	.word	0x000137c0
   13db0:	000138a8 	.word	0x000138a8
   13db4:	00013aac 	.word	0x00013aac
   13db8:	00013c28 	.word	0x00013c28
   13dbc:	000139d4 	.word	0x000139d4

00013dc0 <__call_vv_CYGNUM_CALL_IF_CONSOLE_PROCS>:
   13dc0:	e1a0c00d 	mov	ip, sp
   13dc4:	e92dd800 	push	{fp, ip, lr, pc}
   13dc8:	e24cb004 	sub	fp, ip, #4
   13dcc:	e59f3010 	ldr	r3, [pc, #16]	; 13de4 <__call_vv_CYGNUM_CALL_IF_CONSOLE_PROCS+0x24>
   13dd0:	e5933014 	ldr	r3, [r3, #20]
   13dd4:	e1a00003 	mov	r0, r3
   13dd8:	e24bd00c 	sub	sp, fp, #12
   13ddc:	e89d6800 	ldm	sp, {fp, sp, lr}
   13de0:	e12fff1e 	bx	lr
   13de4:	40000050 	.word	0x40000050

00013de8 <__call_vv_CYGNUM_CALL_IF_SET_CONSOLE_COMM>:
   13de8:	e1a0c00d 	mov	ip, sp
   13dec:	e92dd800 	push	{fp, ip, lr, pc}
   13df0:	e24cb004 	sub	fp, ip, #4
   13df4:	e24dd010 	sub	sp, sp, #16
   13df8:	e50b0018 	str	r0, [fp, #-24]	; 0xffffffe8
   13dfc:	e59f3028 	ldr	r3, [pc, #40]	; 13e2c <__call_vv_CYGNUM_CALL_IF_SET_CONSOLE_COMM+0x44>
   13e00:	e5933034 	ldr	r3, [r3, #52]	; 0x34
   13e04:	e51b0018 	ldr	r0, [fp, #-24]	; 0xffffffe8
   13e08:	e1a0e00f 	mov	lr, pc
   13e0c:	e12fff13 	bx	r3
   13e10:	e1a03000 	mov	r3, r0
   13e14:	e50b3010 	str	r3, [fp, #-16]
   13e18:	e51b3010 	ldr	r3, [fp, #-16]
   13e1c:	e1a00003 	mov	r0, r3
   13e20:	e24bd00c 	sub	sp, fp, #12
   13e24:	e89d6800 	ldm	sp, {fp, sp, lr}
   13e28:	e12fff1e 	bx	lr
   13e2c:	40000050 	.word	0x40000050

00013e30 <__aeabi_uidiv>:
   13e30:	e2512001 	subs	r2, r1, #1
   13e34:	012fff1e 	bxeq	lr
   13e38:	3a000036 	bcc	13f18 <__aeabi_uidiv+0xe8>
   13e3c:	e1500001 	cmp	r0, r1
   13e40:	9a000022 	bls	13ed0 <__aeabi_uidiv+0xa0>
   13e44:	e1110002 	tst	r1, r2
   13e48:	0a000023 	beq	13edc <__aeabi_uidiv+0xac>
   13e4c:	e311020e 	tst	r1, #-536870912	; 0xe0000000
   13e50:	01a01181 	lsleq	r1, r1, #3
   13e54:	03a03008 	moveq	r3, #8
   13e58:	13a03001 	movne	r3, #1
   13e5c:	e3510201 	cmp	r1, #268435456	; 0x10000000
   13e60:	31510000 	cmpcc	r1, r0
   13e64:	31a01201 	lslcc	r1, r1, #4
   13e68:	31a03203 	lslcc	r3, r3, #4
   13e6c:	3afffffa 	bcc	13e5c <__aeabi_uidiv+0x2c>
   13e70:	e3510102 	cmp	r1, #-2147483648	; 0x80000000
   13e74:	31510000 	cmpcc	r1, r0
   13e78:	31a01081 	lslcc	r1, r1, #1
   13e7c:	31a03083 	lslcc	r3, r3, #1
   13e80:	3afffffa 	bcc	13e70 <__aeabi_uidiv+0x40>
   13e84:	e3a02000 	mov	r2, #0
   13e88:	e1500001 	cmp	r0, r1
   13e8c:	20400001 	subcs	r0, r0, r1
   13e90:	21822003 	orrcs	r2, r2, r3
   13e94:	e15000a1 	cmp	r0, r1, lsr #1
   13e98:	204000a1 	subcs	r0, r0, r1, lsr #1
   13e9c:	218220a3 	orrcs	r2, r2, r3, lsr #1
   13ea0:	e1500121 	cmp	r0, r1, lsr #2
   13ea4:	20400121 	subcs	r0, r0, r1, lsr #2
   13ea8:	21822123 	orrcs	r2, r2, r3, lsr #2
   13eac:	e15001a1 	cmp	r0, r1, lsr #3
   13eb0:	204001a1 	subcs	r0, r0, r1, lsr #3
   13eb4:	218221a3 	orrcs	r2, r2, r3, lsr #3
   13eb8:	e3500000 	cmp	r0, #0
   13ebc:	11b03223 	lsrsne	r3, r3, #4
   13ec0:	11a01221 	lsrne	r1, r1, #4
   13ec4:	1affffef 	bne	13e88 <__aeabi_uidiv+0x58>
   13ec8:	e1a00002 	mov	r0, r2
   13ecc:	e12fff1e 	bx	lr
   13ed0:	03a00001 	moveq	r0, #1
   13ed4:	13a00000 	movne	r0, #0
   13ed8:	e12fff1e 	bx	lr
   13edc:	e3510801 	cmp	r1, #65536	; 0x10000
   13ee0:	21a01821 	lsrcs	r1, r1, #16
   13ee4:	23a02010 	movcs	r2, #16
   13ee8:	33a02000 	movcc	r2, #0
   13eec:	e3510c01 	cmp	r1, #256	; 0x100
   13ef0:	21a01421 	lsrcs	r1, r1, #8
   13ef4:	22822008 	addcs	r2, r2, #8
   13ef8:	e3510010 	cmp	r1, #16
   13efc:	21a01221 	lsrcs	r1, r1, #4
   13f00:	22822004 	addcs	r2, r2, #4
   13f04:	e3510004 	cmp	r1, #4
   13f08:	82822003 	addhi	r2, r2, #3
   13f0c:	908220a1 	addls	r2, r2, r1, lsr #1
   13f10:	e1a00230 	lsr	r0, r0, r2
   13f14:	e12fff1e 	bx	lr
   13f18:	e52de008 	str	lr, [sp, #-8]!
   13f1c:	eb000059 	bl	14088 <__aeabi_idiv0>
   13f20:	e3a00000 	mov	r0, #0
   13f24:	e49de008 	ldr	lr, [sp], #8
   13f28:	e12fff1e 	bx	lr

00013f2c <__aeabi_uidivmod>:
   13f2c:	e92d4003 	push	{r0, r1, lr}
   13f30:	ebffffbe 	bl	13e30 <__aeabi_uidiv>
   13f34:	e8bd4006 	pop	{r1, r2, lr}
   13f38:	e0030092 	mul	r3, r2, r0
   13f3c:	e0411003 	sub	r1, r1, r3
   13f40:	e12fff1e 	bx	lr

00013f44 <__aeabi_idiv>:
   13f44:	e3510000 	cmp	r1, #0
   13f48:	e020c001 	eor	ip, r0, r1
   13f4c:	0a000042 	beq	1405c <__aeabi_idiv+0x118>
   13f50:	42611000 	rsbmi	r1, r1, #0
   13f54:	e2512001 	subs	r2, r1, #1
   13f58:	0a000027 	beq	13ffc <__aeabi_idiv+0xb8>
   13f5c:	e1b03000 	movs	r3, r0
   13f60:	42603000 	rsbmi	r3, r0, #0
   13f64:	e1530001 	cmp	r3, r1
   13f68:	9a000026 	bls	14008 <__aeabi_idiv+0xc4>
   13f6c:	e1110002 	tst	r1, r2
   13f70:	0a000028 	beq	14018 <__aeabi_idiv+0xd4>
   13f74:	e311020e 	tst	r1, #-536870912	; 0xe0000000
   13f78:	01a01181 	lsleq	r1, r1, #3
   13f7c:	03a02008 	moveq	r2, #8
   13f80:	13a02001 	movne	r2, #1
   13f84:	e3510201 	cmp	r1, #268435456	; 0x10000000
   13f88:	31510003 	cmpcc	r1, r3
   13f8c:	31a01201 	lslcc	r1, r1, #4
   13f90:	31a02202 	lslcc	r2, r2, #4
   13f94:	3afffffa 	bcc	13f84 <__aeabi_idiv+0x40>
   13f98:	e3510102 	cmp	r1, #-2147483648	; 0x80000000
   13f9c:	31510003 	cmpcc	r1, r3
   13fa0:	31a01081 	lslcc	r1, r1, #1
   13fa4:	31a02082 	lslcc	r2, r2, #1
   13fa8:	3afffffa 	bcc	13f98 <__aeabi_idiv+0x54>
   13fac:	e3a00000 	mov	r0, #0
   13fb0:	e1530001 	cmp	r3, r1
   13fb4:	20433001 	subcs	r3, r3, r1
   13fb8:	21800002 	orrcs	r0, r0, r2
   13fbc:	e15300a1 	cmp	r3, r1, lsr #1
   13fc0:	204330a1 	subcs	r3, r3, r1, lsr #1
   13fc4:	218000a2 	orrcs	r0, r0, r2, lsr #1
   13fc8:	e1530121 	cmp	r3, r1, lsr #2
   13fcc:	20433121 	subcs	r3, r3, r1, lsr #2
   13fd0:	21800122 	orrcs	r0, r0, r2, lsr #2
   13fd4:	e15301a1 	cmp	r3, r1, lsr #3
   13fd8:	204331a1 	subcs	r3, r3, r1, lsr #3
   13fdc:	218001a2 	orrcs	r0, r0, r2, lsr #3
   13fe0:	e3530000 	cmp	r3, #0
   13fe4:	11b02222 	lsrsne	r2, r2, #4
   13fe8:	11a01221 	lsrne	r1, r1, #4
   13fec:	1affffef 	bne	13fb0 <__aeabi_idiv+0x6c>
   13ff0:	e35c0000 	cmp	ip, #0
   13ff4:	42600000 	rsbmi	r0, r0, #0
   13ff8:	e12fff1e 	bx	lr
   13ffc:	e13c0000 	teq	ip, r0
   14000:	42600000 	rsbmi	r0, r0, #0
   14004:	e12fff1e 	bx	lr
   14008:	33a00000 	movcc	r0, #0
   1400c:	01a00fcc 	asreq	r0, ip, #31
   14010:	03800001 	orreq	r0, r0, #1
   14014:	e12fff1e 	bx	lr
   14018:	e3510801 	cmp	r1, #65536	; 0x10000
   1401c:	21a01821 	lsrcs	r1, r1, #16
   14020:	23a02010 	movcs	r2, #16
   14024:	33a02000 	movcc	r2, #0
   14028:	e3510c01 	cmp	r1, #256	; 0x100
   1402c:	21a01421 	lsrcs	r1, r1, #8
   14030:	22822008 	addcs	r2, r2, #8
   14034:	e3510010 	cmp	r1, #16
   14038:	21a01221 	lsrcs	r1, r1, #4
   1403c:	22822004 	addcs	r2, r2, #4
   14040:	e3510004 	cmp	r1, #4
   14044:	82822003 	addhi	r2, r2, #3
   14048:	908220a1 	addls	r2, r2, r1, lsr #1
   1404c:	e35c0000 	cmp	ip, #0
   14050:	e1a00233 	lsr	r0, r3, r2
   14054:	42600000 	rsbmi	r0, r0, #0
   14058:	e12fff1e 	bx	lr
   1405c:	e52de008 	str	lr, [sp, #-8]!
   14060:	eb000008 	bl	14088 <__aeabi_idiv0>
   14064:	e3a00000 	mov	r0, #0
   14068:	e49de008 	ldr	lr, [sp], #8
   1406c:	e12fff1e 	bx	lr

00014070 <__aeabi_idivmod>:
   14070:	e92d4003 	push	{r0, r1, lr}
   14074:	ebffffb2 	bl	13f44 <__aeabi_idiv>
   14078:	e8bd4006 	pop	{r1, r2, lr}
   1407c:	e0030092 	mul	r3, r2, r0
   14080:	e0411003 	sub	r1, r1, r3
   14084:	e12fff1e 	bx	lr

00014088 <__aeabi_idiv0>:
   14088:	e12fff1e 	bx	lr

0001408c <__aeabi_uldivmod>:
   1408c:	e24dd008 	sub	sp, sp, #8
   14090:	e92d6000 	push	{sp, lr}
   14094:	eb000003 	bl	140a8 <__gnu_uldivmod_helper>
   14098:	e59de004 	ldr	lr, [sp, #4]
   1409c:	e28dd008 	add	sp, sp, #8
   140a0:	e8bd000c 	pop	{r2, r3}
   140a4:	e12fff1e 	bx	lr

000140a8 <__gnu_uldivmod_helper>:
   140a8:	e92d45f0 	push	{r4, r5, r6, r7, r8, sl, lr}
   140ac:	e24dd004 	sub	sp, sp, #4
   140b0:	e1a0a002 	mov	sl, r2
   140b4:	e1a08003 	mov	r8, r3
   140b8:	e1a05000 	mov	r5, r0
   140bc:	e1a06001 	mov	r6, r1
   140c0:	eb000177 	bl	146a4 <__udivdi3>
   140c4:	e0070890 	mul	r7, r0, r8
   140c8:	e0843a90 	umull	r3, r4, r0, sl
   140cc:	e022719a 	mla	r2, sl, r1, r7
   140d0:	e0824004 	add	r4, r2, r4
   140d4:	e59d2020 	ldr	r2, [sp, #32]
   140d8:	e0555003 	subs	r5, r5, r3
   140dc:	e0c66004 	sbc	r6, r6, r4
   140e0:	e8820060 	stm	r2, {r5, r6}
   140e4:	e28dd004 	add	sp, sp, #4
   140e8:	e8bd45f0 	pop	{r4, r5, r6, r7, r8, sl, lr}
   140ec:	e12fff1e 	bx	lr

000140f0 <__gnu_ldivmod_helper>:
   140f0:	e92d45f0 	push	{r4, r5, r6, r7, r8, sl, lr}
   140f4:	e24dd004 	sub	sp, sp, #4
   140f8:	e1a0a002 	mov	sl, r2
   140fc:	e1a08003 	mov	r8, r3
   14100:	e1a05000 	mov	r5, r0
   14104:	e1a06001 	mov	r6, r1
   14108:	eb00000a 	bl	14138 <__divdi3>
   1410c:	e0070890 	mul	r7, r0, r8
   14110:	e0843a90 	umull	r3, r4, r0, sl
   14114:	e022719a 	mla	r2, sl, r1, r7
   14118:	e0824004 	add	r4, r2, r4
   1411c:	e59d2020 	ldr	r2, [sp, #32]
   14120:	e0555003 	subs	r5, r5, r3
   14124:	e0c66004 	sbc	r6, r6, r4
   14128:	e8820060 	stm	r2, {r5, r6}
   1412c:	e28dd004 	add	sp, sp, #4
   14130:	e8bd45f0 	pop	{r4, r5, r6, r7, r8, sl, lr}
   14134:	e12fff1e 	bx	lr

00014138 <__divdi3>:
   14138:	e92d4ff0 	push	{r4, r5, r6, r7, r8, r9, sl, fp, lr}
   1413c:	e3510000 	cmp	r1, #0
   14140:	e1a04003 	mov	r4, r3
   14144:	e24dd014 	sub	sp, sp, #20
   14148:	e1a05000 	mov	r5, r0
   1414c:	a3a00000 	movge	r0, #0
   14150:	e1a06001 	mov	r6, r1
   14154:	e1a03002 	mov	r3, r2
   14158:	e1a01002 	mov	r1, r2
   1415c:	a58d0000 	strge	r0, [sp]
   14160:	e1a02004 	mov	r2, r4
   14164:	ba0000d1 	blt	144b0 <__divdi3+0x378>
   14168:	e3540000 	cmp	r4, #0
   1416c:	ba0000d5 	blt	144c8 <__divdi3+0x390>
   14170:	e2520000 	subs	r0, r2, #0
   14174:	e1a03005 	mov	r3, r5
   14178:	e1a09005 	mov	r9, r5
   1417c:	e1a05001 	mov	r5, r1
   14180:	1a00003c 	bne	14278 <__divdi3+0x140>
   14184:	e1510006 	cmp	r1, r6
   14188:	9a00004a 	bls	142b8 <__divdi3+0x180>
   1418c:	e3510801 	cmp	r1, #65536	; 0x10000
   14190:	2a00012c 	bcs	14648 <__divdi3+0x510>
   14194:	e3510c01 	cmp	r1, #256	; 0x100
   14198:	33a00020 	movcc	r0, #32
   1419c:	23a00018 	movcs	r0, #24
   141a0:	33a03000 	movcc	r3, #0
   141a4:	23a03008 	movcs	r3, #8
   141a8:	e1a01335 	lsr	r1, r5, r3
   141ac:	e59f24ec 	ldr	r2, [pc, #1260]	; 146a0 <__divdi3+0x568>
   141b0:	e7d23001 	ldrb	r3, [r2, r1]
   141b4:	e0502003 	subs	r2, r0, r3
   141b8:	12623020 	rsbne	r3, r2, #32
   141bc:	11a03339 	lsrne	r3, r9, r3
   141c0:	11a05215 	lslne	r5, r5, r2
   141c4:	11836216 	orrne	r6, r3, r6, lsl r2
   141c8:	e1a08825 	lsr	r8, r5, #16
   141cc:	e1a01008 	mov	r1, r8
   141d0:	e1a00006 	mov	r0, r6
   141d4:	11a09219 	lslne	r9, r9, r2
   141d8:	ebffff14 	bl	13e30 <__aeabi_uidiv>
   141dc:	e1a01008 	mov	r1, r8
   141e0:	e1a0a000 	mov	sl, r0
   141e4:	e1a00006 	mov	r0, r6
   141e8:	ebffff4f 	bl	13f2c <__aeabi_uidivmod>
   141ec:	e1a07805 	lsl	r7, r5, #16
   141f0:	e1a07827 	lsr	r7, r7, #16
   141f4:	e0020a97 	mul	r2, r7, sl
   141f8:	e1a03829 	lsr	r3, r9, #16
   141fc:	e1834801 	orr	r4, r3, r1, lsl #16
   14200:	e1520004 	cmp	r2, r4
   14204:	9a000005 	bls	14220 <__divdi3+0xe8>
   14208:	e0944005 	adds	r4, r4, r5
   1420c:	e24aa001 	sub	sl, sl, #1
   14210:	2a000002 	bcs	14220 <__divdi3+0xe8>
   14214:	e1520004 	cmp	r2, r4
   14218:	824aa001 	subhi	sl, sl, #1
   1421c:	80844005 	addhi	r4, r4, r5
   14220:	e0624004 	rsb	r4, r2, r4
   14224:	e1a01008 	mov	r1, r8
   14228:	e1a00004 	mov	r0, r4
   1422c:	ebfffeff 	bl	13e30 <__aeabi_uidiv>
   14230:	e1a01008 	mov	r1, r8
   14234:	e1a06000 	mov	r6, r0
   14238:	e1a00004 	mov	r0, r4
   1423c:	ebffff3a 	bl	13f2c <__aeabi_uidivmod>
   14240:	e0000697 	mul	r0, r7, r6
   14244:	e1a03809 	lsl	r3, r9, #16
   14248:	e1a03823 	lsr	r3, r3, #16
   1424c:	e1832801 	orr	r2, r3, r1, lsl #16
   14250:	e1500002 	cmp	r0, r2
   14254:	9a000004 	bls	1426c <__divdi3+0x134>
   14258:	e0923005 	adds	r3, r2, r5
   1425c:	e2466001 	sub	r6, r6, #1
   14260:	2a000001 	bcs	1426c <__divdi3+0x134>
   14264:	e1500003 	cmp	r0, r3
   14268:	82466001 	subhi	r6, r6, #1
   1426c:	e186080a 	orr	r0, r6, sl, lsl #16
   14270:	e3a02000 	mov	r2, #0
   14274:	ea000003 	b	14288 <__divdi3+0x150>
   14278:	e1500006 	cmp	r0, r6
   1427c:	9a000079 	bls	14468 <__divdi3+0x330>
   14280:	e3a00000 	mov	r0, #0
   14284:	e1a02000 	mov	r2, r0
   14288:	e1a03000 	mov	r3, r0
   1428c:	e59d0000 	ldr	r0, [sp]
   14290:	e3500000 	cmp	r0, #0
   14294:	e1a04002 	mov	r4, r2
   14298:	0a000001 	beq	142a4 <__divdi3+0x16c>
   1429c:	e2733000 	rsbs	r3, r3, #0
   142a0:	e2e44000 	rsc	r4, r4, #0
   142a4:	e1a01004 	mov	r1, r4
   142a8:	e1a00003 	mov	r0, r3
   142ac:	e28dd014 	add	sp, sp, #20
   142b0:	e8bd4ff0 	pop	{r4, r5, r6, r7, r8, r9, sl, fp, lr}
   142b4:	e12fff1e 	bx	lr
   142b8:	e3510000 	cmp	r1, #0
   142bc:	1a000002 	bne	142cc <__divdi3+0x194>
   142c0:	e3a00001 	mov	r0, #1
   142c4:	ebfffed9 	bl	13e30 <__aeabi_uidiv>
   142c8:	e1a05000 	mov	r5, r0
   142cc:	e3550801 	cmp	r5, #65536	; 0x10000
   142d0:	3a000082 	bcc	144e0 <__divdi3+0x3a8>
   142d4:	e3550401 	cmp	r5, #16777216	; 0x1000000
   142d8:	33a03010 	movcc	r3, #16
   142dc:	23a03018 	movcs	r3, #24
   142e0:	23a00008 	movcs	r0, #8
   142e4:	31a00003 	movcc	r0, r3
   142e8:	e1a01335 	lsr	r1, r5, r3
   142ec:	e59f23ac 	ldr	r2, [pc, #940]	; 146a0 <__divdi3+0x568>
   142f0:	e7d23001 	ldrb	r3, [r2, r1]
   142f4:	e050a003 	subs	sl, r0, r3
   142f8:	01a08805 	lsleq	r8, r5, #16
   142fc:	00654006 	rsbeq	r4, r5, r6
   14300:	01a08828 	lsreq	r8, r8, #16
   14304:	01a07825 	lsreq	r7, r5, #16
   14308:	03a0b001 	moveq	fp, #1
   1430c:	0a00002d 	beq	143c8 <__divdi3+0x290>
   14310:	e26a3020 	rsb	r3, sl, #32
   14314:	e1a04336 	lsr	r4, r6, r3
   14318:	e1a03339 	lsr	r3, r9, r3
   1431c:	e1a05a15 	lsl	r5, r5, sl
   14320:	e1833a16 	orr	r3, r3, r6, lsl sl
   14324:	e1a07825 	lsr	r7, r5, #16
   14328:	e1a01007 	mov	r1, r7
   1432c:	e1a00004 	mov	r0, r4
   14330:	e58d3004 	str	r3, [sp, #4]
   14334:	ebfffebd 	bl	13e30 <__aeabi_uidiv>
   14338:	e1a01007 	mov	r1, r7
   1433c:	e1a0b000 	mov	fp, r0
   14340:	e1a00004 	mov	r0, r4
   14344:	ebfffef8 	bl	13f2c <__aeabi_uidivmod>
   14348:	e1a08805 	lsl	r8, r5, #16
   1434c:	e1a08828 	lsr	r8, r8, #16
   14350:	e0020b98 	mul	r2, r8, fp
   14354:	e59d0004 	ldr	r0, [sp, #4]
   14358:	e1a03820 	lsr	r3, r0, #16
   1435c:	e1834801 	orr	r4, r3, r1, lsl #16
   14360:	e1520004 	cmp	r2, r4
   14364:	9a000002 	bls	14374 <__divdi3+0x23c>
   14368:	e0944005 	adds	r4, r4, r5
   1436c:	e24bb001 	sub	fp, fp, #1
   14370:	3a0000c6 	bcc	14690 <__divdi3+0x558>
   14374:	e0624004 	rsb	r4, r2, r4
   14378:	e1a01007 	mov	r1, r7
   1437c:	e1a00004 	mov	r0, r4
   14380:	ebfffeaa 	bl	13e30 <__aeabi_uidiv>
   14384:	e1a01007 	mov	r1, r7
   14388:	e1a06000 	mov	r6, r0
   1438c:	e1a00004 	mov	r0, r4
   14390:	ebfffee5 	bl	13f2c <__aeabi_uidivmod>
   14394:	e0040698 	mul	r4, r8, r6
   14398:	e59d2004 	ldr	r2, [sp, #4]
   1439c:	e1a03802 	lsl	r3, r2, #16
   143a0:	e1a03823 	lsr	r3, r3, #16
   143a4:	e1830801 	orr	r0, r3, r1, lsl #16
   143a8:	e1540000 	cmp	r4, r0
   143ac:	9a000002 	bls	143bc <__divdi3+0x284>
   143b0:	e0900005 	adds	r0, r0, r5
   143b4:	e2466001 	sub	r6, r6, #1
   143b8:	3a0000b0 	bcc	14680 <__divdi3+0x548>
   143bc:	e1a09a19 	lsl	r9, r9, sl
   143c0:	e0644000 	rsb	r4, r4, r0
   143c4:	e186b80b 	orr	fp, r6, fp, lsl #16
   143c8:	e1a01007 	mov	r1, r7
   143cc:	e1a00004 	mov	r0, r4
   143d0:	ebfffe96 	bl	13e30 <__aeabi_uidiv>
   143d4:	e1a01007 	mov	r1, r7
   143d8:	e1a0a000 	mov	sl, r0
   143dc:	e1a00004 	mov	r0, r4
   143e0:	ebfffed1 	bl	13f2c <__aeabi_uidivmod>
   143e4:	e0020a98 	mul	r2, r8, sl
   143e8:	e1a03829 	lsr	r3, r9, #16
   143ec:	e1834801 	orr	r4, r3, r1, lsl #16
   143f0:	e1520004 	cmp	r2, r4
   143f4:	9a000005 	bls	14410 <__divdi3+0x2d8>
   143f8:	e0944005 	adds	r4, r4, r5
   143fc:	e24aa001 	sub	sl, sl, #1
   14400:	2a000002 	bcs	14410 <__divdi3+0x2d8>
   14404:	e1520004 	cmp	r2, r4
   14408:	824aa001 	subhi	sl, sl, #1
   1440c:	80844005 	addhi	r4, r4, r5
   14410:	e0624004 	rsb	r4, r2, r4
   14414:	e1a01007 	mov	r1, r7
   14418:	e1a00004 	mov	r0, r4
   1441c:	ebfffe83 	bl	13e30 <__aeabi_uidiv>
   14420:	e1a01007 	mov	r1, r7
   14424:	e1a06000 	mov	r6, r0
   14428:	e1a00004 	mov	r0, r4
   1442c:	ebfffebe 	bl	13f2c <__aeabi_uidivmod>
   14430:	e0000698 	mul	r0, r8, r6
   14434:	e1a03809 	lsl	r3, r9, #16
   14438:	e1a03823 	lsr	r3, r3, #16
   1443c:	e1832801 	orr	r2, r3, r1, lsl #16
   14440:	e1500002 	cmp	r0, r2
   14444:	9a000004 	bls	1445c <__divdi3+0x324>
   14448:	e0923005 	adds	r3, r2, r5
   1444c:	e2466001 	sub	r6, r6, #1
   14450:	2a000001 	bcs	1445c <__divdi3+0x324>
   14454:	e1500003 	cmp	r0, r3
   14458:	82466001 	subhi	r6, r6, #1
   1445c:	e186080a 	orr	r0, r6, sl, lsl #16
   14460:	e1a0200b 	mov	r2, fp
   14464:	eaffff87 	b	14288 <__divdi3+0x150>
   14468:	e3500801 	cmp	r0, #65536	; 0x10000
   1446c:	3a000021 	bcc	144f8 <__divdi3+0x3c0>
   14470:	e3500401 	cmp	r0, #16777216	; 0x1000000
   14474:	33a03010 	movcc	r3, #16
   14478:	23a03018 	movcs	r3, #24
   1447c:	e1a01330 	lsr	r1, r0, r3
   14480:	e59f2218 	ldr	r2, [pc, #536]	; 146a0 <__divdi3+0x568>
   14484:	31a0c003 	movcc	ip, r3
   14488:	e7d23001 	ldrb	r3, [r2, r1]
   1448c:	23a0c008 	movcs	ip, #8
   14490:	e05ca003 	subs	sl, ip, r3
   14494:	1a000021 	bne	14520 <__divdi3+0x3e8>
   14498:	e1500006 	cmp	r0, r6
   1449c:	21550009 	cmpcs	r5, r9
   144a0:	91a0200a 	movls	r2, sl
   144a4:	93a00001 	movls	r0, #1
   144a8:	9affff76 	bls	14288 <__divdi3+0x150>
   144ac:	eaffff73 	b	14280 <__divdi3+0x148>
   144b0:	e2755000 	rsbs	r5, r5, #0
   144b4:	e2e66000 	rsc	r6, r6, #0
   144b8:	e3e00000 	mvn	r0, #0
   144bc:	e3540000 	cmp	r4, #0
   144c0:	e58d0000 	str	r0, [sp]
   144c4:	aaffff29 	bge	14170 <__divdi3+0x38>
   144c8:	e2731000 	rsbs	r1, r3, #0
   144cc:	e2e42000 	rsc	r2, r4, #0
   144d0:	e59d3000 	ldr	r3, [sp]
   144d4:	e1e03003 	mvn	r3, r3
   144d8:	e58d3000 	str	r3, [sp]
   144dc:	eaffff23 	b	14170 <__divdi3+0x38>
   144e0:	e3550c01 	cmp	r5, #256	; 0x100
   144e4:	33a00020 	movcc	r0, #32
   144e8:	23a00018 	movcs	r0, #24
   144ec:	33a03000 	movcc	r3, #0
   144f0:	23a03008 	movcs	r3, #8
   144f4:	eaffff7b 	b	142e8 <__divdi3+0x1b0>
   144f8:	e3500c01 	cmp	r0, #256	; 0x100
   144fc:	33a03000 	movcc	r3, #0
   14500:	23a03008 	movcs	r3, #8
   14504:	e1a01330 	lsr	r1, r0, r3
   14508:	e59f2190 	ldr	r2, [pc, #400]	; 146a0 <__divdi3+0x568>
   1450c:	e7d23001 	ldrb	r3, [r2, r1]
   14510:	33a0c020 	movcc	ip, #32
   14514:	23a0c018 	movcs	ip, #24
   14518:	e05ca003 	subs	sl, ip, r3
   1451c:	0affffdd 	beq	14498 <__divdi3+0x360>
   14520:	e26a2020 	rsb	r2, sl, #32
   14524:	e1a03235 	lsr	r3, r5, r2
   14528:	e1a04236 	lsr	r4, r6, r2
   1452c:	e1a02239 	lsr	r2, r9, r2
   14530:	e1837a10 	orr	r7, r3, r0, lsl sl
   14534:	e1822a16 	orr	r2, r2, r6, lsl sl
   14538:	e1a08827 	lsr	r8, r7, #16
   1453c:	e1a01008 	mov	r1, r8
   14540:	e1a00004 	mov	r0, r4
   14544:	e58d200c 	str	r2, [sp, #12]
   14548:	ebfffe38 	bl	13e30 <__aeabi_uidiv>
   1454c:	e1a01008 	mov	r1, r8
   14550:	e1a0b000 	mov	fp, r0
   14554:	e1a00004 	mov	r0, r4
   14558:	ebfffe73 	bl	13f2c <__aeabi_uidivmod>
   1455c:	e1a05a15 	lsl	r5, r5, sl
   14560:	e1a06807 	lsl	r6, r7, #16
   14564:	e1a06826 	lsr	r6, r6, #16
   14568:	e0020b96 	mul	r2, r6, fp
   1456c:	e59d000c 	ldr	r0, [sp, #12]
   14570:	e1a03820 	lsr	r3, r0, #16
   14574:	e1834801 	orr	r4, r3, r1, lsl #16
   14578:	e1520004 	cmp	r2, r4
   1457c:	e58d5008 	str	r5, [sp, #8]
   14580:	9a000002 	bls	14590 <__divdi3+0x458>
   14584:	e0944007 	adds	r4, r4, r7
   14588:	e24bb001 	sub	fp, fp, #1
   1458c:	3a000037 	bcc	14670 <__divdi3+0x538>
   14590:	e0624004 	rsb	r4, r2, r4
   14594:	e1a01008 	mov	r1, r8
   14598:	e1a00004 	mov	r0, r4
   1459c:	ebfffe23 	bl	13e30 <__aeabi_uidiv>
   145a0:	e1a01008 	mov	r1, r8
   145a4:	e1a05000 	mov	r5, r0
   145a8:	e1a00004 	mov	r0, r4
   145ac:	ebfffe5e 	bl	13f2c <__aeabi_uidivmod>
   145b0:	e0020596 	mul	r2, r6, r5
   145b4:	e59d000c 	ldr	r0, [sp, #12]
   145b8:	e1a03800 	lsl	r3, r0, #16
   145bc:	e1a03823 	lsr	r3, r3, #16
   145c0:	e1830801 	orr	r0, r3, r1, lsl #16
   145c4:	e1520000 	cmp	r2, r0
   145c8:	9a000002 	bls	145d8 <__divdi3+0x4a0>
   145cc:	e0900007 	adds	r0, r0, r7
   145d0:	e2455001 	sub	r5, r5, #1
   145d4:	3a000021 	bcc	14660 <__divdi3+0x528>
   145d8:	e0622000 	rsb	r2, r2, r0
   145dc:	e185080b 	orr	r0, r5, fp, lsl #16
   145e0:	e59d5008 	ldr	r5, [sp, #8]
   145e4:	e1a0c820 	lsr	ip, r0, #16
   145e8:	e1a03825 	lsr	r3, r5, #16
   145ec:	e1c0e80c 	bic	lr, r0, ip, lsl #16
   145f0:	e1c54803 	bic	r4, r5, r3, lsl #16
   145f4:	e001049e 	mul	r1, lr, r4
   145f8:	e004049c 	mul	r4, ip, r4
   145fc:	e00e0e93 	mul	lr, r3, lr
   14600:	e003039c 	mul	r3, ip, r3
   14604:	e094e00e 	adds	lr, r4, lr
   14608:	22833801 	addcs	r3, r3, #65536	; 0x10000
   1460c:	e091180e 	adds	r1, r1, lr, lsl #16
   14610:	e0a3382e 	adc	r3, r3, lr, lsr #16
   14614:	e1520003 	cmp	r2, r3
   14618:	3a000007 	bcc	1463c <__divdi3+0x504>
   1461c:	13a03000 	movne	r3, #0
   14620:	03a03001 	moveq	r3, #1
   14624:	e1510a19 	cmp	r1, r9, lsl sl
   14628:	93a03000 	movls	r3, #0
   1462c:	82033001 	andhi	r3, r3, #1
   14630:	e3530000 	cmp	r3, #0
   14634:	01a02003 	moveq	r2, r3
   14638:	0affff12 	beq	14288 <__divdi3+0x150>
   1463c:	e2400001 	sub	r0, r0, #1
   14640:	e3a02000 	mov	r2, #0
   14644:	eaffff0f 	b	14288 <__divdi3+0x150>
   14648:	e3510401 	cmp	r1, #16777216	; 0x1000000
   1464c:	33a03010 	movcc	r3, #16
   14650:	23a03018 	movcs	r3, #24
   14654:	23a00008 	movcs	r0, #8
   14658:	31a00003 	movcc	r0, r3
   1465c:	eafffed1 	b	141a8 <__divdi3+0x70>
   14660:	e1520000 	cmp	r2, r0
   14664:	80800007 	addhi	r0, r0, r7
   14668:	82455001 	subhi	r5, r5, #1
   1466c:	eaffffd9 	b	145d8 <__divdi3+0x4a0>
   14670:	e1520004 	cmp	r2, r4
   14674:	824bb001 	subhi	fp, fp, #1
   14678:	80844007 	addhi	r4, r4, r7
   1467c:	eaffffc3 	b	14590 <__divdi3+0x458>
   14680:	e1540000 	cmp	r4, r0
   14684:	82466001 	subhi	r6, r6, #1
   14688:	80800005 	addhi	r0, r0, r5
   1468c:	eaffff4a 	b	143bc <__divdi3+0x284>
   14690:	e1520004 	cmp	r2, r4
   14694:	824bb001 	subhi	fp, fp, #1
   14698:	80844005 	addhi	r4, r4, r5
   1469c:	eaffff34 	b	14374 <__divdi3+0x23c>
   146a0:	00016a18 	.word	0x00016a18

000146a4 <__udivdi3>:
   146a4:	e92d4ff0 	push	{r4, r5, r6, r7, r8, r9, sl, fp, lr}
   146a8:	e3530000 	cmp	r3, #0
   146ac:	e1a06001 	mov	r6, r1
   146b0:	e24dd014 	sub	sp, sp, #20
   146b4:	e1a0c003 	mov	ip, r3
   146b8:	e1a01002 	mov	r1, r2
   146bc:	e1a09000 	mov	r9, r0
   146c0:	e1a05002 	mov	r5, r2
   146c4:	e1a04006 	mov	r4, r6
   146c8:	1a00003c 	bne	147c0 <__udivdi3+0x11c>
   146cc:	e1520006 	cmp	r2, r6
   146d0:	9a000054 	bls	14828 <__udivdi3+0x184>
   146d4:	e3520801 	cmp	r2, #65536	; 0x10000
   146d8:	3a000119 	bcc	14b44 <__udivdi3+0x4a0>
   146dc:	e3520401 	cmp	r2, #16777216	; 0x1000000
   146e0:	33a03010 	movcc	r3, #16
   146e4:	23a03018 	movcs	r3, #24
   146e8:	23a00008 	movcs	r0, #8
   146ec:	31a00003 	movcc	r0, r3
   146f0:	e1a01335 	lsr	r1, r5, r3
   146f4:	e59f24a0 	ldr	r2, [pc, #1184]	; 14b9c <__udivdi3+0x4f8>
   146f8:	e7d23001 	ldrb	r3, [r2, r1]
   146fc:	e0502003 	subs	r2, r0, r3
   14700:	12623020 	rsbne	r3, r2, #32
   14704:	11a03339 	lsrne	r3, r9, r3
   14708:	11a05215 	lslne	r5, r5, r2
   1470c:	11834216 	orrne	r4, r3, r6, lsl r2
   14710:	e1a08825 	lsr	r8, r5, #16
   14714:	e1a01008 	mov	r1, r8
   14718:	e1a00004 	mov	r0, r4
   1471c:	11a09219 	lslne	r9, r9, r2
   14720:	ebfffdc2 	bl	13e30 <__aeabi_uidiv>
   14724:	e1a01008 	mov	r1, r8
   14728:	e1a0a000 	mov	sl, r0
   1472c:	e1a00004 	mov	r0, r4
   14730:	ebfffdfd 	bl	13f2c <__aeabi_uidivmod>
   14734:	e1a07805 	lsl	r7, r5, #16
   14738:	e1a07827 	lsr	r7, r7, #16
   1473c:	e0020a97 	mul	r2, r7, sl
   14740:	e1a03829 	lsr	r3, r9, #16
   14744:	e1834801 	orr	r4, r3, r1, lsl #16
   14748:	e1520004 	cmp	r2, r4
   1474c:	9a000005 	bls	14768 <__udivdi3+0xc4>
   14750:	e0944005 	adds	r4, r4, r5
   14754:	e24aa001 	sub	sl, sl, #1
   14758:	2a000002 	bcs	14768 <__udivdi3+0xc4>
   1475c:	e1520004 	cmp	r2, r4
   14760:	824aa001 	subhi	sl, sl, #1
   14764:	80844005 	addhi	r4, r4, r5
   14768:	e0624004 	rsb	r4, r2, r4
   1476c:	e1a01008 	mov	r1, r8
   14770:	e1a00004 	mov	r0, r4
   14774:	ebfffdad 	bl	13e30 <__aeabi_uidiv>
   14778:	e1a01008 	mov	r1, r8
   1477c:	e1a06000 	mov	r6, r0
   14780:	e1a00004 	mov	r0, r4
   14784:	ebfffde8 	bl	13f2c <__aeabi_uidivmod>
   14788:	e0020697 	mul	r2, r7, r6
   1478c:	e1a03809 	lsl	r3, r9, #16
   14790:	e1a03823 	lsr	r3, r3, #16
   14794:	e1830801 	orr	r0, r3, r1, lsl #16
   14798:	e1520000 	cmp	r2, r0
   1479c:	9a000004 	bls	147b4 <__udivdi3+0x110>
   147a0:	e0903005 	adds	r3, r0, r5
   147a4:	e2466001 	sub	r6, r6, #1
   147a8:	2a000001 	bcs	147b4 <__udivdi3+0x110>
   147ac:	e1520003 	cmp	r2, r3
   147b0:	82466001 	subhi	r6, r6, #1
   147b4:	e186280a 	orr	r2, r6, sl, lsl #16
   147b8:	e3a03000 	mov	r3, #0
   147bc:	ea000014 	b	14814 <__udivdi3+0x170>
   147c0:	e1530006 	cmp	r3, r6
   147c4:	8a000010 	bhi	1480c <__udivdi3+0x168>
   147c8:	e3530801 	cmp	r3, #65536	; 0x10000
   147cc:	3a000081 	bcc	149d8 <__udivdi3+0x334>
   147d0:	e3530401 	cmp	r3, #16777216	; 0x1000000
   147d4:	33a03010 	movcc	r3, #16
   147d8:	23a03018 	movcs	r3, #24
   147dc:	e1a0133c 	lsr	r1, ip, r3
   147e0:	e59f23b4 	ldr	r2, [pc, #948]	; 14b9c <__udivdi3+0x4f8>
   147e4:	31a00003 	movcc	r0, r3
   147e8:	e7d23001 	ldrb	r3, [r2, r1]
   147ec:	23a00008 	movcs	r0, #8
   147f0:	e050a003 	subs	sl, r0, r3
   147f4:	1a000081 	bne	14a00 <__udivdi3+0x35c>
   147f8:	e15c0006 	cmp	ip, r6
   147fc:	21550009 	cmpcs	r5, r9
   14800:	91a0300a 	movls	r3, sl
   14804:	93a02001 	movls	r2, #1
   14808:	9a000001 	bls	14814 <__udivdi3+0x170>
   1480c:	e3a02000 	mov	r2, #0
   14810:	e1a03002 	mov	r3, r2
   14814:	e1a00002 	mov	r0, r2
   14818:	e1a01003 	mov	r1, r3
   1481c:	e28dd014 	add	sp, sp, #20
   14820:	e8bd4ff0 	pop	{r4, r5, r6, r7, r8, r9, sl, fp, lr}
   14824:	e12fff1e 	bx	lr
   14828:	e3520000 	cmp	r2, #0
   1482c:	1a000002 	bne	1483c <__udivdi3+0x198>
   14830:	e3a00001 	mov	r0, #1
   14834:	ebfffd7d 	bl	13e30 <__aeabi_uidiv>
   14838:	e1a05000 	mov	r5, r0
   1483c:	e3550801 	cmp	r5, #65536	; 0x10000
   14840:	3a0000b9 	bcc	14b2c <__udivdi3+0x488>
   14844:	e3550401 	cmp	r5, #16777216	; 0x1000000
   14848:	33a03010 	movcc	r3, #16
   1484c:	23a03018 	movcs	r3, #24
   14850:	23a00008 	movcs	r0, #8
   14854:	31a00003 	movcc	r0, r3
   14858:	e1a01335 	lsr	r1, r5, r3
   1485c:	e59f2338 	ldr	r2, [pc, #824]	; 14b9c <__udivdi3+0x4f8>
   14860:	e7d23001 	ldrb	r3, [r2, r1]
   14864:	e050a003 	subs	sl, r0, r3
   14868:	01a08805 	lsleq	r8, r5, #16
   1486c:	00654006 	rsbeq	r4, r5, r6
   14870:	01a08828 	lsreq	r8, r8, #16
   14874:	01a07825 	lsreq	r7, r5, #16
   14878:	03a0b001 	moveq	fp, #1
   1487c:	0a00002d 	beq	14938 <__udivdi3+0x294>
   14880:	e26a3020 	rsb	r3, sl, #32
   14884:	e1a04336 	lsr	r4, r6, r3
   14888:	e1a03339 	lsr	r3, r9, r3
   1488c:	e1a05a15 	lsl	r5, r5, sl
   14890:	e1836a16 	orr	r6, r3, r6, lsl sl
   14894:	e1a07825 	lsr	r7, r5, #16
   14898:	e1a01007 	mov	r1, r7
   1489c:	e1a00004 	mov	r0, r4
   148a0:	e58d6004 	str	r6, [sp, #4]
   148a4:	ebfffd61 	bl	13e30 <__aeabi_uidiv>
   148a8:	e1a01007 	mov	r1, r7
   148ac:	e1a0b000 	mov	fp, r0
   148b0:	e1a00004 	mov	r0, r4
   148b4:	ebfffd9c 	bl	13f2c <__aeabi_uidivmod>
   148b8:	e1a08805 	lsl	r8, r5, #16
   148bc:	e1a08828 	lsr	r8, r8, #16
   148c0:	e0020b98 	mul	r2, r8, fp
   148c4:	e59d6004 	ldr	r6, [sp, #4]
   148c8:	e1a03826 	lsr	r3, r6, #16
   148cc:	e1834801 	orr	r4, r3, r1, lsl #16
   148d0:	e1520004 	cmp	r2, r4
   148d4:	9a000002 	bls	148e4 <__udivdi3+0x240>
   148d8:	e0944005 	adds	r4, r4, r5
   148dc:	e24bb001 	sub	fp, fp, #1
   148e0:	3a0000a9 	bcc	14b8c <__udivdi3+0x4e8>
   148e4:	e0624004 	rsb	r4, r2, r4
   148e8:	e1a01007 	mov	r1, r7
   148ec:	e1a00004 	mov	r0, r4
   148f0:	ebfffd4e 	bl	13e30 <__aeabi_uidiv>
   148f4:	e1a01007 	mov	r1, r7
   148f8:	e1a06000 	mov	r6, r0
   148fc:	e1a00004 	mov	r0, r4
   14900:	ebfffd89 	bl	13f2c <__aeabi_uidivmod>
   14904:	e0040698 	mul	r4, r8, r6
   14908:	e59d0004 	ldr	r0, [sp, #4]
   1490c:	e1a03800 	lsl	r3, r0, #16
   14910:	e1a03823 	lsr	r3, r3, #16
   14914:	e1830801 	orr	r0, r3, r1, lsl #16
   14918:	e1540000 	cmp	r4, r0
   1491c:	9a000002 	bls	1492c <__udivdi3+0x288>
   14920:	e0900005 	adds	r0, r0, r5
   14924:	e2466001 	sub	r6, r6, #1
   14928:	3a000093 	bcc	14b7c <__udivdi3+0x4d8>
   1492c:	e1a09a19 	lsl	r9, r9, sl
   14930:	e0644000 	rsb	r4, r4, r0
   14934:	e186b80b 	orr	fp, r6, fp, lsl #16
   14938:	e1a01007 	mov	r1, r7
   1493c:	e1a00004 	mov	r0, r4
   14940:	ebfffd3a 	bl	13e30 <__aeabi_uidiv>
   14944:	e1a01007 	mov	r1, r7
   14948:	e1a0a000 	mov	sl, r0
   1494c:	e1a00004 	mov	r0, r4
   14950:	ebfffd75 	bl	13f2c <__aeabi_uidivmod>
   14954:	e0020a98 	mul	r2, r8, sl
   14958:	e1a03829 	lsr	r3, r9, #16
   1495c:	e1834801 	orr	r4, r3, r1, lsl #16
   14960:	e1520004 	cmp	r2, r4
   14964:	9a000005 	bls	14980 <__udivdi3+0x2dc>
   14968:	e0944005 	adds	r4, r4, r5
   1496c:	e24aa001 	sub	sl, sl, #1
   14970:	2a000002 	bcs	14980 <__udivdi3+0x2dc>
   14974:	e1520004 	cmp	r2, r4
   14978:	824aa001 	subhi	sl, sl, #1
   1497c:	80844005 	addhi	r4, r4, r5
   14980:	e0624004 	rsb	r4, r2, r4
   14984:	e1a01007 	mov	r1, r7
   14988:	e1a00004 	mov	r0, r4
   1498c:	ebfffd27 	bl	13e30 <__aeabi_uidiv>
   14990:	e1a01007 	mov	r1, r7
   14994:	e1a06000 	mov	r6, r0
   14998:	e1a00004 	mov	r0, r4
   1499c:	ebfffd62 	bl	13f2c <__aeabi_uidivmod>
   149a0:	e0020698 	mul	r2, r8, r6
   149a4:	e1a03809 	lsl	r3, r9, #16
   149a8:	e1a03823 	lsr	r3, r3, #16
   149ac:	e1830801 	orr	r0, r3, r1, lsl #16
   149b0:	e1520000 	cmp	r2, r0
   149b4:	9a000004 	bls	149cc <__udivdi3+0x328>
   149b8:	e0903005 	adds	r3, r0, r5
   149bc:	e2466001 	sub	r6, r6, #1
   149c0:	2a000001 	bcs	149cc <__udivdi3+0x328>
   149c4:	e1520003 	cmp	r2, r3
   149c8:	82466001 	subhi	r6, r6, #1
   149cc:	e186280a 	orr	r2, r6, sl, lsl #16
   149d0:	e1a0300b 	mov	r3, fp
   149d4:	eaffff8e 	b	14814 <__udivdi3+0x170>
   149d8:	e3530c01 	cmp	r3, #256	; 0x100
   149dc:	33a03000 	movcc	r3, #0
   149e0:	23a03008 	movcs	r3, #8
   149e4:	e1a0133c 	lsr	r1, ip, r3
   149e8:	e59f21ac 	ldr	r2, [pc, #428]	; 14b9c <__udivdi3+0x4f8>
   149ec:	e7d23001 	ldrb	r3, [r2, r1]
   149f0:	33a00020 	movcc	r0, #32
   149f4:	23a00018 	movcs	r0, #24
   149f8:	e050a003 	subs	sl, r0, r3
   149fc:	0affff7d 	beq	147f8 <__udivdi3+0x154>
   14a00:	e26a2020 	rsb	r2, sl, #32
   14a04:	e1a03235 	lsr	r3, r5, r2
   14a08:	e1a04236 	lsr	r4, r6, r2
   14a0c:	e1a02239 	lsr	r2, r9, r2
   14a10:	e1837a1c 	orr	r7, r3, ip, lsl sl
   14a14:	e1826a16 	orr	r6, r2, r6, lsl sl
   14a18:	e1a08827 	lsr	r8, r7, #16
   14a1c:	e1a01008 	mov	r1, r8
   14a20:	e1a00004 	mov	r0, r4
   14a24:	e58d600c 	str	r6, [sp, #12]
   14a28:	ebfffd00 	bl	13e30 <__aeabi_uidiv>
   14a2c:	e1a01008 	mov	r1, r8
   14a30:	e1a0b000 	mov	fp, r0
   14a34:	e1a00004 	mov	r0, r4
   14a38:	ebfffd3b 	bl	13f2c <__aeabi_uidivmod>
   14a3c:	e1a05a15 	lsl	r5, r5, sl
   14a40:	e1a06807 	lsl	r6, r7, #16
   14a44:	e1a06826 	lsr	r6, r6, #16
   14a48:	e0020b96 	mul	r2, r6, fp
   14a4c:	e59d000c 	ldr	r0, [sp, #12]
   14a50:	e1a03820 	lsr	r3, r0, #16
   14a54:	e1834801 	orr	r4, r3, r1, lsl #16
   14a58:	e1520004 	cmp	r2, r4
   14a5c:	e58d5008 	str	r5, [sp, #8]
   14a60:	9a000002 	bls	14a70 <__udivdi3+0x3cc>
   14a64:	e0944007 	adds	r4, r4, r7
   14a68:	e24bb001 	sub	fp, fp, #1
   14a6c:	3a00003e 	bcc	14b6c <__udivdi3+0x4c8>
   14a70:	e0624004 	rsb	r4, r2, r4
   14a74:	e1a01008 	mov	r1, r8
   14a78:	e1a00004 	mov	r0, r4
   14a7c:	ebfffceb 	bl	13e30 <__aeabi_uidiv>
   14a80:	e1a01008 	mov	r1, r8
   14a84:	e1a05000 	mov	r5, r0
   14a88:	e1a00004 	mov	r0, r4
   14a8c:	ebfffd26 	bl	13f2c <__aeabi_uidivmod>
   14a90:	e0020596 	mul	r2, r6, r5
   14a94:	e59d000c 	ldr	r0, [sp, #12]
   14a98:	e1a03800 	lsl	r3, r0, #16
   14a9c:	e1a03823 	lsr	r3, r3, #16
   14aa0:	e1830801 	orr	r0, r3, r1, lsl #16
   14aa4:	e1520000 	cmp	r2, r0
   14aa8:	9a000002 	bls	14ab8 <__udivdi3+0x414>
   14aac:	e0900007 	adds	r0, r0, r7
   14ab0:	e2455001 	sub	r5, r5, #1
   14ab4:	3a000028 	bcc	14b5c <__udivdi3+0x4b8>
   14ab8:	e0622000 	rsb	r2, r2, r0
   14abc:	e185080b 	orr	r0, r5, fp, lsl #16
   14ac0:	e59d5008 	ldr	r5, [sp, #8]
   14ac4:	e1a0c820 	lsr	ip, r0, #16
   14ac8:	e1a03825 	lsr	r3, r5, #16
   14acc:	e1c0e80c 	bic	lr, r0, ip, lsl #16
   14ad0:	e1c54803 	bic	r4, r5, r3, lsl #16
   14ad4:	e001049e 	mul	r1, lr, r4
   14ad8:	e004049c 	mul	r4, ip, r4
   14adc:	e00e0e93 	mul	lr, r3, lr
   14ae0:	e003039c 	mul	r3, ip, r3
   14ae4:	e094e00e 	adds	lr, r4, lr
   14ae8:	22833801 	addcs	r3, r3, #65536	; 0x10000
   14aec:	e091180e 	adds	r1, r1, lr, lsl #16
   14af0:	e0a3382e 	adc	r3, r3, lr, lsr #16
   14af4:	e1520003 	cmp	r2, r3
   14af8:	3a000008 	bcc	14b20 <__udivdi3+0x47c>
   14afc:	13a03000 	movne	r3, #0
   14b00:	03a03001 	moveq	r3, #1
   14b04:	e1510a19 	cmp	r1, r9, lsl sl
   14b08:	93a01000 	movls	r1, #0
   14b0c:	82031001 	andhi	r1, r3, #1
   14b10:	e3510000 	cmp	r1, #0
   14b14:	01a02000 	moveq	r2, r0
   14b18:	01a03001 	moveq	r3, r1
   14b1c:	0affff3c 	beq	14814 <__udivdi3+0x170>
   14b20:	e2402001 	sub	r2, r0, #1
   14b24:	e3a03000 	mov	r3, #0
   14b28:	eaffff39 	b	14814 <__udivdi3+0x170>
   14b2c:	e3550c01 	cmp	r5, #256	; 0x100
   14b30:	33a00020 	movcc	r0, #32
   14b34:	23a00018 	movcs	r0, #24
   14b38:	33a03000 	movcc	r3, #0
   14b3c:	23a03008 	movcs	r3, #8
   14b40:	eaffff44 	b	14858 <__udivdi3+0x1b4>
   14b44:	e3520c01 	cmp	r2, #256	; 0x100
   14b48:	33a00020 	movcc	r0, #32
   14b4c:	23a00018 	movcs	r0, #24
   14b50:	33a03000 	movcc	r3, #0
   14b54:	23a03008 	movcs	r3, #8
   14b58:	eafffee4 	b	146f0 <__udivdi3+0x4c>
   14b5c:	e1520000 	cmp	r2, r0
   14b60:	80800007 	addhi	r0, r0, r7
   14b64:	82455001 	subhi	r5, r5, #1
   14b68:	eaffffd2 	b	14ab8 <__udivdi3+0x414>
   14b6c:	e1520004 	cmp	r2, r4
   14b70:	824bb001 	subhi	fp, fp, #1
   14b74:	80844007 	addhi	r4, r4, r7
   14b78:	eaffffbc 	b	14a70 <__udivdi3+0x3cc>
   14b7c:	e1540000 	cmp	r4, r0
   14b80:	82466001 	subhi	r6, r6, #1
   14b84:	80800005 	addhi	r0, r0, r5
   14b88:	eaffff67 	b	1492c <__udivdi3+0x288>
   14b8c:	e1520004 	cmp	r2, r4
   14b90:	824bb001 	subhi	fp, fp, #1
   14b94:	80844005 	addhi	r4, r4, r5
   14b98:	eaffff51 	b	148e4 <__udivdi3+0x240>
   14b9c:	00016a18 	.word	0x00016a18
